---
triple:          'arm64-apple-darwin'
binary-path:     '/Users/laus_hisaki_liu/Library/Mobile Documents/com~apple~CloudDocs/00KeyFolder/Equity_Analysis/build/main.exe'
relocations:
  - { offset: 0x4C, size: 0x8, addend: 0x0, symName: __ZN8nlohmann16json_abi_v3_11_36detail12static_constINS1_12from_json_fnEE5valueE, symObjAddr: 0x303E9, symBinAddr: 0x10003290D, symSize: 0x0 }
  - { offset: 0x1A4C, size: 0x8, addend: 0x0, symName: __ZN8nlohmann16json_abi_v3_11_36detaileqENS1_20primitive_iterator_tES2_, symObjAddr: 0x677C, symBinAddr: 0x100007638, symSize: 0x28 }
  - { offset: 0x1A86, size: 0x8, addend: 0x0, symName: __ZN8nlohmann16json_abi_v3_11_36detail6concatINSt3__112basic_stringIcNS3_11char_traitsIcEENS3_9allocatorIcEEEEJS9_S9_RKS9_EEET_DpOT0_, symObjAddr: 0x67A4, symBinAddr: 0x100007660, symSize: 0xD8 }
  - { offset: 0x1AFB, size: 0x8, addend: 0x0, symName: __ZN8nlohmann16json_abi_v3_11_36detail13concat_lengthINSt3__112basic_stringIcNS3_11char_traitsIcEENS3_9allocatorIcEEEEJS9_S9_EEEmRKT_DpRKT0_, symObjAddr: 0x6994, symBinAddr: 0x100007850, symSize: 0x48 }
  - { offset: 0x1B5C, size: 0x8, addend: 0x0, symName: __ZN8nlohmann16json_abi_v3_11_36detail11concat_intoINSt3__112basic_stringIcNS3_11char_traitsIcEENS3_9allocatorIcEEEES9_JS9_RKS9_ELi0EEEvRT_OT0_DpOT1_, symObjAddr: 0x69DC, symBinAddr: 0x100007898, symSize: 0x44 }
  - { offset: 0x1BD6, size: 0x8, addend: 0x0, symName: __ZN8nlohmann16json_abi_v3_11_36detail13concat_lengthINSt3__112basic_stringIcNS3_11char_traitsIcEENS3_9allocatorIcEEEEJS9_EEEmRKT_DpRKT0_, symObjAddr: 0x6A20, symBinAddr: 0x1000078DC, symSize: 0x40 }
  - { offset: 0x1C24, size: 0x8, addend: 0x0, symName: __ZN8nlohmann16json_abi_v3_11_36detail13concat_lengthINSt3__112basic_stringIcNS3_11char_traitsIcEENS3_9allocatorIcEEEEJEEEmRKT_DpRKT0_, symObjAddr: 0x6A60, symBinAddr: 0x10000791C, symSize: 0x38 }
  - { offset: 0x1C5E, size: 0x8, addend: 0x0, symName: __ZN8nlohmann16json_abi_v3_11_36detail13concat_lengthEv, symObjAddr: 0x6A98, symBinAddr: 0x100007954, symSize: 0x8 }
  - { offset: 0x1C7B, size: 0x8, addend: 0x0, symName: __ZN8nlohmann16json_abi_v3_11_36detail11concat_intoINSt3__112basic_stringIcNS3_11char_traitsIcEENS3_9allocatorIcEEEES9_JRKS9_ELi0EEEvRT_OT0_DpOT1_, symObjAddr: 0x6AA0, symBinAddr: 0x10000795C, symSize: 0x3C }
  - { offset: 0x1CE2, size: 0x8, addend: 0x0, symName: __ZN8nlohmann16json_abi_v3_11_36detail11concat_intoINSt3__112basic_stringIcNS3_11char_traitsIcEENS3_9allocatorIcEEEERKS9_JELi0EEEvRT_OT0_DpOT1_, symObjAddr: 0x6ADC, symBinAddr: 0x100007998, symSize: 0x34 }
  - { offset: 0x1D35, size: 0x8, addend: 0x0, symName: __ZN8nlohmann16json_abi_v3_11_36detail11concat_intoINSt3__112basic_stringIcNS3_11char_traitsIcEENS3_9allocatorIcEEEEEEvRT_, symObjAddr: 0x6B10, symBinAddr: 0x1000079CC, symSize: 0x10 }
  - { offset: 0x1D62, size: 0x8, addend: 0x0, symName: __ZN8nlohmann16json_abi_v3_11_36detail6concatINSt3__112basic_stringIcNS3_11char_traitsIcEENS3_9allocatorIcEEEEJRA17_KcRKS9_cS9_RA3_SA_EEET_DpOT0_, symObjAddr: 0x6B20, symBinAddr: 0x1000079DC, symSize: 0xF0 }
  - { offset: 0x1DFD, size: 0x8, addend: 0x0, symName: __ZN8nlohmann16json_abi_v3_11_36detail13concat_lengthIJNSt3__112basic_stringIcNS3_11char_traitsIcEENS3_9allocatorIcEEEEcS9_A3_cEEEmPKcDpRKT_, symObjAddr: 0x6C10, symBinAddr: 0x100007ACC, symSize: 0x58 }
  - { offset: 0x1E7B, size: 0x8, addend: 0x0, symName: __ZN8nlohmann16json_abi_v3_11_36detail11concat_intoINSt3__112basic_stringIcNS3_11char_traitsIcEENS3_9allocatorIcEEEERA17_KcJRKS9_cS9_RA3_SA_ELi0EEEvRT_OT0_DpOT1_, symObjAddr: 0x6C68, symBinAddr: 0x100007B24, symSize: 0x54 }
  - { offset: 0x1F1B, size: 0x8, addend: 0x0, symName: __ZN8nlohmann16json_abi_v3_11_36detail13concat_lengthINSt3__112basic_stringIcNS3_11char_traitsIcEENS3_9allocatorIcEEEEJcS9_A3_cEEEmRKT_DpRKT0_, symObjAddr: 0x6CBC, symBinAddr: 0x100007B78, symSize: 0x54 }
  - { offset: 0x1F8F, size: 0x8, addend: 0x0, symName: __ZN8nlohmann16json_abi_v3_11_36detail13concat_lengthIJNSt3__112basic_stringIcNS3_11char_traitsIcEENS3_9allocatorIcEEEEA3_cEEEmcDpRKT_, symObjAddr: 0x6D10, symBinAddr: 0x100007BCC, symSize: 0x34 }
  - { offset: 0x1FE3, size: 0x8, addend: 0x0, symName: __ZN8nlohmann16json_abi_v3_11_36detail13concat_lengthINSt3__112basic_stringIcNS3_11char_traitsIcEENS3_9allocatorIcEEEEJA3_cEEEmRKT_DpRKT0_, symObjAddr: 0x6D44, symBinAddr: 0x100007C00, symSize: 0x40 }
  - { offset: 0x2031, size: 0x8, addend: 0x0, symName: __ZN8nlohmann16json_abi_v3_11_36detail13concat_lengthIJEEEmPKcDpRKT_, symObjAddr: 0x6D84, symBinAddr: 0x100007C40, symSize: 0x38 }
  - { offset: 0x2062, size: 0x8, addend: 0x0, symName: __ZN8nlohmann16json_abi_v3_11_36detail11concat_intoINSt3__112basic_stringIcNS3_11char_traitsIcEENS3_9allocatorIcEEEERKS9_JcS9_RA3_KcELi0EEEvRT_OT0_DpOT1_, symObjAddr: 0x6DBC, symBinAddr: 0x100007C78, symSize: 0x4C }
  - { offset: 0x20EF, size: 0x8, addend: 0x0, symName: __ZN8nlohmann16json_abi_v3_11_36detail11concat_intoINSt3__112basic_stringIcNS3_11char_traitsIcEENS3_9allocatorIcEEEEcJS9_RA3_KcELi0EEEvRT_OT0_DpOT1_, symObjAddr: 0x6E08, symBinAddr: 0x100007CC4, symSize: 0x48 }
  - { offset: 0x2169, size: 0x8, addend: 0x0, symName: __ZN8nlohmann16json_abi_v3_11_36detail11concat_intoINSt3__112basic_stringIcNS3_11char_traitsIcEENS3_9allocatorIcEEEES9_JRA3_KcELi0EEEvRT_OT0_DpOT1_, symObjAddr: 0x6E84, symBinAddr: 0x100007D40, symSize: 0x3C }
  - { offset: 0x21D0, size: 0x8, addend: 0x0, symName: __ZN8nlohmann16json_abi_v3_11_36detail11concat_intoINSt3__112basic_stringIcNS3_11char_traitsIcEENS3_9allocatorIcEEEERA3_KcJELi0EEEvRT_OT0_DpOT1_, symObjAddr: 0x6EC0, symBinAddr: 0x100007D7C, symSize: 0x34 }
  - { offset: 0x2223, size: 0x8, addend: 0x0, symName: __ZN8nlohmann16json_abi_v3_11_36detail13int_to_stringINSt3__112basic_stringIcNS3_11char_traitsIcEENS3_9allocatorIcEEEEEEvRT_m, symObjAddr: 0x7170, symBinAddr: 0x10000802C, symSize: 0x44 }
  - { offset: 0x2307, size: 0x8, addend: 0x0, symName: __ZN8nlohmann16json_abi_v3_11_36detail6concatINSt3__112basic_stringIcNS3_11char_traitsIcEENS3_9allocatorIcEEEEJRA51_KcPSA_EEET_DpOT0_, symObjAddr: 0x115F4, symBinAddr: 0x1000124B0, symSize: 0xCC }
  - { offset: 0x23D8, size: 0x8, addend: 0x0, symName: __ZN8nlohmann16json_abi_v3_11_36detail13concat_lengthIJPKcEEEmS4_DpRKT_, symObjAddr: 0x1397C, symBinAddr: 0x100014838, symSize: 0x44 }
  - { offset: 0x241D, size: 0x8, addend: 0x0, symName: __ZN8nlohmann16json_abi_v3_11_36detail11concat_intoINSt3__112basic_stringIcNS3_11char_traitsIcEENS3_9allocatorIcEEEERA51_KcJPSA_ELi0EEEvRT_OT0_DpOT1_, symObjAddr: 0x139C0, symBinAddr: 0x10001487C, symSize: 0x3C }
  - { offset: 0x2484, size: 0x8, addend: 0x0, symName: __ZN8nlohmann16json_abi_v3_11_36detail11concat_intoINSt3__112basic_stringIcNS3_11char_traitsIcEENS3_9allocatorIcEEEEPKcJELi0EEEvRT_OT0_DpOT1_, symObjAddr: 0x139FC, symBinAddr: 0x1000148B8, symSize: 0x38 }
  - { offset: 0x24EB, size: 0x8, addend: 0x0, symName: __ZN8nlohmann16json_abi_v3_11_36detail9from_jsonINS0_10basic_jsonINSt3__13mapENS4_6vectorENS4_12basic_stringIcNS4_11char_traitsIcEENS4_9allocatorIcEEEEbxydSA_NS0_14adl_serializerENS6_IhNSA_IhEEEEvEEEEvRKT_RNSH_8string_tE, symObjAddr: 0x13B6C, symBinAddr: 0x100014A28, symSize: 0x118 }
  - { offset: 0x252A, size: 0x8, addend: 0x0, symName: __ZN8nlohmann16json_abi_v3_11_36detail6concatINSt3__112basic_stringIcNS3_11char_traitsIcEENS3_9allocatorIcEEEEJRA29_KcPSA_EEET_DpOT0_, symObjAddr: 0x13DD8, symBinAddr: 0x100014C94, symSize: 0xC4 }
  - { offset: 0x258C, size: 0x8, addend: 0x0, symName: __ZN8nlohmann16json_abi_v3_11_36detail11concat_intoINSt3__112basic_stringIcNS3_11char_traitsIcEENS3_9allocatorIcEEEERA29_KcJPSA_ELi0EEEvRT_OT0_DpOT1_, symObjAddr: 0x13EC4, symBinAddr: 0x100014D80, symSize: 0x3C }
  - { offset: 0x25F3, size: 0x8, addend: 0x0, symName: __ZN8nlohmann16json_abi_v3_11_36detail7to_jsonINS0_10basic_jsonINSt3__13mapENS4_6vectorENS4_12basic_stringIcNS4_11char_traitsIcEENS4_9allocatorIcEEEEbxydSA_NS0_14adl_serializerENS6_IhNSA_IhEEEEvEEA1_cLi0EEEvRT_RKT0_, symObjAddr: 0x14C00, symBinAddr: 0x100015ABC, symSize: 0x2C }
  - { offset: 0x27F3, size: 0x8, addend: 0x0, symName: __ZN8nlohmann16json_abi_v3_11_36detail13input_adapterINSt3__112basic_stringIcNS3_11char_traitsIcEENS3_9allocatorIcEEEEEENS1_36container_input_adapter_factory_impl31container_input_adapter_factoryIT_vE12adapter_typeERKSC_, symObjAddr: 0x14D70, symBinAddr: 0x100015C2C, symSize: 0x34 }
  - { offset: 0x28AB, size: 0x8, addend: 0x0, symName: __ZN8nlohmann16json_abi_v3_11_36detail13input_adapterINSt3__111__wrap_iterIPKcEEEENS1_30iterator_input_adapter_factoryIT_vE12adapter_typeES9_S9_, symObjAddr: 0x19BF8, symBinAddr: 0x10001AAB4, symSize: 0x4C }
  - { offset: 0x3249, size: 0x8, addend: 0x0, symName: __ZN8nlohmann16json_abi_v3_11_36detail6concatINSt3__112basic_stringIcNS3_11char_traitsIcEENS3_9allocatorIcEEEEJRA26_KcS9_cEEET_DpOT0_, symObjAddr: 0x202C4, symBinAddr: 0x100021180, symSize: 0xD8 }
  - { offset: 0x32BE, size: 0x8, addend: 0x0, symName: __ZN8nlohmann16json_abi_v3_11_36detail6concatINSt3__112basic_stringIcNS3_11char_traitsIcEENS3_9allocatorIcEEEEJRA24_KcS9_EEET_DpOT0_, symObjAddr: 0x20E0C, symBinAddr: 0x100021CC8, symSize: 0xCC }
  - { offset: 0x3320, size: 0x8, addend: 0x0, symName: __ZN8nlohmann16json_abi_v3_11_36detail13concat_lengthIJNSt3__112basic_stringIcNS3_11char_traitsIcEENS3_9allocatorIcEEEEEEEmPKcDpRKT_, symObjAddr: 0x228B8, symBinAddr: 0x100023774, symSize: 0x40 }
  - { offset: 0x3365, size: 0x8, addend: 0x0, symName: __ZN8nlohmann16json_abi_v3_11_36detail11concat_intoINSt3__112basic_stringIcNS3_11char_traitsIcEENS3_9allocatorIcEEEERA24_KcJS9_ELi0EEEvRT_OT0_DpOT1_, symObjAddr: 0x228F8, symBinAddr: 0x1000237B4, symSize: 0x3C }
  - { offset: 0x33CC, size: 0x8, addend: 0x0, symName: __ZN8nlohmann16json_abi_v3_11_36detail11concat_intoINSt3__112basic_stringIcNS3_11char_traitsIcEENS3_9allocatorIcEEEES9_JELi0EEEvRT_OT0_DpOT1_, symObjAddr: 0x22934, symBinAddr: 0x1000237F0, symSize: 0x34 }
  - { offset: 0x341F, size: 0x8, addend: 0x0, symName: __ZN8nlohmann16json_abi_v3_11_36detail6concatINSt3__112basic_stringIcNS3_11char_traitsIcEENS3_9allocatorIcEEEEJRA25_KcPSA_EEET_DpOT0_, symObjAddr: 0x23BE0, symBinAddr: 0x100024A9C, symSize: 0xC4 }
  - { offset: 0x3481, size: 0x8, addend: 0x0, symName: __ZN8nlohmann16json_abi_v3_11_36detail11concat_intoINSt3__112basic_stringIcNS3_11char_traitsIcEENS3_9allocatorIcEEEERA25_KcJPSA_ELi0EEEvRT_OT0_DpOT1_, symObjAddr: 0x24988, symBinAddr: 0x100025844, symSize: 0x3C }
  - { offset: 0x34E8, size: 0x8, addend: 0x0, symName: __ZN8nlohmann16json_abi_v3_11_36detail7to_jsonINS0_10basic_jsonINSt3__13mapENS4_6vectorENS4_12basic_stringIcNS4_11char_traitsIcEENS4_9allocatorIcEEEEbxydSA_NS0_14adl_serializerENS6_IhNSA_IhEEEEvEESC_Li0EEEvRT_RKT0_, symObjAddr: 0x24B98, symBinAddr: 0x100025A54, symSize: 0x2C }
  - { offset: 0x3539, size: 0x8, addend: 0x0, symName: __ZN8nlohmann16json_abi_v3_11_36detail6concatINSt3__112basic_stringIcNS3_11char_traitsIcEENS3_9allocatorIcEEEEJRA23_KcS9_EEET_DpOT0_, symObjAddr: 0x25130, symBinAddr: 0x100025FEC, symSize: 0xCC }
  - { offset: 0x359B, size: 0x8, addend: 0x0, symName: __ZN8nlohmann16json_abi_v3_11_36detail11concat_intoINSt3__112basic_stringIcNS3_11char_traitsIcEENS3_9allocatorIcEEEERA23_KcJS9_ELi0EEEvRT_OT0_DpOT1_, symObjAddr: 0x251FC, symBinAddr: 0x1000260B8, symSize: 0x3C }
  - { offset: 0x3602, size: 0x8, addend: 0x0, symName: __ZN8nlohmann16json_abi_v3_11_36detail13concat_lengthIJNSt3__112basic_stringIcNS3_11char_traitsIcEENS3_9allocatorIcEEEEcEEEmPKcDpRKT_, symObjAddr: 0x2533C, symBinAddr: 0x1000261F8, symSize: 0x48 }
  - { offset: 0x365A, size: 0x8, addend: 0x0, symName: __ZN8nlohmann16json_abi_v3_11_36detail11concat_intoINSt3__112basic_stringIcNS3_11char_traitsIcEENS3_9allocatorIcEEEERA26_KcJS9_cELi0EEEvRT_OT0_DpOT1_, symObjAddr: 0x25384, symBinAddr: 0x100026240, symSize: 0x44 }
  - { offset: 0x36D4, size: 0x8, addend: 0x0, symName: __ZN8nlohmann16json_abi_v3_11_36detail13concat_lengthINSt3__112basic_stringIcNS3_11char_traitsIcEENS3_9allocatorIcEEEEJcEEEmRKT_DpRKT0_, symObjAddr: 0x253C8, symBinAddr: 0x100026284, symSize: 0x44 }
  - { offset: 0x3722, size: 0x8, addend: 0x0, symName: __ZN8nlohmann16json_abi_v3_11_36detail13concat_lengthIJEEEmcDpRKT_, symObjAddr: 0x2540C, symBinAddr: 0x1000262C8, symSize: 0x24 }
  - { offset: 0x374F, size: 0x8, addend: 0x0, symName: __ZN8nlohmann16json_abi_v3_11_36detail11concat_intoINSt3__112basic_stringIcNS3_11char_traitsIcEENS3_9allocatorIcEEEES9_JcELi0EEEvRT_OT0_DpOT1_, symObjAddr: 0x25430, symBinAddr: 0x1000262EC, symSize: 0x3C }
  - { offset: 0x37B6, size: 0x8, addend: 0x0, symName: __ZN8nlohmann16json_abi_v3_11_36detail11concat_intoINSt3__112basic_stringIcNS3_11char_traitsIcEENS3_9allocatorIcEEEEcJELi0EEEvRT_OT0_DpOT1_, symObjAddr: 0x2546C, symBinAddr: 0x100026328, symSize: 0x38 }
  - { offset: 0x3809, size: 0x8, addend: 0x0, symName: __ZN8nlohmann16json_abi_v3_11_36detail7to_jsonINS0_10basic_jsonINSt3__13mapENS4_6vectorENS4_12basic_stringIcNS4_11char_traitsIcEENS4_9allocatorIcEEEEbxydSA_NS0_14adl_serializerENS6_IhNSA_IhEEEEvEEdLi0EEEvRT_T0_, symObjAddr: 0x25AA4, symBinAddr: 0x100026960, symSize: 0x2C }
  - { offset: 0x3889, size: 0x8, addend: 0x0, symName: __ZN8nlohmann16json_abi_v3_11_36detail7to_jsonINS0_10basic_jsonINSt3__13mapENS4_6vectorENS4_12basic_stringIcNS4_11char_traitsIcEENS4_9allocatorIcEEEEbxydSA_NS0_14adl_serializerENS6_IhNSA_IhEEEEvEEbLi0EEEvRT_T0_, symObjAddr: 0x26118, symBinAddr: 0x100026FD4, symSize: 0x38 }
  - { offset: 0x3909, size: 0x8, addend: 0x0, symName: __ZN8nlohmann16json_abi_v3_11_36detail7to_jsonINS0_10basic_jsonINSt3__13mapENS4_6vectorENS4_12basic_stringIcNS4_11char_traitsIcEENS4_9allocatorIcEEEEbxydSA_NS0_14adl_serializerENS6_IhNSA_IhEEEEvEExLi0EEEvRT_T0_, symObjAddr: 0x26C7C, symBinAddr: 0x100027B38, symSize: 0x2C }
  - { offset: 0x3989, size: 0x8, addend: 0x0, symName: __ZN8nlohmann16json_abi_v3_11_36detail7to_jsonINS0_10basic_jsonINSt3__13mapENS4_6vectorENS4_12basic_stringIcNS4_11char_traitsIcEENS4_9allocatorIcEEEEbxydSA_NS0_14adl_serializerENS6_IhNSA_IhEEEEvEEyLi0EEEvRT_T0_, symObjAddr: 0x277C8, symBinAddr: 0x100028684, symSize: 0x2C }
  - { offset: 0x3A09, size: 0x8, addend: 0x0, symName: __ZN8nlohmann16json_abi_v3_11_36detail6concatINSt3__112basic_stringIcNS3_11char_traitsIcEENS3_9allocatorIcEEEEJS9_RA12_KcS9_RA3_SA_S9_RKS9_EEET_DpOT0_, symObjAddr: 0x27A1C, symBinAddr: 0x1000288D8, symSize: 0xFC }
  - { offset: 0x3AB7, size: 0x8, addend: 0x0, symName: __ZN8nlohmann16json_abi_v3_11_36detail13concat_lengthINSt3__112basic_stringIcNS3_11char_traitsIcEENS3_9allocatorIcEEEEJA12_cS9_A3_cS9_S9_EEEmRKT_DpRKT0_, symObjAddr: 0x27C18, symBinAddr: 0x100028AD4, symSize: 0x60 }
  - { offset: 0x3B51, size: 0x8, addend: 0x0, symName: __ZN8nlohmann16json_abi_v3_11_36detail11concat_intoINSt3__112basic_stringIcNS3_11char_traitsIcEENS3_9allocatorIcEEEES9_JRA12_KcS9_RA3_SA_S9_RKS9_ELi0EEEvRT_OT0_DpOT1_, symObjAddr: 0x27C78, symBinAddr: 0x100028B34, symSize: 0x5C }
  - { offset: 0x3C04, size: 0x8, addend: 0x0, symName: __ZN8nlohmann16json_abi_v3_11_36detail13concat_lengthIJNSt3__112basic_stringIcNS3_11char_traitsIcEENS3_9allocatorIcEEEEA3_cS9_S9_EEEmPKcDpRKT_, symObjAddr: 0x27CD4, symBinAddr: 0x100028B90, symSize: 0x58 }
  - { offset: 0x3C82, size: 0x8, addend: 0x0, symName: __ZN8nlohmann16json_abi_v3_11_36detail13concat_lengthINSt3__112basic_stringIcNS3_11char_traitsIcEENS3_9allocatorIcEEEEJA3_cS9_S9_EEEmRKT_DpRKT0_, symObjAddr: 0x27D2C, symBinAddr: 0x100028BE8, symSize: 0x50 }
  - { offset: 0x3CF6, size: 0x8, addend: 0x0, symName: __ZN8nlohmann16json_abi_v3_11_36detail13concat_lengthIJNSt3__112basic_stringIcNS3_11char_traitsIcEENS3_9allocatorIcEEEES9_EEEmPKcDpRKT_, symObjAddr: 0x27D7C, symBinAddr: 0x100028C38, symSize: 0x48 }
  - { offset: 0x3D4E, size: 0x8, addend: 0x0, symName: __ZN8nlohmann16json_abi_v3_11_36detail11concat_intoINSt3__112basic_stringIcNS3_11char_traitsIcEENS3_9allocatorIcEEEERA12_KcJS9_RA3_SA_S9_RKS9_ELi0EEEvRT_OT0_DpOT1_, symObjAddr: 0x27DC4, symBinAddr: 0x100028C80, symSize: 0x54 }
  - { offset: 0x3DEE, size: 0x8, addend: 0x0, symName: __ZN8nlohmann16json_abi_v3_11_36detail11concat_intoINSt3__112basic_stringIcNS3_11char_traitsIcEENS3_9allocatorIcEEEES9_JRA3_KcS9_RKS9_ELi0EEEvRT_OT0_DpOT1_, symObjAddr: 0x27E18, symBinAddr: 0x100028CD4, symSize: 0x4C }
  - { offset: 0x3E7B, size: 0x8, addend: 0x0, symName: __ZN8nlohmann16json_abi_v3_11_36detail11concat_intoINSt3__112basic_stringIcNS3_11char_traitsIcEENS3_9allocatorIcEEEERA3_KcJS9_RKS9_ELi0EEEvRT_OT0_DpOT1_, symObjAddr: 0x27E64, symBinAddr: 0x100028D20, symSize: 0x44 }
  - { offset: 0x3EF5, size: 0x8, addend: 0x0, symName: __ZN8nlohmann16json_abi_v3_11_36detail6concatINSt3__112basic_stringIcNS3_11char_traitsIcEENS3_9allocatorIcEEEEJRA10_KcS9_SC_S9_EEET_DpOT0_, symObjAddr: 0x27EA8, symBinAddr: 0x100028D64, symSize: 0xE4 }
  - { offset: 0x3F7D, size: 0x8, addend: 0x0, symName: __ZN8nlohmann16json_abi_v3_11_36detail13concat_lengthIJNSt3__112basic_stringIcNS3_11char_traitsIcEENS3_9allocatorIcEEEEA10_cS9_EEEmPKcDpRKT_, symObjAddr: 0x27F8C, symBinAddr: 0x100028E48, symSize: 0x50 }
  - { offset: 0x3FE8, size: 0x8, addend: 0x0, symName: __ZN8nlohmann16json_abi_v3_11_36detail11concat_intoINSt3__112basic_stringIcNS3_11char_traitsIcEENS3_9allocatorIcEEEERA10_KcJS9_SC_S9_ELi0EEEvRT_OT0_DpOT1_, symObjAddr: 0x27FDC, symBinAddr: 0x100028E98, symSize: 0x4C }
  - { offset: 0x4075, size: 0x8, addend: 0x0, symName: __ZN8nlohmann16json_abi_v3_11_36detail13concat_lengthINSt3__112basic_stringIcNS3_11char_traitsIcEENS3_9allocatorIcEEEEJA10_cS9_EEEmRKT_DpRKT0_, symObjAddr: 0x28028, symBinAddr: 0x100028EE4, symSize: 0x48 }
  - { offset: 0x40D6, size: 0x8, addend: 0x0, symName: __ZN8nlohmann16json_abi_v3_11_36detail11concat_intoINSt3__112basic_stringIcNS3_11char_traitsIcEENS3_9allocatorIcEEEES9_JRA10_KcS9_ELi0EEEvRT_OT0_DpOT1_, symObjAddr: 0x28070, symBinAddr: 0x100028F2C, symSize: 0x44 }
  - { offset: 0x4150, size: 0x8, addend: 0x0, symName: __ZN8nlohmann16json_abi_v3_11_36detail11concat_intoINSt3__112basic_stringIcNS3_11char_traitsIcEENS3_9allocatorIcEEEERA10_KcJS9_ELi0EEEvRT_OT0_DpOT1_, symObjAddr: 0x280B4, symBinAddr: 0x100028F70, symSize: 0x3C }
  - { offset: 0x41B7, size: 0x8, addend: 0x0, symName: __ZN8nlohmann16json_abi_v3_11_36detail6concatINSt3__112basic_stringIcNS3_11char_traitsIcEENS3_9allocatorIcEEEEJRA15_KcRKS9_cEEET_DpOT0_, symObjAddr: 0x28178, symBinAddr: 0x100029034, symSize: 0xD8 }
  - { offset: 0x422C, size: 0x8, addend: 0x0, symName: __ZN8nlohmann16json_abi_v3_11_36detail6concatINSt3__112basic_stringIcNS3_11char_traitsIcEENS3_9allocatorIcEEEEJPKcRA15_SA_S9_cEEET_DpOT0_, symObjAddr: 0x28250, symBinAddr: 0x10002910C, symSize: 0xE8 }
  - { offset: 0x42B4, size: 0x8, addend: 0x0, symName: __ZN8nlohmann16json_abi_v3_11_36detail6concatINSt3__112basic_stringIcNS3_11char_traitsIcEENS3_9allocatorIcEEEEJRA12_KcPSA_EEET_DpOT0_, symObjAddr: 0x28350, symBinAddr: 0x10002920C, symSize: 0xC4 }
  - { offset: 0x4316, size: 0x8, addend: 0x0, symName: __ZN8nlohmann16json_abi_v3_11_36detail11concat_intoINSt3__112basic_stringIcNS3_11char_traitsIcEENS3_9allocatorIcEEEERA15_KcJRKS9_cELi0EEEvRT_OT0_DpOT1_, symObjAddr: 0x285A4, symBinAddr: 0x100029460, symSize: 0x44 }
  - { offset: 0x4390, size: 0x8, addend: 0x0, symName: __ZN8nlohmann16json_abi_v3_11_36detail11concat_intoINSt3__112basic_stringIcNS3_11char_traitsIcEENS3_9allocatorIcEEEERKS9_JcELi0EEEvRT_OT0_DpOT1_, symObjAddr: 0x285E8, symBinAddr: 0x1000294A4, symSize: 0x3C }
  - { offset: 0x43F7, size: 0x8, addend: 0x0, symName: __ZN8nlohmann16json_abi_v3_11_36detail13concat_lengthIJA15_cNSt3__112basic_stringIcNS4_11char_traitsIcEENS4_9allocatorIcEEEEcEEEmPKcDpRKT_, symObjAddr: 0x28624, symBinAddr: 0x1000294E0, symSize: 0x50 }
  - { offset: 0x4462, size: 0x8, addend: 0x0, symName: __ZN8nlohmann16json_abi_v3_11_36detail11concat_intoINSt3__112basic_stringIcNS3_11char_traitsIcEENS3_9allocatorIcEEEEPKcJRA15_SA_S9_cELi0EEEvRT_OT0_DpOT1_, symObjAddr: 0x28674, symBinAddr: 0x100029530, symSize: 0x50 }
  - { offset: 0x44EF, size: 0x8, addend: 0x0, symName: __ZN8nlohmann16json_abi_v3_11_36detail11concat_intoINSt3__112basic_stringIcNS3_11char_traitsIcEENS3_9allocatorIcEEEERA15_KcJS9_cELi0EEEvRT_OT0_DpOT1_, symObjAddr: 0x286C4, symBinAddr: 0x100029580, symSize: 0x44 }
  - { offset: 0x4569, size: 0x8, addend: 0x0, symName: __ZN8nlohmann16json_abi_v3_11_36detail11concat_intoINSt3__112basic_stringIcNS3_11char_traitsIcEENS3_9allocatorIcEEEERA12_KcJPSA_ELi0EEEvRT_OT0_DpOT1_, symObjAddr: 0x28708, symBinAddr: 0x1000295C4, symSize: 0x3C }
  - { offset: 0x63B3, size: 0x8, addend: 0x0, symName: __ZN8nlohmann16json_abi_v3_11_36detail12static_constINS1_10to_json_fnEE5valueE, symObjAddr: 0x303EA, symBinAddr: 0x10003290E, symSize: 0x0 }
  - { offset: 0x63DB, size: 0x8, addend: 0x0, symName: __ZNSt3__119piecewise_constructE, symObjAddr: 0x30487, symBinAddr: 0x1000329AB, symSize: 0x0 }
  - { offset: 0x12CC5, size: 0x8, addend: 0x0, symName: __ZNSt3__124__put_character_sequenceB8ne180100IcNS_11char_traitsIcEEEERNS_13basic_ostreamIT_T0_EES7_PKS4_m, symObjAddr: 0x2B1C, symBinAddr: 0x1000039D8, symSize: 0x1EC }
  - { offset: 0x12EED, size: 0x8, addend: 0x0, symName: __ZNSt3__16copy_nB8ne180100IPKcmPcLi0EEET1_T_T0_S4_, symObjAddr: 0x46B0, symBinAddr: 0x10000556C, symSize: 0x44 }
  - { offset: 0x1310C, size: 0x8, addend: 0x0, symName: __ZNSt3__17advanceB8ne180100INS_21__tree_const_iteratorINS_12__value_typeINS_12basic_stringIcNS_11char_traitsIcEENS_9allocatorIcEEEEN8nlohmann16json_abi_v3_11_310basic_jsonINS_3mapENS_6vectorES8_bxydS6_NSA_14adl_serializerENSD_IhNS6_IhEEEEvEEEEPNS_11__tree_nodeISI_PvEElEEllvEEvRT_T0_, symObjAddr: 0x9C30, symBinAddr: 0x10000AAEC, symSize: 0x38 }
  - { offset: 0x13592, size: 0x8, addend: 0x0, symName: __ZNSt3__17advanceB8ne180100IPN8nlohmann16json_abi_v3_11_310basic_jsonINS_3mapENS_6vectorENS_12basic_stringIcNS_11char_traitsIcEENS_9allocatorIcEEEEbxydS9_NS2_14adl_serializerENS5_IhNS9_IhEEEEvEEllvEEvRT_T0_, symObjAddr: 0xC3C8, symBinAddr: 0x10000D284, symSize: 0x38 }
  - { offset: 0x13A21, size: 0x8, addend: 0x0, symName: __ZNSt3__17advanceB8ne180100INS_16reverse_iteratorIPN8nlohmann16json_abi_v3_11_310basic_jsonINS_3mapENS_6vectorENS_12basic_stringIcNS_11char_traitsIcEENS_9allocatorIcEEEEbxydSA_NS3_14adl_serializerENS6_IhNSA_IhEEEEvEEEEllvEEvRT_T0_, symObjAddr: 0x1005C, symBinAddr: 0x100010F18, symSize: 0x38 }
  - { offset: 0x13B59, size: 0x8, addend: 0x0, symName: __ZNSt3__17advanceB8ne180100INS_14__map_iteratorINS_15__tree_iteratorINS_12__value_typeINS_12basic_stringIcNS_11char_traitsIcEENS_9allocatorIcEEEEN8nlohmann16json_abi_v3_11_310basic_jsonINS_3mapENS_6vectorES9_bxydS7_NSB_14adl_serializerENSE_IhNS7_IhEEEEvEEEEPNS_11__tree_nodeISJ_PvEElEEEEiivEEvRT_T0_, symObjAddr: 0x1405C, symBinAddr: 0x100014F18, symSize: 0x40 }
  - { offset: 0x13BE0, size: 0x8, addend: 0x0, symName: __ZNSt3__17advanceB8ne180100INS_11__wrap_iterIPN8nlohmann16json_abi_v3_11_310basic_jsonINS_3mapENS_6vectorENS_12basic_stringIcNS_11char_traitsIcEENS_9allocatorIcEEEEbxydSA_NS3_14adl_serializerENS6_IhNSA_IhEEEEvEEEEiivEEvRT_T0_, symObjAddr: 0x1409C, symBinAddr: 0x100014F58, symSize: 0x40 }
  - { offset: 0x14F91, size: 0x8, addend: 0x0, symName: __ZNSt3__17advanceB8ne180100INS_11__wrap_iterIPKcEEiivEEvRT_T0_, symObjAddr: 0x17D18, symBinAddr: 0x100018BD4, symSize: 0x40 }
  - { offset: 0x18469, size: 0x8, addend: 0x0, symName: __ZNSt3__1lsB8ne180100INS_11char_traitsIcEEEERNS_13basic_ostreamIcT_EES6_PKc, symObjAddr: 0x71C, symBinAddr: 0x1000015D8, symSize: 0x48 }
  - { offset: 0x184AF, size: 0x8, addend: 0x0, symName: __ZNSt3__14endlB8ne180100IcNS_11char_traitsIcEEEERNS_13basic_ostreamIT_T0_EES7_, symObjAddr: 0x790, symBinAddr: 0x10000164C, symSize: 0x58 }
  - { offset: 0x184EF, size: 0x8, addend: 0x0, symName: __ZNSt3__118__constexpr_strlenB8ne180100EPKc, symObjAddr: 0x2338, symBinAddr: 0x1000031F4, symSize: 0x24 }
  - { offset: 0x1851B, size: 0x8, addend: 0x0, symName: __ZNSt3__1lsB8ne180100IcNS_11char_traitsIcEENS_9allocatorIcEEEERNS_13basic_ostreamIT_T0_EES9_RKNS_12basic_stringIS6_S7_T1_EE, symObjAddr: 0x257C, symBinAddr: 0x100003438, symSize: 0x4C }
  - { offset: 0x18573, size: 0x8, addend: 0x0, symName: __ZNSt3__112__to_addressB8ne180100IKcEEPT_S3_, symObjAddr: 0x29E0, symBinAddr: 0x10000389C, symSize: 0x14 }
  - { offset: 0x185DB, size: 0x8, addend: 0x0, symName: __ZNSt3__116__pad_and_outputB8ne180100IcNS_11char_traitsIcEEEENS_19ostreambuf_iteratorIT_T0_EES6_PKS4_S8_S8_RNS_8ios_baseES4_, symObjAddr: 0x2D78, symBinAddr: 0x100003C34, symSize: 0x240 }
  - { offset: 0x186AA, size: 0x8, addend: 0x0, symName: __ZNSt3__112__to_addressB8ne180100IcEEPT_S2_, symObjAddr: 0x31E8, symBinAddr: 0x1000040A4, symSize: 0x14 }
  - { offset: 0x186DF, size: 0x8, addend: 0x0, symName: __ZNSt3__19use_facetB8ne180100INS_5ctypeIcEEEERKT_RKNS_6localeE, symObjAddr: 0x3430, symBinAddr: 0x1000042EC, symSize: 0x2C }
  - { offset: 0x18BAC, size: 0x8, addend: 0x0, symName: __ZNSt3__1plB8ne180100IcNS_11char_traitsIcEENS_9allocatorIcEEEENS_12basic_stringIT_T0_T1_EEOS9_RKS9_, symObjAddr: 0x3994, symBinAddr: 0x100004850, symSize: 0x40 }
  - { offset: 0x18C04, size: 0x8, addend: 0x0, symName: __ZNSt3__1plB8ne180100IcNS_11char_traitsIcEENS_9allocatorIcEEEENS_12basic_stringIT_T0_T1_EERKS9_SB_, symObjAddr: 0x39D4, symBinAddr: 0x100004890, symSize: 0x134 }
  - { offset: 0x18E93, size: 0x8, addend: 0x0, symName: __ZNSt3__120__throw_length_errorB8ne180100EPKc, symObjAddr: 0x4424, symBinAddr: 0x1000052E0, symSize: 0x64 }
  - { offset: 0x18EBB, size: 0x8, addend: 0x0, symName: __ZNSt3__117__libcpp_allocateB8ne180100Emm, symObjAddr: 0x45A8, symBinAddr: 0x100005464, symSize: 0x60 }
  - { offset: 0x18F17, size: 0x8, addend: 0x0, symName: __ZNSt3__124__is_overaligned_for_newB8ne180100Em, symObjAddr: 0x4608, symBinAddr: 0x1000054C4, symSize: 0x20 }
  - { offset: 0x18F45, size: 0x8, addend: 0x0, symName: __ZNSt3__121__libcpp_operator_newB8ne180100IJmSt11align_val_tEEEPvDpT_, symObjAddr: 0x4628, symBinAddr: 0x1000054E4, symSize: 0x2C }
  - { offset: 0x18F92, size: 0x8, addend: 0x0, symName: __ZNSt3__121__libcpp_operator_newB8ne180100IJmEEEPvDpT_, symObjAddr: 0x4654, symBinAddr: 0x100005510, symSize: 0x24 }
  - { offset: 0x18FCB, size: 0x8, addend: 0x0, symName: __ZNSt3__14copyB8ne180100IPKcPcEET0_T_S5_S4_, symObjAddr: 0x46F4, symBinAddr: 0x1000055B0, symSize: 0x40 }
  - { offset: 0x19025, size: 0x8, addend: 0x0, symName: __ZNSt3__16__copyB8ne180100INS_17_ClassicAlgPolicyEPKcS3_PcEENS_4pairIT0_T2_EES6_T1_S7_, symObjAddr: 0x4734, symBinAddr: 0x1000055F0, symSize: 0x44 }
  - { offset: 0x19091, size: 0x8, addend: 0x0, symName: __ZNSt3__123__dispatch_copy_or_moveB8ne180100INS_17_ClassicAlgPolicyENS_11__copy_loopIS1_EENS_14__copy_trivialEPKcS6_PcEENS_4pairIT2_T4_EES9_T3_SA_, symObjAddr: 0x4778, symBinAddr: 0x100005634, symSize: 0x44 }
  - { offset: 0x1910F, size: 0x8, addend: 0x0, symName: __ZNSt3__121__unwrap_and_dispatchB8ne180100INS_10__overloadINS_11__copy_loopINS_17_ClassicAlgPolicyEEENS_14__copy_trivialEEEPKcS8_PcLi0EEENS_4pairIT0_T2_EESB_T1_SC_, symObjAddr: 0x47BC, symBinAddr: 0x100005678, symSize: 0xB4 }
  - { offset: 0x1919D, size: 0x8, addend: 0x0, symName: __ZNSt3__114__unwrap_rangeB8ne180100IPKcS2_EEDaT_T0_, symObjAddr: 0x4870, symBinAddr: 0x10000572C, symSize: 0x3C }
  - { offset: 0x1936E, size: 0x8, addend: 0x0, symName: __ZNSt3__113__unwrap_iterB8ne180100IPcNS_18__unwrap_iter_implIS1_Lb1EEELi0EEEDTclsrT0_8__unwrapclsr3stdE7declvalIT_EEEES5_, symObjAddr: 0x48F4, symBinAddr: 0x1000057B0, symSize: 0x24 }
  - { offset: 0x193B2, size: 0x8, addend: 0x0, symName: __ZNSt3__19make_pairB8ne180100IPKcPcEENS_4pairINS_18__unwrap_ref_decayIT_E4typeENS5_IT0_E4typeEEEOS6_OS9_, symObjAddr: 0x4918, symBinAddr: 0x1000057D4, symSize: 0x38 }
  - { offset: 0x19401, size: 0x8, addend: 0x0, symName: __ZNSt3__114__rewrap_rangeB8ne180100IPKcS2_S2_EET0_S3_T1_, symObjAddr: 0x4950, symBinAddr: 0x10000580C, symSize: 0x2C }
  - { offset: 0x19456, size: 0x8, addend: 0x0, symName: __ZNSt3__113__rewrap_iterB8ne180100IPcS1_NS_18__unwrap_iter_implIS1_Lb1EEEEET_S4_T0_, symObjAddr: 0x497C, symBinAddr: 0x100005838, symSize: 0x3C }
  - { offset: 0x195C7, size: 0x8, addend: 0x0, symName: __ZNSt3__113__unwrap_iterB8ne180100IPKcNS_18__unwrap_iter_implIS2_Lb1EEELi0EEEDTclsrT0_8__unwrapclsr3stdE7declvalIT_EEEES6_, symObjAddr: 0x4A10, symBinAddr: 0x1000058CC, symSize: 0x24 }
  - { offset: 0x1965E, size: 0x8, addend: 0x0, symName: __ZNSt3__119__copy_trivial_implB8ne180100IKccEENS_4pairIPT_PT0_EES4_S4_S6_, symObjAddr: 0x4AC8, symBinAddr: 0x100005984, symSize: 0x78 }
  - { offset: 0x196C6, size: 0x8, addend: 0x0, symName: __ZNSt3__119__constexpr_memmoveB8ne180100IcKcLi0EEEPT_S3_PT0_NS_15__element_countE, symObjAddr: 0x4B40, symBinAddr: 0x1000059FC, symSize: 0x64 }
  - { offset: 0x19734, size: 0x8, addend: 0x0, symName: __ZNSt3__19make_pairB8ne180100IRPKcPcEENS_4pairINS_18__unwrap_ref_decayIT_E4typeENS6_IT0_E4typeEEEOS7_OSA_, symObjAddr: 0x4BA4, symBinAddr: 0x100005A60, symSize: 0x38 }
  - { offset: 0x197D6, size: 0x8, addend: 0x0, symName: __ZNSt3__113__rewrap_iterB8ne180100IPKcS2_NS_18__unwrap_iter_implIS2_Lb1EEEEET_S5_T0_, symObjAddr: 0x4D0C, symBinAddr: 0x100005BC8, symSize: 0x3C }
  - { offset: 0x1982B, size: 0x8, addend: 0x0, symName: __ZNSt3__16fill_nB8ne180100IPcmcEET_S2_T0_RKT1_, symObjAddr: 0x4DD8, symBinAddr: 0x100005C94, symSize: 0x44 }
  - { offset: 0x1988E, size: 0x8, addend: 0x0, symName: __ZNSt3__18__fill_nB8ne180100IPcmcEET_S2_T0_RKT1_, symObjAddr: 0x4E1C, symBinAddr: 0x100005CD8, symSize: 0x64 }
  - { offset: 0x198F1, size: 0x8, addend: 0x0, symName: __ZNSt3__121__convert_to_integralB8ne180100Em, symObjAddr: 0x4E80, symBinAddr: 0x100005D3C, symSize: 0x14 }
  - { offset: 0x1991D, size: 0x8, addend: 0x0, symName: __ZNSt3__119__libcpp_deallocateB8ne180100EPvmm, symObjAddr: 0x5118, symBinAddr: 0x100005FD4, symSize: 0x60 }
  - { offset: 0x19983, size: 0x8, addend: 0x0, symName: __ZNSt3__127__do_deallocate_handle_sizeB8ne180100IJSt11align_val_tEEEvPvmDpT_, symObjAddr: 0x5178, symBinAddr: 0x100006034, symSize: 0x30 }
  - { offset: 0x199D6, size: 0x8, addend: 0x0, symName: __ZNSt3__127__do_deallocate_handle_sizeB8ne180100IJEEEvPvmDpT_, symObjAddr: 0x51A8, symBinAddr: 0x100006064, symSize: 0x28 }
  - { offset: 0x19A14, size: 0x8, addend: 0x0, symName: __ZNSt3__124__libcpp_operator_deleteB8ne180100IJPvSt11align_val_tEEEvDpT_, symObjAddr: 0x51D0, symBinAddr: 0x10000608C, symSize: 0x2C }
  - { offset: 0x19A5D, size: 0x8, addend: 0x0, symName: __ZNSt3__124__libcpp_operator_deleteB8ne180100IJPvEEEvDpT_, symObjAddr: 0x51FC, symBinAddr: 0x1000060B8, symSize: 0x24 }
  - { offset: 0x19A92, size: 0x8, addend: 0x0, symName: __ZNSt3__1plB8ne180100IcNS_11char_traitsIcEENS_9allocatorIcEEEENS_12basic_stringIT_T0_T1_EEOS9_PKS6_, symObjAddr: 0x5894, symBinAddr: 0x100006750, symSize: 0x40 }
  - { offset: 0x19D07, size: 0x8, addend: 0x0, symName: __ZNSt3__1eqB8ne180100ERKNS_14__map_iteratorINS_15__tree_iteratorINS_12__value_typeINS_12basic_stringIcNS_11char_traitsIcEENS_9allocatorIcEEEEN8nlohmann16json_abi_v3_11_310basic_jsonINS_3mapENS_6vectorES8_bxydS6_NSA_14adl_serializerENSD_IhNS6_IhEEEEvEEEEPNS_11__tree_nodeISI_PvEElEEEESQ_, symObjAddr: 0x6704, symBinAddr: 0x1000075C0, symSize: 0x30 }
  - { offset: 0x19D44, size: 0x8, addend: 0x0, symName: __ZNSt3__1eqB8ne180100IPN8nlohmann16json_abi_v3_11_310basic_jsonINS_3mapENS_6vectorENS_12basic_stringIcNS_11char_traitsIcEENS_9allocatorIcEEEEbxydS9_NS2_14adl_serializerENS5_IhNS9_IhEEEEvEEEEbRKNS_11__wrap_iterIT_EESL_, symObjAddr: 0x6734, symBinAddr: 0x1000075F0, symSize: 0x48 }
  - { offset: 0x19D88, size: 0x8, addend: 0x0, symName: __ZNSt3__1eqB8ne180100ERKNS_15__tree_iteratorINS_12__value_typeINS_12basic_stringIcNS_11char_traitsIcEENS_9allocatorIcEEEEN8nlohmann16json_abi_v3_11_310basic_jsonINS_3mapENS_6vectorES7_bxydS5_NS9_14adl_serializerENSC_IhNS5_IhEEEEvEEEEPNS_11__tree_nodeISH_PvEElEESO_, symObjAddr: 0x7110, symBinAddr: 0x100007FCC, symSize: 0x30 }
  - { offset: 0x19E2B, size: 0x8, addend: 0x0, symName: __ZNSt3__17launderB8ne180100INS_4pairIKNS_12basic_stringIcNS_11char_traitsIcEENS_9allocatorIcEEEEN8nlohmann16json_abi_v3_11_310basic_jsonINS_3mapENS_6vectorES7_bxydS5_NSA_14adl_serializerENSD_IhNS5_IhEEEEvEEEEEEPT_SK_, symObjAddr: 0x73D8, symBinAddr: 0x100008294, symSize: 0x24 }
  - { offset: 0x19E63, size: 0x8, addend: 0x0, symName: __ZNSt3__19__launderB8ne180100INS_4pairIKNS_12basic_stringIcNS_11char_traitsIcEENS_9allocatorIcEEEEN8nlohmann16json_abi_v3_11_310basic_jsonINS_3mapENS_6vectorES7_bxydS5_NSA_14adl_serializerENSD_IhNS5_IhEEEEvEEEEEEPT_SK_, symObjAddr: 0x73FC, symBinAddr: 0x1000082B8, symSize: 0x14 }
  - { offset: 0x19E9A, size: 0x8, addend: 0x0, symName: __ZNSt3__1neB8ne180100ERKNS_14__map_iteratorINS_15__tree_iteratorINS_12__value_typeINS_12basic_stringIcNS_11char_traitsIcEENS_9allocatorIcEEEEN8nlohmann16json_abi_v3_11_310basic_jsonINS_3mapENS_6vectorES8_bxydS6_NSA_14adl_serializerENSD_IhNS6_IhEEEEvEEEEPNS_11__tree_nodeISI_PvEElEEEESQ_, symObjAddr: 0x7788, symBinAddr: 0x100008644, symSize: 0x30 }
  - { offset: 0x19ED7, size: 0x8, addend: 0x0, symName: __ZNSt3__1neB8ne180100IPN8nlohmann16json_abi_v3_11_310basic_jsonINS_3mapENS_6vectorENS_12basic_stringIcNS_11char_traitsIcEENS_9allocatorIcEEEEbxydS9_NS2_14adl_serializerENS5_IhNS9_IhEEEEvEEEEbRKNS_11__wrap_iterIT_EESL_, symObjAddr: 0x77B8, symBinAddr: 0x100008674, symSize: 0x34 }
  - { offset: 0x19F1A, size: 0x8, addend: 0x0, symName: __ZNSt3__1neB8ne180100ERKNS_15__tree_iteratorINS_12__value_typeINS_12basic_stringIcNS_11char_traitsIcEENS_9allocatorIcEEEEN8nlohmann16json_abi_v3_11_310basic_jsonINS_3mapENS_6vectorES7_bxydS5_NS9_14adl_serializerENSC_IhNS5_IhEEEEvEEEEPNS_11__tree_nodeISH_PvEElEESO_, symObjAddr: 0x7828, symBinAddr: 0x1000086E4, symSize: 0x34 }
  - { offset: 0x1A4E9, size: 0x8, addend: 0x0, symName: __ZNSt3__1eqB8ne180100INS_3mapINS_12basic_stringIcNS_11char_traitsIcEENS_9allocatorIcEEEEN8nlohmann16json_abi_v3_11_310basic_jsonIS1_NS_6vectorES7_bxydS5_NS9_14adl_serializerENSB_IhNS5_IhEEEEvEENS_4lessIvEENS5_INS_4pairIKS7_SF_EEEEEEZNSF_6createISM_JRKSM_EEEPT_DpOT0_EUlPSM_E_EEbRKNS_10unique_ptrISQ_T0_EEDn, symObjAddr: 0x80BC, symBinAddr: 0x100008F78, symSize: 0x30 }
  - { offset: 0x1A535, size: 0x8, addend: 0x0, symName: __ZNSt3__114__construct_atB8ne180100INS_3mapINS_12basic_stringIcNS_11char_traitsIcEENS_9allocatorIcEEEEN8nlohmann16json_abi_v3_11_310basic_jsonIS1_NS_6vectorES7_bxydS5_NS9_14adl_serializerENSB_IhNS5_IhEEEEvEENS_4lessIvEENS5_INS_4pairIKS7_SF_EEEEEEJRKSM_EPSM_EEPT_SR_DpOT0_, symObjAddr: 0x8334, symBinAddr: 0x1000091F0, symSize: 0x2C }
  - { offset: 0x1A588, size: 0x8, addend: 0x0, symName: __ZNSt3__112construct_atB8ne180100INS_3mapINS_12basic_stringIcNS_11char_traitsIcEENS_9allocatorIcEEEEN8nlohmann16json_abi_v3_11_310basic_jsonIS1_NS_6vectorES7_bxydS5_NS9_14adl_serializerENSB_IhNS5_IhEEEEvEENS_4lessIvEENS5_INS_4pairIKS7_SF_EEEEEEJRKSM_EPSM_EEPT_SR_DpOT0_, symObjAddr: 0x8360, symBinAddr: 0x10000921C, symSize: 0x34 }
  - { offset: 0x1A5DB, size: 0x8, addend: 0x0, symName: __ZNSt3__1neB8ne180100ERKNS_20__map_const_iteratorINS_21__tree_const_iteratorINS_12__value_typeINS_12basic_stringIcNS_11char_traitsIcEENS_9allocatorIcEEEEN8nlohmann16json_abi_v3_11_310basic_jsonINS_3mapENS_6vectorES8_bxydS6_NSA_14adl_serializerENSD_IhNS6_IhEEEEvEEEEPNS_11__tree_nodeISI_PvEElEEEESQ_, symObjAddr: 0x8904, symBinAddr: 0x1000097C0, symSize: 0x30 }
  - { offset: 0x1A618, size: 0x8, addend: 0x0, symName: __ZNSt3__1neB8ne180100ERKNS_21__tree_const_iteratorINS_12__value_typeINS_12basic_stringIcNS_11char_traitsIcEENS_9allocatorIcEEEEN8nlohmann16json_abi_v3_11_310basic_jsonINS_3mapENS_6vectorES7_bxydS5_NS9_14adl_serializerENSC_IhNS5_IhEEEEvEEEEPNS_11__tree_nodeISH_PvEElEESO_, symObjAddr: 0x8A0C, symBinAddr: 0x1000098C8, symSize: 0x34 }
  - { offset: 0x1A656, size: 0x8, addend: 0x0, symName: __ZNSt3__1eqB8ne180100ERKNS_21__tree_const_iteratorINS_12__value_typeINS_12basic_stringIcNS_11char_traitsIcEENS_9allocatorIcEEEEN8nlohmann16json_abi_v3_11_310basic_jsonINS_3mapENS_6vectorES7_bxydS5_NS9_14adl_serializerENSC_IhNS5_IhEEEEvEEEEPNS_11__tree_nodeISH_PvEElEESO_, symObjAddr: 0x8A40, symBinAddr: 0x1000098FC, symSize: 0x30 }
  - { offset: 0x1A693, size: 0x8, addend: 0x0, symName: __ZNSt3__14nextB8ne180100INS_21__tree_const_iteratorINS_12__value_typeINS_12basic_stringIcNS_11char_traitsIcEENS_9allocatorIcEEEEN8nlohmann16json_abi_v3_11_310basic_jsonINS_3mapENS_6vectorES8_bxydS6_NSA_14adl_serializerENSD_IhNS6_IhEEEEvEEEEPNS_11__tree_nodeISI_PvEElEELi0EEET_SO_NS_15iterator_traitsISO_E15difference_typeE, symObjAddr: 0x94AC, symBinAddr: 0x10000A368, symSize: 0x3C }
  - { offset: 0x1A6DC, size: 0x8, addend: 0x0, symName: __ZNSt3__1ltB8ne180100ENS_15strong_orderingENS_20_CmpUnspecifiedParamE, symObjAddr: 0x95CC, symBinAddr: 0x10000A488, symSize: 0x24 }
  - { offset: 0x1A712, size: 0x8, addend: 0x0, symName: __ZNSt3__1ssB8ne180100IcNS_11char_traitsIcEENS_9allocatorIcEEEEDaRKNS_12basic_stringIT_T0_T1_EESC_, symObjAddr: 0x95F0, symBinAddr: 0x10000A4AC, symSize: 0x5C }
  - { offset: 0x1A786, size: 0x8, addend: 0x0, symName: __ZNSt3__1ssB8ne180100IcNS_11char_traitsIcEEEEDaNS_17basic_string_viewIT_T0_EENS_13type_identityIS7_E4typeE, symObjAddr: 0x9680, symBinAddr: 0x10000A53C, symSize: 0x7C }
  - { offset: 0x1A7D5, size: 0x8, addend: 0x0, symName: __ZNSt3__13minB8ne180100ImEERKT_S3_S3_, symObjAddr: 0x9888, symBinAddr: 0x10000A744, symSize: 0x2C }
  - { offset: 0x1A818, size: 0x8, addend: 0x0, symName: __ZNSt3__13minB8ne180100ImNS_6__lessIvvEEEERKT_S5_S5_T0_, symObjAddr: 0x9918, symBinAddr: 0x10000A7D4, symSize: 0x54 }
  - { offset: 0x1A8B7, size: 0x8, addend: 0x0, symName: __ZNSt3__17launderB8ne180100IKNS_4pairIKNS_12basic_stringIcNS_11char_traitsIcEENS_9allocatorIcEEEEN8nlohmann16json_abi_v3_11_310basic_jsonINS_3mapENS_6vectorES7_bxydS5_NSA_14adl_serializerENSD_IhNS5_IhEEEEvEEEEEEPT_SL_, symObjAddr: 0x9A20, symBinAddr: 0x10000A8DC, symSize: 0x24 }
  - { offset: 0x1A8EF, size: 0x8, addend: 0x0, symName: __ZNSt3__19__launderB8ne180100IKNS_4pairIKNS_12basic_stringIcNS_11char_traitsIcEENS_9allocatorIcEEEEN8nlohmann16json_abi_v3_11_310basic_jsonINS_3mapENS_6vectorES7_bxydS5_NSA_14adl_serializerENSD_IhNS5_IhEEEEvEEEEEEPT_SL_, symObjAddr: 0x9A44, symBinAddr: 0x10000A900, symSize: 0x14 }
  - { offset: 0x1A926, size: 0x8, addend: 0x0, symName: __ZNSt3__116__tree_prev_iterB8ne180100IPNS_16__tree_node_baseIPvEEPNS_15__tree_end_nodeIS4_EEEET_T0_, symObjAddr: 0x9A58, symBinAddr: 0x10000A914, symSize: 0xA4 }
  - { offset: 0x1A972, size: 0x8, addend: 0x0, symName: __ZNSt3__110__tree_maxB8ne180100IPNS_16__tree_node_baseIPvEEEET_S5_, symObjAddr: 0x9AFC, symBinAddr: 0x10000A9B8, symSize: 0x40 }
  - { offset: 0x1A9A7, size: 0x8, addend: 0x0, symName: __ZNSt3__120__tree_is_left_childB8ne180100IPNS_16__tree_node_baseIPvEEEEbT_, symObjAddr: 0x9B3C, symBinAddr: 0x10000A9F8, symSize: 0x2C }
  - { offset: 0x1A9DC, size: 0x8, addend: 0x0, symName: __ZNSt3__121__convert_to_integralB8ne180100El, symObjAddr: 0x9C68, symBinAddr: 0x10000AB24, symSize: 0x14 }
  - { offset: 0x1AA08, size: 0x8, addend: 0x0, symName: __ZNSt3__19__advanceB8ne180100INS_21__tree_const_iteratorINS_12__value_typeINS_12basic_stringIcNS_11char_traitsIcEENS_9allocatorIcEEEEN8nlohmann16json_abi_v3_11_310basic_jsonINS_3mapENS_6vectorES8_bxydS6_NSA_14adl_serializerENSD_IhNS6_IhEEEEvEEEEPNS_11__tree_nodeISI_PvEElEEEEvRT_NS_15iterator_traitsISO_E15difference_typeENS_26bidirectional_iterator_tagE, symObjAddr: 0x9C7C, symBinAddr: 0x10000AB38, symSize: 0xA4 }
  - { offset: 0x1AA51, size: 0x8, addend: 0x0, symName: __ZNSt3__116__tree_next_iterB8ne180100IPNS_15__tree_end_nodeIPNS_16__tree_node_baseIPvEEEES5_EET_T0_, symObjAddr: 0x9D58, symBinAddr: 0x10000AC14, symSize: 0x80 }
  - { offset: 0x1AA8F, size: 0x8, addend: 0x0, symName: __ZNSt3__110__tree_minB8ne180100IPNS_16__tree_node_baseIPvEEEET_S5_, symObjAddr: 0x9DD8, symBinAddr: 0x10000AC94, symSize: 0x40 }
  - { offset: 0x1AAE2, size: 0x8, addend: 0x0, symName: __ZNSt3__114__construct_atB8ne180100INS_4pairIKNS_12basic_stringIcNS_11char_traitsIcEENS_9allocatorIcEEEEN8nlohmann16json_abi_v3_11_310basic_jsonINS_3mapENS_6vectorES7_bxydS5_NSA_14adl_serializerENSD_IhNS5_IhEEEEvEEEEJRKSI_EPSI_EEPT_SN_DpOT0_, symObjAddr: 0xA198, symBinAddr: 0x10000B054, symSize: 0x2C }
  - { offset: 0x1AB35, size: 0x8, addend: 0x0, symName: __ZNSt3__112construct_atB8ne180100INS_4pairIKNS_12basic_stringIcNS_11char_traitsIcEENS_9allocatorIcEEEEN8nlohmann16json_abi_v3_11_310basic_jsonINS_3mapENS_6vectorES7_bxydS5_NSA_14adl_serializerENSD_IhNS5_IhEEEEvEEEEJRKSI_EPSI_EEPT_SN_DpOT0_, symObjAddr: 0xA1C4, symBinAddr: 0x10000B080, symSize: 0x34 }
  - { offset: 0x1AB88, size: 0x8, addend: 0x0, symName: __ZNSt3__127__tree_balance_after_insertB8ne180100IPNS_16__tree_node_baseIPvEEEEvT_S5_, symObjAddr: 0xA310, symBinAddr: 0x10000B1CC, symSize: 0x27C }
  - { offset: 0x1AC06, size: 0x8, addend: 0x0, symName: __ZNSt3__118__tree_left_rotateB8ne180100IPNS_16__tree_node_baseIPvEEEEvT_, symObjAddr: 0xA5B4, symBinAddr: 0x10000B470, symSize: 0xD8 }
  - { offset: 0x1AC45, size: 0x8, addend: 0x0, symName: __ZNSt3__119__tree_right_rotateB8ne180100IPNS_16__tree_node_baseIPvEEEEvT_, symObjAddr: 0xA68C, symBinAddr: 0x10000B548, symSize: 0xCC }
  - { offset: 0x1AC87, size: 0x8, addend: 0x0, symName: __ZNSt3__112__destroy_atB8ne180100INS_4pairIKNS_12basic_stringIcNS_11char_traitsIcEENS_9allocatorIcEEEEN8nlohmann16json_abi_v3_11_310basic_jsonINS_3mapENS_6vectorES7_bxydS5_NSA_14adl_serializerENSD_IhNS5_IhEEEEvEEEELi0EEEvPT_, symObjAddr: 0xA97C, symBinAddr: 0x10000B838, symSize: 0x24 }
  - { offset: 0x1B283, size: 0x8, addend: 0x0, symName: __ZNSt3__1eqB8ne180100INS_6vectorIN8nlohmann16json_abi_v3_11_310basic_jsonINS_3mapES1_NS_12basic_stringIcNS_11char_traitsIcEENS_9allocatorIcEEEEbxydS9_NS3_14adl_serializerENS1_IhNS9_IhEEEEvEENS9_ISF_EEEEZNSF_6createISH_JRKSH_EEEPT_DpOT0_EUlPSH_E_EEbRKNS_10unique_ptrISL_T0_EEDn, symObjAddr: 0xB104, symBinAddr: 0x10000BFC0, symSize: 0x30 }
  - { offset: 0x1B2CF, size: 0x8, addend: 0x0, symName: __ZNSt3__114__construct_atB8ne180100INS_6vectorIN8nlohmann16json_abi_v3_11_310basic_jsonINS_3mapES1_NS_12basic_stringIcNS_11char_traitsIcEENS_9allocatorIcEEEEbxydS9_NS3_14adl_serializerENS1_IhNS9_IhEEEEvEENS9_ISF_EEEEJRKSH_EPSH_EEPT_SM_DpOT0_, symObjAddr: 0xB37C, symBinAddr: 0x10000C238, symSize: 0x2C }
  - { offset: 0x1B322, size: 0x8, addend: 0x0, symName: __ZNSt3__112construct_atB8ne180100INS_6vectorIN8nlohmann16json_abi_v3_11_310basic_jsonINS_3mapES1_NS_12basic_stringIcNS_11char_traitsIcEENS_9allocatorIcEEEEbxydS9_NS3_14adl_serializerENS1_IhNS9_IhEEEEvEENS9_ISF_EEEEJRKSH_EPSH_EEPT_SM_DpOT0_, symObjAddr: 0xB3A8, symBinAddr: 0x10000C264, symSize: 0x34 }
  - { offset: 0x1B375, size: 0x8, addend: 0x0, symName: __ZNSt3__122__make_exception_guardB8ne180100INS_6vectorIN8nlohmann16json_abi_v3_11_310basic_jsonINS_3mapES1_NS_12basic_stringIcNS_11char_traitsIcEENS_9allocatorIcEEEEbxydS9_NS3_14adl_serializerENS1_IhNS9_IhEEEEvEENS9_ISF_EEE16__destroy_vectorEEENS_28__exception_guard_exceptionsIT_EESK_, symObjAddr: 0xB6A8, symBinAddr: 0x10000C564, symSize: 0x40 }
  - { offset: 0x1B3AA, size: 0x8, addend: 0x0, symName: __ZNSt3__119__allocate_at_leastB8ne180100INS_9allocatorIN8nlohmann16json_abi_v3_11_310basic_jsonINS_3mapENS_6vectorENS_12basic_stringIcNS_11char_traitsIcEENS1_IcEEEEbxydS1_NS3_14adl_serializerENS6_IhNS1_IhEEEEvEEEEEENS_19__allocation_resultINS_16allocator_traitsIT_E7pointerEEERSJ_m, symObjAddr: 0xB990, symBinAddr: 0x10000C84C, symSize: 0x40 }
  - { offset: 0x1B3ED, size: 0x8, addend: 0x0, symName: __ZNSt3__130__uninitialized_allocator_copyB8ne180100INS_9allocatorIN8nlohmann16json_abi_v3_11_310basic_jsonINS_3mapENS_6vectorENS_12basic_stringIcNS_11char_traitsIcEENS1_IcEEEEbxydS1_NS3_14adl_serializerENS6_IhNS1_IhEEEEvEEEEPSF_SH_SH_EET2_RT_T0_T1_SI_, symObjAddr: 0xBB7C, symBinAddr: 0x10000CA38, symSize: 0x80 }
  - { offset: 0x1B48A, size: 0x8, addend: 0x0, symName: __ZNSt3__114__unwrap_rangeB8ne180100IPN8nlohmann16json_abi_v3_11_310basic_jsonINS_3mapENS_6vectorENS_12basic_stringIcNS_11char_traitsIcEENS_9allocatorIcEEEEbxydS9_NS2_14adl_serializerENS5_IhNS9_IhEEEEvEESG_EEDaT_T0_, symObjAddr: 0xBC6C, symBinAddr: 0x10000CB28, symSize: 0x3C }
  - { offset: 0x1B4D6, size: 0x8, addend: 0x0, symName: __ZNSt3__135__uninitialized_allocator_copy_implB8ne180100INS_9allocatorIN8nlohmann16json_abi_v3_11_310basic_jsonINS_3mapENS_6vectorENS_12basic_stringIcNS_11char_traitsIcEENS1_IcEEEEbxydS1_NS3_14adl_serializerENS6_IhNS1_IhEEEEvEEEEPSF_SH_SH_EET2_RT_T0_T1_SI_, symObjAddr: 0xBCA8, symBinAddr: 0x10000CB64, symSize: 0xF4 }
  - { offset: 0x1B574, size: 0x8, addend: 0x0, symName: __ZNSt3__113__unwrap_iterB8ne180100IPN8nlohmann16json_abi_v3_11_310basic_jsonINS_3mapENS_6vectorENS_12basic_stringIcNS_11char_traitsIcEENS_9allocatorIcEEEEbxydS9_NS2_14adl_serializerENS5_IhNS9_IhEEEEvEENS_18__unwrap_iter_implISG_Lb1EEELi0EEEDTclsrT0_8__unwrapclsr3stdE7declvalIT_EEEESK_, symObjAddr: 0xBD9C, symBinAddr: 0x10000CC58, symSize: 0x24 }
  - { offset: 0x1B5B8, size: 0x8, addend: 0x0, symName: __ZNSt3__113__rewrap_iterB8ne180100IPN8nlohmann16json_abi_v3_11_310basic_jsonINS_3mapENS_6vectorENS_12basic_stringIcNS_11char_traitsIcEENS_9allocatorIcEEEEbxydS9_NS2_14adl_serializerENS5_IhNS9_IhEEEEvEESG_NS_18__unwrap_iter_implISG_Lb1EEEEET_SJ_T0_, symObjAddr: 0xBDC0, symBinAddr: 0x10000CC7C, symSize: 0x3C }
  - { offset: 0x1B729, size: 0x8, addend: 0x0, symName: __ZNSt3__122__make_exception_guardB8ne180100INS_29_AllocatorDestroyRangeReverseINS_9allocatorIN8nlohmann16json_abi_v3_11_310basic_jsonINS_3mapENS_6vectorENS_12basic_stringIcNS_11char_traitsIcEENS2_IcEEEEbxydS2_NS4_14adl_serializerENS7_IhNS2_IhEEEEvEEEEPSG_EEEENS_28__exception_guard_exceptionsIT_EESL_, symObjAddr: 0xBEC4, symBinAddr: 0x10000CD80, symSize: 0x4C }
  - { offset: 0x1B75F, size: 0x8, addend: 0x0, symName: __ZNSt3__112__to_addressB8ne180100IN8nlohmann16json_abi_v3_11_310basic_jsonINS_3mapENS_6vectorENS_12basic_stringIcNS_11char_traitsIcEENS_9allocatorIcEEEEbxydS9_NS2_14adl_serializerENS5_IhNS9_IhEEEEvEEEEPT_SH_, symObjAddr: 0xBF84, symBinAddr: 0x10000CE40, symSize: 0x14 }
  - { offset: 0x1B794, size: 0x8, addend: 0x0, symName: __ZNSt3__114__construct_atB8ne180100IN8nlohmann16json_abi_v3_11_310basic_jsonINS_3mapENS_6vectorENS_12basic_stringIcNS_11char_traitsIcEENS_9allocatorIcEEEEbxydS9_NS2_14adl_serializerENS5_IhNS9_IhEEEEvEEJRSF_EPSF_EEPT_SJ_DpOT0_, symObjAddr: 0xC07C, symBinAddr: 0x10000CF38, symSize: 0x2C }
  - { offset: 0x1B7E7, size: 0x8, addend: 0x0, symName: __ZNSt3__112construct_atB8ne180100IN8nlohmann16json_abi_v3_11_310basic_jsonINS_3mapENS_6vectorENS_12basic_stringIcNS_11char_traitsIcEENS_9allocatorIcEEEEbxydS9_NS2_14adl_serializerENS5_IhNS9_IhEEEEvEEJRSF_EPSF_EEPT_SJ_DpOT0_, symObjAddr: 0xC0A8, symBinAddr: 0x10000CF64, symSize: 0x34 }
  - { offset: 0x1B83A, size: 0x8, addend: 0x0, symName: __ZNSt3__119__allocator_destroyB8ne180100INS_9allocatorIN8nlohmann16json_abi_v3_11_310basic_jsonINS_3mapENS_6vectorENS_12basic_stringIcNS_11char_traitsIcEENS1_IcEEEEbxydS1_NS3_14adl_serializerENS6_IhNS1_IhEEEEvEEEENS_16reverse_iteratorIPSF_EESJ_EEvRT_T0_T1_, symObjAddr: 0xC194, symBinAddr: 0x10000D050, symSize: 0x70 }
  - { offset: 0x1B89D, size: 0x8, addend: 0x0, symName: __ZNSt3__1neB8ne180100IPN8nlohmann16json_abi_v3_11_310basic_jsonINS_3mapENS_6vectorENS_12basic_stringIcNS_11char_traitsIcEENS_9allocatorIcEEEEbxydS9_NS2_14adl_serializerENS5_IhNS9_IhEEEEvEESG_EEbRKNS_16reverse_iteratorIT_EERKNSH_IT0_EE, symObjAddr: 0xC238, symBinAddr: 0x10000D0F4, symSize: 0x48 }
  - { offset: 0x1B8E9, size: 0x8, addend: 0x0, symName: __ZNSt3__112__to_addressB8ne180100INS_16reverse_iteratorIPN8nlohmann16json_abi_v3_11_310basic_jsonINS_3mapENS_6vectorENS_12basic_stringIcNS_11char_traitsIcEENS_9allocatorIcEEEEbxydSA_NS3_14adl_serializerENS6_IhNSA_IhEEEEvEEEEvEEu7__decayIDTclsr19__to_address_helperIT_EE6__callclsr3stdE7declvalIRKSJ_EEEEESL_, symObjAddr: 0xC2A8, symBinAddr: 0x10000D164, symSize: 0x24 }
  - { offset: 0x1B91F, size: 0x8, addend: 0x0, symName: __ZNSt3__112__destroy_atB8ne180100IN8nlohmann16json_abi_v3_11_310basic_jsonINS_3mapENS_6vectorENS_12basic_stringIcNS_11char_traitsIcEENS_9allocatorIcEEEEbxydS9_NS2_14adl_serializerENS5_IhNS9_IhEEEEvEELi0EEEvPT_, symObjAddr: 0xC304, symBinAddr: 0x10000D1C0, symSize: 0x24 }
  - { offset: 0x1B97F, size: 0x8, addend: 0x0, symName: __ZNSt3__14prevB8ne180100IPN8nlohmann16json_abi_v3_11_310basic_jsonINS_3mapENS_6vectorENS_12basic_stringIcNS_11char_traitsIcEENS_9allocatorIcEEEEbxydS9_NS2_14adl_serializerENS5_IhNS9_IhEEEEvEELi0EEET_SH_NS_15iterator_traitsISH_E15difference_typeE, symObjAddr: 0xC38C, symBinAddr: 0x10000D248, symSize: 0x3C }
  - { offset: 0x1B9C8, size: 0x8, addend: 0x0, symName: __ZNSt3__19__advanceB8ne180100IPN8nlohmann16json_abi_v3_11_310basic_jsonINS_3mapENS_6vectorENS_12basic_stringIcNS_11char_traitsIcEENS_9allocatorIcEEEEbxydS9_NS2_14adl_serializerENS5_IhNS9_IhEEEEvEEEEvRT_NS_15iterator_traitsISH_E15difference_typeENS_26random_access_iterator_tagE, symObjAddr: 0xC400, symBinAddr: 0x10000D2BC, symSize: 0x28 }
  - { offset: 0x1BDA7, size: 0x8, addend: 0x0, symName: __ZNSt3__1eqB8ne180100INS_12basic_stringIcNS_11char_traitsIcEENS_9allocatorIcEEEEZN8nlohmann16json_abi_v3_11_310basic_jsonINS_3mapENS_6vectorES6_bxydS4_NS8_14adl_serializerENSB_IhNS4_IhEEEEvE6createIS6_JRKS6_EEEPT_DpOT0_EUlPS6_E_EEbRKNS_10unique_ptrISJ_T0_EEDn, symObjAddr: 0xCBF4, symBinAddr: 0x10000DAB0, symSize: 0x30 }
  - { offset: 0x1BDF3, size: 0x8, addend: 0x0, symName: __ZNSt3__114__construct_atB8ne180100INS_12basic_stringIcNS_11char_traitsIcEENS_9allocatorIcEEEEJRKS6_EPS6_EEPT_SB_DpOT0_, symObjAddr: 0xCE6C, symBinAddr: 0x10000DD28, symSize: 0x2C }
  - { offset: 0x1BE46, size: 0x8, addend: 0x0, symName: __ZNSt3__112construct_atB8ne180100INS_12basic_stringIcNS_11char_traitsIcEENS_9allocatorIcEEEEJRKS6_EPS6_EEPT_SB_DpOT0_, symObjAddr: 0xCE98, symBinAddr: 0x10000DD54, symSize: 0x34 }
  - { offset: 0x1C42B, size: 0x8, addend: 0x0, symName: __ZNSt3__1eqB8ne180100IN8nlohmann16json_abi_v3_11_327byte_container_with_subtypeINS_6vectorIhNS_9allocatorIhEEEEEEZNS2_10basic_jsonINS_3mapES4_NS_12basic_stringIcNS_11char_traitsIcEENS5_IcEEEEbxydS5_NS2_14adl_serializerES7_vE6createIS8_JRKS8_EEEPT_DpOT0_EUlPS8_E_EEbRKNS_10unique_ptrISL_T0_EEDn, symObjAddr: 0xD3B0, symBinAddr: 0x10000E26C, symSize: 0x30 }
  - { offset: 0x1C477, size: 0x8, addend: 0x0, symName: __ZNSt3__114__construct_atB8ne180100IN8nlohmann16json_abi_v3_11_327byte_container_with_subtypeINS_6vectorIhNS_9allocatorIhEEEEEEJRKS8_EPS8_EEPT_SD_DpOT0_, symObjAddr: 0xD628, symBinAddr: 0x10000E4E4, symSize: 0x2C }
  - { offset: 0x1C4CA, size: 0x8, addend: 0x0, symName: __ZNSt3__112construct_atB8ne180100IN8nlohmann16json_abi_v3_11_327byte_container_with_subtypeINS_6vectorIhNS_9allocatorIhEEEEEEJRKS8_EPS8_EEPT_SD_DpOT0_, symObjAddr: 0xD654, symBinAddr: 0x10000E510, symSize: 0x34 }
  - { offset: 0x1C51D, size: 0x8, addend: 0x0, symName: __ZNSt3__122__make_exception_guardB8ne180100INS_6vectorIhNS_9allocatorIhEEE16__destroy_vectorEEENS_28__exception_guard_exceptionsIT_EES7_, symObjAddr: 0xD994, symBinAddr: 0x10000E850, symSize: 0x40 }
  - { offset: 0x1C552, size: 0x8, addend: 0x0, symName: __ZNSt3__119__allocate_at_leastB8ne180100INS_9allocatorIhEEEENS_19__allocation_resultINS_16allocator_traitsIT_E7pointerEEERS5_m, symObjAddr: 0xDC7C, symBinAddr: 0x10000EB38, symSize: 0x40 }
  - { offset: 0x1C595, size: 0x8, addend: 0x0, symName: __ZNSt3__130__uninitialized_allocator_copyB8ne180100INS_9allocatorIhEEPhS3_S3_EET2_RT_T0_T1_S4_, symObjAddr: 0xDE4C, symBinAddr: 0x10000ED08, symSize: 0x80 }
  - { offset: 0x1C632, size: 0x8, addend: 0x0, symName: __ZNSt3__114__unwrap_rangeB8ne180100IPhS1_EEDaT_T0_, symObjAddr: 0xDF3C, symBinAddr: 0x10000EDF8, symSize: 0x3C }
  - { offset: 0x1C67E, size: 0x8, addend: 0x0, symName: __ZNSt3__135__uninitialized_allocator_copy_implB8ne180100INS_9allocatorIhEEhhhLPv0EEEPT2_RT_PT0_S9_S5_, symObjAddr: 0xDF78, symBinAddr: 0x10000EE34, symSize: 0x38 }
  - { offset: 0x1C700, size: 0x8, addend: 0x0, symName: __ZNSt3__113__unwrap_iterB8ne180100IPhNS_18__unwrap_iter_implIS1_Lb1EEELi0EEEDTclsrT0_8__unwrapclsr3stdE7declvalIT_EEEES5_, symObjAddr: 0xDFB0, symBinAddr: 0x10000EE6C, symSize: 0x24 }
  - { offset: 0x1C744, size: 0x8, addend: 0x0, symName: __ZNSt3__113__rewrap_iterB8ne180100IPhS1_NS_18__unwrap_iter_implIS1_Lb1EEEEET_S4_T0_, symObjAddr: 0xDFD4, symBinAddr: 0x10000EE90, symSize: 0x3C }
  - { offset: 0x1C8E4, size: 0x8, addend: 0x0, symName: __ZNSt3__14copyB8ne180100IPhS1_EET0_T_S3_S2_, symObjAddr: 0xE0D8, symBinAddr: 0x10000EF94, symSize: 0x40 }
  - { offset: 0x1C93E, size: 0x8, addend: 0x0, symName: __ZNSt3__16__copyB8ne180100INS_17_ClassicAlgPolicyEPhS2_S2_EENS_4pairIT0_T2_EES4_T1_S5_, symObjAddr: 0xE118, symBinAddr: 0x10000EFD4, symSize: 0x44 }
  - { offset: 0x1C9AA, size: 0x8, addend: 0x0, symName: __ZNSt3__123__dispatch_copy_or_moveB8ne180100INS_17_ClassicAlgPolicyENS_11__copy_loopIS1_EENS_14__copy_trivialEPhS5_S5_EENS_4pairIT2_T4_EES7_T3_S8_, symObjAddr: 0xE15C, symBinAddr: 0x10000F018, symSize: 0x44 }
  - { offset: 0x1CA28, size: 0x8, addend: 0x0, symName: __ZNSt3__121__unwrap_and_dispatchB8ne180100INS_10__overloadINS_11__copy_loopINS_17_ClassicAlgPolicyEEENS_14__copy_trivialEEEPhS7_S7_Li0EEENS_4pairIT0_T2_EES9_T1_SA_, symObjAddr: 0xE1A0, symBinAddr: 0x10000F05C, symSize: 0xB4 }
  - { offset: 0x1CAB6, size: 0x8, addend: 0x0, symName: __ZNSt3__19make_pairB8ne180100IPhS1_EENS_4pairINS_18__unwrap_ref_decayIT_E4typeENS3_IT0_E4typeEEEOS4_OS7_, symObjAddr: 0xE29C, symBinAddr: 0x10000F158, symSize: 0x38 }
  - { offset: 0x1CB05, size: 0x8, addend: 0x0, symName: __ZNSt3__114__rewrap_rangeB8ne180100IPhS1_S1_EET0_S2_T1_, symObjAddr: 0xE2D4, symBinAddr: 0x10000F190, symSize: 0x2C }
  - { offset: 0x1CB5A, size: 0x8, addend: 0x0, symName: __ZNSt3__119__copy_trivial_implB8ne180100IhhEENS_4pairIPT_PT0_EES3_S3_S5_, symObjAddr: 0xE300, symBinAddr: 0x10000F1BC, symSize: 0x78 }
  - { offset: 0x1CBC2, size: 0x8, addend: 0x0, symName: __ZNSt3__119__constexpr_memmoveB8ne180100IhhLi0EEEPT_S2_PT0_NS_15__element_countE, symObjAddr: 0xE378, symBinAddr: 0x10000F234, symSize: 0x64 }
  - { offset: 0x1CC30, size: 0x8, addend: 0x0, symName: __ZNSt3__19make_pairB8ne180100IRPhS1_EENS_4pairINS_18__unwrap_ref_decayIT_E4typeENS4_IT0_E4typeEEEOS5_OS8_, symObjAddr: 0xE3DC, symBinAddr: 0x10000F298, symSize: 0x38 }
  - { offset: 0x1CCD2, size: 0x8, addend: 0x0, symName: __ZNSt3__112__to_addressB8ne180100IhEEPT_S2_, symObjAddr: 0xE4D4, symBinAddr: 0x10000F390, symSize: 0x14 }
  - { offset: 0x1CD07, size: 0x8, addend: 0x0, symName: __ZNSt3__112__destroy_atB8ne180100IhLi0EEEvPT_, symObjAddr: 0xE788, symBinAddr: 0x10000F644, symSize: 0x10 }
  - { offset: 0x1CD3E, size: 0x8, addend: 0x0, symName: __ZNSt3__14moveB8ne180100INS_11__wrap_iterIPN8nlohmann16json_abi_v3_11_310basic_jsonINS_3mapENS_6vectorENS_12basic_stringIcNS_11char_traitsIcEENS_9allocatorIcEEEEbxydSA_NS3_14adl_serializerENS6_IhNSA_IhEEEEvEEEENS_20back_insert_iteratorINS6_ISG_NSA_ISG_EEEEEEEET0_T_SO_SN_, symObjAddr: 0xF104, symBinAddr: 0x10000FFC0, symSize: 0x60 }
  - { offset: 0x1CD98, size: 0x8, addend: 0x0, symName: __ZNSt3__113back_inserterB8ne180100INS_6vectorIN8nlohmann16json_abi_v3_11_310basic_jsonINS_3mapES1_NS_12basic_stringIcNS_11char_traitsIcEENS_9allocatorIcEEEEbxydS9_NS3_14adl_serializerENS1_IhNS9_IhEEEEvEENS9_ISF_EEEEEENS_20back_insert_iteratorIT_EERSJ_, symObjAddr: 0xF164, symBinAddr: 0x100010020, symSize: 0x2C }
  - { offset: 0x1CDCD, size: 0x8, addend: 0x0, symName: __ZNSt3__142__uninitialized_allocator_move_if_noexceptB8ne180100INS_9allocatorIN8nlohmann16json_abi_v3_11_310basic_jsonINS_3mapENS_6vectorENS_12basic_stringIcNS_11char_traitsIcEENS1_IcEEEEbxydS1_NS3_14adl_serializerENS6_IhNS1_IhEEEEvEEEENS_16reverse_iteratorIPSF_EESJ_SJ_EET2_RT_T0_T1_SK_, symObjAddr: 0xF978, symBinAddr: 0x100010834, symSize: 0x124 }
  - { offset: 0x1CE6D, size: 0x8, addend: 0x0, symName: __ZNSt3__14swapB8ne180100IPN8nlohmann16json_abi_v3_11_310basic_jsonINS_3mapENS_6vectorENS_12basic_stringIcNS_11char_traitsIcEENS_9allocatorIcEEEEbxydS9_NS2_14adl_serializerENS5_IhNS9_IhEEEEvEEEENS_9enable_ifIXaasr21is_move_constructibleIT_EE5valuesr18is_move_assignableISI_EE5valueEvE4typeERSI_SL_, symObjAddr: 0xFA9C, symBinAddr: 0x100010958, symSize: 0x3C }
  - { offset: 0x1CEBE, size: 0x8, addend: 0x0, symName: __ZNSt3__122__make_exception_guardB8ne180100INS_29_AllocatorDestroyRangeReverseINS_9allocatorIN8nlohmann16json_abi_v3_11_310basic_jsonINS_3mapENS_6vectorENS_12basic_stringIcNS_11char_traitsIcEENS2_IcEEEEbxydS2_NS4_14adl_serializerENS7_IhNS2_IhEEEEvEEEENS_16reverse_iteratorIPSG_EEEEEENS_28__exception_guard_exceptionsIT_EESN_, symObjAddr: 0xFAD8, symBinAddr: 0x100010994, symSize: 0x4C }
  - { offset: 0x1CEF4, size: 0x8, addend: 0x0, symName: __ZNSt3__114__construct_atB8ne180100IN8nlohmann16json_abi_v3_11_310basic_jsonINS_3mapENS_6vectorENS_12basic_stringIcNS_11char_traitsIcEENS_9allocatorIcEEEEbxydS9_NS2_14adl_serializerENS5_IhNS9_IhEEEEvEEJSF_EPSF_EEPT_SI_DpOT0_, symObjAddr: 0xFCA4, symBinAddr: 0x100010B60, symSize: 0x2C }
  - { offset: 0x1CF47, size: 0x8, addend: 0x0, symName: __ZNSt3__112construct_atB8ne180100IN8nlohmann16json_abi_v3_11_310basic_jsonINS_3mapENS_6vectorENS_12basic_stringIcNS_11char_traitsIcEENS_9allocatorIcEEEEbxydS9_NS2_14adl_serializerENS5_IhNS9_IhEEEEvEEJSF_EPSF_EEPT_SI_DpOT0_, symObjAddr: 0xFCD0, symBinAddr: 0x100010B8C, symSize: 0x34 }
  - { offset: 0x1CF9A, size: 0x8, addend: 0x0, symName: __ZNSt3__119__allocator_destroyB8ne180100INS_9allocatorIN8nlohmann16json_abi_v3_11_310basic_jsonINS_3mapENS_6vectorENS_12basic_stringIcNS_11char_traitsIcEENS1_IcEEEEbxydS1_NS3_14adl_serializerENS6_IhNS1_IhEEEEvEEEENS_16reverse_iteratorINSH_IPSF_EEEESK_EEvRT_T0_T1_, symObjAddr: 0xFE08, symBinAddr: 0x100010CC4, symSize: 0x70 }
  - { offset: 0x1CFFF, size: 0x8, addend: 0x0, symName: __ZNSt3__1neB8ne180100INS_16reverse_iteratorIPN8nlohmann16json_abi_v3_11_310basic_jsonINS_3mapENS_6vectorENS_12basic_stringIcNS_11char_traitsIcEENS_9allocatorIcEEEEbxydSA_NS3_14adl_serializerENS6_IhNSA_IhEEEEvEEEESI_EEbRKNS1_IT_EERKNS1_IT0_EE, symObjAddr: 0xFEB4, symBinAddr: 0x100010D70, symSize: 0x60 }
  - { offset: 0x1D04B, size: 0x8, addend: 0x0, symName: __ZNSt3__112__to_addressB8ne180100INS_16reverse_iteratorINS1_IPN8nlohmann16json_abi_v3_11_310basic_jsonINS_3mapENS_6vectorENS_12basic_stringIcNS_11char_traitsIcEENS_9allocatorIcEEEEbxydSA_NS3_14adl_serializerENS6_IhNSA_IhEEEEvEEEEEEvEEu7__decayIDTclsr19__to_address_helperIT_EE6__callclsr3stdE7declvalIRKSK_EEEEESM_, symObjAddr: 0xFF14, symBinAddr: 0x100010DD0, symSize: 0x24 }
  - { offset: 0x1D0AA, size: 0x8, addend: 0x0, symName: __ZNSt3__14prevB8ne180100INS_16reverse_iteratorIPN8nlohmann16json_abi_v3_11_310basic_jsonINS_3mapENS_6vectorENS_12basic_stringIcNS_11char_traitsIcEENS_9allocatorIcEEEEbxydSA_NS3_14adl_serializerENS6_IhNSA_IhEEEEvEEEELi0EEET_SJ_NS_15iterator_traitsISJ_E15difference_typeE, symObjAddr: 0x10010, symBinAddr: 0x100010ECC, symSize: 0x4C }
  - { offset: 0x1D0F3, size: 0x8, addend: 0x0, symName: __ZNSt3__19__advanceB8ne180100INS_16reverse_iteratorIPN8nlohmann16json_abi_v3_11_310basic_jsonINS_3mapENS_6vectorENS_12basic_stringIcNS_11char_traitsIcEENS_9allocatorIcEEEEbxydSA_NS3_14adl_serializerENS6_IhNSA_IhEEEEvEEEEEEvRT_NS_15iterator_traitsISJ_E15difference_typeENS_26random_access_iterator_tagE, symObjAddr: 0x10094, symBinAddr: 0x100010F50, symSize: 0x2C }
  - { offset: 0x1D13C, size: 0x8, addend: 0x0, symName: __ZNSt3__16__moveB8ne180100INS_17_ClassicAlgPolicyENS_11__wrap_iterIPN8nlohmann16json_abi_v3_11_310basic_jsonINS_3mapENS_6vectorENS_12basic_stringIcNS_11char_traitsIcEENS_9allocatorIcEEEEbxydSB_NS4_14adl_serializerENS7_IhNSB_IhEEEEvEEEESJ_NS_20back_insert_iteratorINS7_ISH_NSB_ISH_EEEEEEEENS_4pairIT0_T2_EESP_T1_SQ_, symObjAddr: 0x10328, symBinAddr: 0x1000111E4, symSize: 0x5C }
  - { offset: 0x1D1A8, size: 0x8, addend: 0x0, symName: __ZNSt3__123__dispatch_copy_or_moveB8ne180100INS_17_ClassicAlgPolicyENS_11__move_loopIS1_EENS_14__move_trivialENS_11__wrap_iterIPN8nlohmann16json_abi_v3_11_310basic_jsonINS_3mapENS_6vectorENS_12basic_stringIcNS_11char_traitsIcEENS_9allocatorIcEEEEbxydSE_NS7_14adl_serializerENSA_IhNSE_IhEEEEvEEEESM_NS_20back_insert_iteratorINSA_ISK_NSE_ISK_EEEEEEEENS_4pairIT2_T4_EESS_T3_ST_, symObjAddr: 0x10384, symBinAddr: 0x100011240, symSize: 0x5C }
  - { offset: 0x1D226, size: 0x8, addend: 0x0, symName: __ZNSt3__121__unwrap_and_dispatchB8ne180100INS_10__overloadINS_11__move_loopINS_17_ClassicAlgPolicyEEENS_14__move_trivialEEENS_11__wrap_iterIPN8nlohmann16json_abi_v3_11_310basic_jsonINS_3mapENS_6vectorENS_12basic_stringIcNS_11char_traitsIcEENS_9allocatorIcEEEEbxydSG_NS9_14adl_serializerENSC_IhNSG_IhEEEEvEEEESO_NS_20back_insert_iteratorINSC_ISM_NSG_ISM_EEEEEELi0EEENS_4pairIT0_T2_EESU_T1_SV_, symObjAddr: 0x103E0, symBinAddr: 0x10001129C, symSize: 0xE8 }
  - { offset: 0x1D2B5, size: 0x8, addend: 0x0, symName: __ZNSt3__114__unwrap_rangeB8ne180100INS_11__wrap_iterIPN8nlohmann16json_abi_v3_11_310basic_jsonINS_3mapENS_6vectorENS_12basic_stringIcNS_11char_traitsIcEENS_9allocatorIcEEEEbxydSA_NS3_14adl_serializerENS6_IhNSA_IhEEEEvEEEESI_EEDaT_T0_, symObjAddr: 0x104C8, symBinAddr: 0x100011384, symSize: 0x4C }
  - { offset: 0x1D4ED, size: 0x8, addend: 0x0, symName: __ZNSt3__113__unwrap_iterB8ne180100INS_20back_insert_iteratorINS_6vectorIN8nlohmann16json_abi_v3_11_310basic_jsonINS_3mapES2_NS_12basic_stringIcNS_11char_traitsIcEENS_9allocatorIcEEEEbxydSA_NS4_14adl_serializerENS2_IhNSA_IhEEEEvEENSA_ISG_EEEEEENS_18__unwrap_iter_implISJ_Lb0EEELi0EEEDTclsrT0_8__unwrapclsr3stdE7declvalIT_EEEESN_, symObjAddr: 0x105AC, symBinAddr: 0x100011468, symSize: 0x34 }
  - { offset: 0x1D531, size: 0x8, addend: 0x0, symName: __ZNSt3__19make_pairB8ne180100INS_11__wrap_iterIPN8nlohmann16json_abi_v3_11_310basic_jsonINS_3mapENS_6vectorENS_12basic_stringIcNS_11char_traitsIcEENS_9allocatorIcEEEEbxydSA_NS3_14adl_serializerENS6_IhNSA_IhEEEEvEEEENS_20back_insert_iteratorINS6_ISG_NSA_ISG_EEEEEEEENS_4pairINS_18__unwrap_ref_decayIT_E4typeENSO_IT0_E4typeEEEOSP_OSS_, symObjAddr: 0x105E0, symBinAddr: 0x10001149C, symSize: 0x38 }
  - { offset: 0x1D580, size: 0x8, addend: 0x0, symName: __ZNSt3__114__rewrap_rangeB8ne180100INS_11__wrap_iterIPN8nlohmann16json_abi_v3_11_310basic_jsonINS_3mapENS_6vectorENS_12basic_stringIcNS_11char_traitsIcEENS_9allocatorIcEEEEbxydSA_NS3_14adl_serializerENS6_IhNSA_IhEEEEvEEEESI_SH_EET0_SJ_T1_, symObjAddr: 0x10618, symBinAddr: 0x1000114D4, symSize: 0x3C }
  - { offset: 0x1D5D5, size: 0x8, addend: 0x0, symName: __ZNSt3__113__rewrap_iterB8ne180100INS_20back_insert_iteratorINS_6vectorIN8nlohmann16json_abi_v3_11_310basic_jsonINS_3mapES2_NS_12basic_stringIcNS_11char_traitsIcEENS_9allocatorIcEEEEbxydSA_NS4_14adl_serializerENS2_IhNSA_IhEEEEvEENSA_ISG_EEEEEESJ_NS_18__unwrap_iter_implISJ_Lb0EEEEET_SM_T0_, symObjAddr: 0x10654, symBinAddr: 0x100011510, symSize: 0x54 }
  - { offset: 0x1D67A, size: 0x8, addend: 0x0, symName: __ZNSt3__113__unwrap_iterB8ne180100INS_11__wrap_iterIPN8nlohmann16json_abi_v3_11_310basic_jsonINS_3mapENS_6vectorENS_12basic_stringIcNS_11char_traitsIcEENS_9allocatorIcEEEEbxydSA_NS3_14adl_serializerENS6_IhNSA_IhEEEEvEEEENS_18__unwrap_iter_implISI_Lb1EEELi0EEEDTclsrT0_8__unwrapclsr3stdE7declvalIT_EEEESM_, symObjAddr: 0x10710, symBinAddr: 0x1000115CC, symSize: 0x2C }
  - { offset: 0x1D711, size: 0x8, addend: 0x0, symName: __ZNSt3__112__to_addressB8ne180100INS_11__wrap_iterIPN8nlohmann16json_abi_v3_11_310basic_jsonINS_3mapENS_6vectorENS_12basic_stringIcNS_11char_traitsIcEENS_9allocatorIcEEEEbxydSA_NS3_14adl_serializerENS6_IhNSA_IhEEEEvEEEEvEEu7__decayIDTclsr19__to_address_helperIT_EE6__callclsr3stdE7declvalIRKSJ_EEEEESL_, symObjAddr: 0x10764, symBinAddr: 0x100011620, symSize: 0x24 }
  - { offset: 0x1D898, size: 0x8, addend: 0x0, symName: __ZNSt3__19make_pairB8ne180100IPN8nlohmann16json_abi_v3_11_310basic_jsonINS_3mapENS_6vectorENS_12basic_stringIcNS_11char_traitsIcEENS_9allocatorIcEEEEbxydS9_NS2_14adl_serializerENS5_IhNS9_IhEEEEvEENS_20back_insert_iteratorINS5_ISF_NS9_ISF_EEEEEEEENS_4pairINS_18__unwrap_ref_decayIT_E4typeENSM_IT0_E4typeEEEOSN_OSQ_, symObjAddr: 0x1086C, symBinAddr: 0x100011728, symSize: 0x38 }
  - { offset: 0x1DA03, size: 0x8, addend: 0x0, symName: __ZNSt3__113__rewrap_iterB8ne180100INS_11__wrap_iterIPN8nlohmann16json_abi_v3_11_310basic_jsonINS_3mapENS_6vectorENS_12basic_stringIcNS_11char_traitsIcEENS_9allocatorIcEEEEbxydSA_NS3_14adl_serializerENS6_IhNSA_IhEEEEvEEEESH_NS_18__unwrap_iter_implISI_Lb1EEEEET_SL_T0_, symObjAddr: 0x109E0, symBinAddr: 0x10001189C, symSize: 0x4C }
  - { offset: 0x1DA58, size: 0x8, addend: 0x0, symName: __ZNSt3__13maxB8ne180100ImEERKT_S3_S3_, symObjAddr: 0x10DEC, symBinAddr: 0x100011CA8, symSize: 0x2C }
  - { offset: 0x1DA9B, size: 0x8, addend: 0x0, symName: __ZNSt3__13maxB8ne180100ImNS_6__lessIvvEEEERKT_S5_S5_T0_, symObjAddr: 0x10E18, symBinAddr: 0x100011CD4, symSize: 0x54 }
  - { offset: 0x1DAF5, size: 0x8, addend: 0x0, symName: __ZNSt3__112__destroy_atB8ne180100INS_3mapINS_12basic_stringIcNS_11char_traitsIcEENS_9allocatorIcEEEEN8nlohmann16json_abi_v3_11_310basic_jsonIS1_NS_6vectorES7_bxydS5_NS9_14adl_serializerENSB_IhNS5_IhEEEEvEENS_4lessIvEENS5_INS_4pairIKS7_SF_EEEEEELi0EEEvPT_, symObjAddr: 0x11038, symBinAddr: 0x100011EF4, symSize: 0x24 }
  - { offset: 0x1DB2C, size: 0x8, addend: 0x0, symName: __ZNSt3__112__destroy_atB8ne180100INS_6vectorIN8nlohmann16json_abi_v3_11_310basic_jsonINS_3mapES1_NS_12basic_stringIcNS_11char_traitsIcEENS_9allocatorIcEEEEbxydS9_NS3_14adl_serializerENS1_IhNS9_IhEEEEvEENS9_ISF_EEEELi0EEEvPT_, symObjAddr: 0x110B4, symBinAddr: 0x100011F70, symSize: 0x24 }
  - { offset: 0x1DB63, size: 0x8, addend: 0x0, symName: __ZNSt3__112__destroy_atB8ne180100INS_12basic_stringIcNS_11char_traitsIcEENS_9allocatorIcEEEELi0EEEvPT_, symObjAddr: 0x110D8, symBinAddr: 0x100011F94, symSize: 0x24 }
  - { offset: 0x1DB9A, size: 0x8, addend: 0x0, symName: __ZNSt3__112__destroy_atB8ne180100IN8nlohmann16json_abi_v3_11_327byte_container_with_subtypeINS_6vectorIhNS_9allocatorIhEEEEEELi0EEEvPT_, symObjAddr: 0x110FC, symBinAddr: 0x100011FB8, symSize: 0x24 }
  - { offset: 0x1DF09, size: 0x8, addend: 0x0, symName: __ZNSt3__1eqB8ne180100INS_3mapINS_12basic_stringIcNS_11char_traitsIcEENS_9allocatorIcEEEEN8nlohmann16json_abi_v3_11_310basic_jsonIS1_NS_6vectorES7_bxydS5_NS9_14adl_serializerENSB_IhNS5_IhEEEEvEENS_4lessIvEENS5_INS_4pairIKS7_SF_EEEEEEZNSF_6createISM_JEEEPT_DpOT0_EUlPSM_E_EEbRKNS_10unique_ptrISO_T0_EEDn, symObjAddr: 0x11878, symBinAddr: 0x100012734, symSize: 0x30 }
  - { offset: 0x1DF55, size: 0x8, addend: 0x0, symName: __ZNSt3__114__construct_atB8ne180100INS_3mapINS_12basic_stringIcNS_11char_traitsIcEENS_9allocatorIcEEEEN8nlohmann16json_abi_v3_11_310basic_jsonIS1_NS_6vectorES7_bxydS5_NS9_14adl_serializerENSB_IhNS5_IhEEEEvEENS_4lessIvEENS5_INS_4pairIKS7_SF_EEEEEEJEPSM_EEPT_SP_DpOT0_, symObjAddr: 0x11A08, symBinAddr: 0x1000128C4, symSize: 0x24 }
  - { offset: 0x1DF94, size: 0x8, addend: 0x0, symName: __ZNSt3__112construct_atB8ne180100INS_3mapINS_12basic_stringIcNS_11char_traitsIcEENS_9allocatorIcEEEEN8nlohmann16json_abi_v3_11_310basic_jsonIS1_NS_6vectorES7_bxydS5_NS9_14adl_serializerENSB_IhNS5_IhEEEEvEENS_4lessIvEENS5_INS_4pairIKS7_SF_EEEEEEJEPSM_EEPT_SP_DpOT0_, symObjAddr: 0x11A2C, symBinAddr: 0x1000128E8, symSize: 0x2C }
  - { offset: 0x1DFD3, size: 0x8, addend: 0x0, symName: __ZNSt3__114__construct_atB8ne180100INS_4pairIKNS_12basic_stringIcNS_11char_traitsIcEENS_9allocatorIcEEEEN8nlohmann16json_abi_v3_11_310basic_jsonINS_3mapENS_6vectorES7_bxydS5_NSA_14adl_serializerENSD_IhNS5_IhEEEEvEEEEJS7_DnEPSI_EEPT_SL_DpOT0_, symObjAddr: 0x12104, symBinAddr: 0x100012FC0, symSize: 0x34 }
  - { offset: 0x1E039, size: 0x8, addend: 0x0, symName: __ZNSt3__112construct_atB8ne180100INS_4pairIKNS_12basic_stringIcNS_11char_traitsIcEENS_9allocatorIcEEEEN8nlohmann16json_abi_v3_11_310basic_jsonINS_3mapENS_6vectorES7_bxydS5_NSA_14adl_serializerENSD_IhNS5_IhEEEEvEEEEJS7_DnEPSI_EEPT_SL_DpOT0_, symObjAddr: 0x12138, symBinAddr: 0x100012FF4, symSize: 0x3C }
  - { offset: 0x1E3D7, size: 0x8, addend: 0x0, symName: __ZNSt3__1eqB8ne180100INS_6vectorIN8nlohmann16json_abi_v3_11_310basic_jsonINS_3mapES1_NS_12basic_stringIcNS_11char_traitsIcEENS_9allocatorIcEEEEbxydS9_NS3_14adl_serializerENS1_IhNS9_IhEEEEvEENS9_ISF_EEEEZNSF_6createISH_JEEEPT_DpOT0_EUlPSH_E_EEbRKNS_10unique_ptrISJ_T0_EEDn, symObjAddr: 0x12A1C, symBinAddr: 0x1000138D8, symSize: 0x30 }
  - { offset: 0x1E423, size: 0x8, addend: 0x0, symName: __ZNSt3__114__construct_atB8ne180100INS_6vectorIN8nlohmann16json_abi_v3_11_310basic_jsonINS_3mapES1_NS_12basic_stringIcNS_11char_traitsIcEENS_9allocatorIcEEEEbxydS9_NS3_14adl_serializerENS1_IhNS9_IhEEEEvEENS9_ISF_EEEEJEPSH_EEPT_SK_DpOT0_, symObjAddr: 0x12BAC, symBinAddr: 0x100013A68, symSize: 0x24 }
  - { offset: 0x1E462, size: 0x8, addend: 0x0, symName: __ZNSt3__112construct_atB8ne180100INS_6vectorIN8nlohmann16json_abi_v3_11_310basic_jsonINS_3mapES1_NS_12basic_stringIcNS_11char_traitsIcEENS_9allocatorIcEEEEbxydS9_NS3_14adl_serializerENS1_IhNS9_IhEEEEvEENS9_ISF_EEEEJEPSH_EEPT_SK_DpOT0_, symObjAddr: 0x12BD0, symBinAddr: 0x100013A8C, symSize: 0x2C }
  - { offset: 0x1E7D9, size: 0x8, addend: 0x0, symName: __ZNSt3__1eqB8ne180100INS_12basic_stringIcNS_11char_traitsIcEENS_9allocatorIcEEEEZN8nlohmann16json_abi_v3_11_310basic_jsonINS_3mapENS_6vectorES6_bxydS4_NS8_14adl_serializerENSB_IhNS4_IhEEEEvE6createIS6_JRA1_KcEEEPT_DpOT0_EUlPS6_E_EEbRKNS_10unique_ptrISK_T0_EEDn, symObjAddr: 0x12E2C, symBinAddr: 0x100013CE8, symSize: 0x30 }
  - { offset: 0x1E825, size: 0x8, addend: 0x0, symName: __ZNSt3__114__construct_atB8ne180100INS_12basic_stringIcNS_11char_traitsIcEENS_9allocatorIcEEEEJRA1_KcEPS6_EEPT_SC_DpOT0_, symObjAddr: 0x12FBC, symBinAddr: 0x100013E78, symSize: 0x2C }
  - { offset: 0x1E878, size: 0x8, addend: 0x0, symName: __ZNSt3__112construct_atB8ne180100INS_12basic_stringIcNS_11char_traitsIcEENS_9allocatorIcEEEEJRA1_KcEPS6_EEPT_SC_DpOT0_, symObjAddr: 0x12FE8, symBinAddr: 0x100013EA4, symSize: 0x34 }
  - { offset: 0x1EC03, size: 0x8, addend: 0x0, symName: __ZNSt3__1eqB8ne180100IN8nlohmann16json_abi_v3_11_327byte_container_with_subtypeINS_6vectorIhNS_9allocatorIhEEEEEEZNS2_10basic_jsonINS_3mapES4_NS_12basic_stringIcNS_11char_traitsIcEENS5_IcEEEEbxydS5_NS2_14adl_serializerES7_vE6createIS8_JEEEPT_DpOT0_EUlPS8_E_EEbRKNS_10unique_ptrISJ_T0_EEDn, symObjAddr: 0x13244, symBinAddr: 0x100014100, symSize: 0x30 }
  - { offset: 0x1EC4F, size: 0x8, addend: 0x0, symName: __ZNSt3__114__construct_atB8ne180100IN8nlohmann16json_abi_v3_11_327byte_container_with_subtypeINS_6vectorIhNS_9allocatorIhEEEEEEJEPS8_EEPT_SB_DpOT0_, symObjAddr: 0x133D4, symBinAddr: 0x100014290, symSize: 0x24 }
  - { offset: 0x1EC8E, size: 0x8, addend: 0x0, symName: __ZNSt3__112construct_atB8ne180100IN8nlohmann16json_abi_v3_11_327byte_container_with_subtypeINS_6vectorIhNS_9allocatorIhEEEEEEJEPS8_EEPT_SB_DpOT0_, symObjAddr: 0x133F8, symBinAddr: 0x1000142B4, symSize: 0x2C }
  - { offset: 0x1ECCD, size: 0x8, addend: 0x0, symName: __ZNSt3__121__convert_to_integralB8ne180100Ei, symObjAddr: 0x140FC, symBinAddr: 0x100014FB8, symSize: 0x14 }
  - { offset: 0x1ECF9, size: 0x8, addend: 0x0, symName: __ZNSt3__19__advanceB8ne180100INS_14__map_iteratorINS_15__tree_iteratorINS_12__value_typeINS_12basic_stringIcNS_11char_traitsIcEENS_9allocatorIcEEEEN8nlohmann16json_abi_v3_11_310basic_jsonINS_3mapENS_6vectorES9_bxydS7_NSB_14adl_serializerENSE_IhNS7_IhEEEEvEEEEPNS_11__tree_nodeISJ_PvEElEEEEEEvRT_NS_15iterator_traitsISQ_E15difference_typeENS_26bidirectional_iterator_tagE, symObjAddr: 0x14110, symBinAddr: 0x100014FCC, symSize: 0xA4 }
  - { offset: 0x1ED42, size: 0x8, addend: 0x0, symName: __ZNSt3__19__advanceB8ne180100INS_11__wrap_iterIPN8nlohmann16json_abi_v3_11_310basic_jsonINS_3mapENS_6vectorENS_12basic_stringIcNS_11char_traitsIcEENS_9allocatorIcEEEEbxydSA_NS3_14adl_serializerENS6_IhNSA_IhEEEEvEEEEEEvRT_NS_15iterator_traitsISJ_E15difference_typeENS_26random_access_iterator_tagE, symObjAddr: 0x14218, symBinAddr: 0x1000150D4, symSize: 0x2C }
  - { offset: 0x1F319, size: 0x8, addend: 0x0, symName: __ZNSt3__1neB8ne180100IPKcEEbRKNS_11__wrap_iterIT_EES7_, symObjAddr: 0x17CB8, symBinAddr: 0x100018B74, symSize: 0x34 }
  - { offset: 0x1F35C, size: 0x8, addend: 0x0, symName: __ZNSt3__1eqB8ne180100IPKcEEbRKNS_11__wrap_iterIT_EES7_, symObjAddr: 0x17D58, symBinAddr: 0x100018C14, symSize: 0x48 }
  - { offset: 0x1F39F, size: 0x8, addend: 0x0, symName: __ZNSt3__19__advanceB8ne180100INS_11__wrap_iterIPKcEEEEvRT_NS_15iterator_traitsIS5_E15difference_typeENS_26random_access_iterator_tagE, symObjAddr: 0x17DB8, symBinAddr: 0x100018C74, symSize: 0x2C }
  - { offset: 0x1F3E8, size: 0x8, addend: 0x0, symName: __ZNSt3__114__construct_atB8ne180100IcJcEPcEEPT_S3_DpOT0_, symObjAddr: 0x180E8, symBinAddr: 0x100018FA4, symSize: 0x2C }
  - { offset: 0x1F43B, size: 0x8, addend: 0x0, symName: __ZNSt3__112construct_atB8ne180100IcJcEPcEEPT_S3_DpOT0_, symObjAddr: 0x18114, symBinAddr: 0x100018FD0, symSize: 0x24 }
  - { offset: 0x1F48E, size: 0x8, addend: 0x0, symName: __ZNSt3__119__allocate_at_leastB8ne180100INS_9allocatorIcEEEENS_19__allocation_resultINS_16allocator_traitsIT_E7pointerEEERS5_m, symObjAddr: 0x18640, symBinAddr: 0x1000194FC, symSize: 0x40 }
  - { offset: 0x1F4D1, size: 0x8, addend: 0x0, symName: __ZNSt3__142__uninitialized_allocator_move_if_noexceptB8ne180100INS_9allocatorIcEENS_16reverse_iteratorIPcEES5_cvEET1_RT_T0_S9_S6_, symObjAddr: 0x187AC, symBinAddr: 0x100019668, symSize: 0x78 }
  - { offset: 0x1F54F, size: 0x8, addend: 0x0, symName: __ZNSt3__14swapB8ne180100IPcEENS_9enable_ifIXaasr21is_move_constructibleIT_EE5valuesr18is_move_assignableIS3_EE5valueEvE4typeERS3_S6_, symObjAddr: 0x18870, symBinAddr: 0x10001972C, symSize: 0x3C }
  - { offset: 0x1F5A0, size: 0x8, addend: 0x0, symName: __ZNSt3__14moveB8ne180100INS_16reverse_iteratorIPcEES3_EET0_T_S5_S4_, symObjAddr: 0x188C0, symBinAddr: 0x10001977C, symSize: 0x78 }
  - { offset: 0x1F5FA, size: 0x8, addend: 0x0, symName: __ZNSt3__16__moveB8ne180100INS_17_ClassicAlgPolicyENS_16reverse_iteratorIPcEES4_S4_EENS_4pairIT0_T2_EES6_T1_S7_, symObjAddr: 0x18938, symBinAddr: 0x1000197F4, symSize: 0x64 }
  - { offset: 0x1F666, size: 0x8, addend: 0x0, symName: __ZNSt3__123__dispatch_copy_or_moveB8ne180100INS_17_ClassicAlgPolicyENS_11__move_loopIS1_EENS_14__move_trivialENS_16reverse_iteratorIPcEES7_S7_EENS_4pairIT2_T4_EES9_T3_SA_, symObjAddr: 0x1899C, symBinAddr: 0x100019858, symSize: 0x64 }
  - { offset: 0x1F6E4, size: 0x8, addend: 0x0, symName: __ZNSt3__121__unwrap_and_dispatchB8ne180100INS_10__overloadINS_11__move_loopINS_17_ClassicAlgPolicyEEENS_14__move_trivialEEENS_16reverse_iteratorIPcEES9_S9_Li0EEENS_4pairIT0_T2_EESB_T1_SC_, symObjAddr: 0x18A00, symBinAddr: 0x1000198BC, symSize: 0x12C }
  - { offset: 0x1F774, size: 0x8, addend: 0x0, symName: __ZNSt3__114__unwrap_rangeB8ne180100INS_16reverse_iteratorIPcEES3_EEDaT_T0_, symObjAddr: 0x18B2C, symBinAddr: 0x1000199E8, symSize: 0x4C }
  - { offset: 0x1F894, size: 0x8, addend: 0x0, symName: __ZNSt3__113__unwrap_iterB8ne180100INS_16reverse_iteratorIPcEENS_18__unwrap_iter_implIS3_Lb0EEELi0EEEDTclsrT0_8__unwrapclsr3stdE7declvalIT_EEEES7_, symObjAddr: 0x18C18, symBinAddr: 0x100019AD4, symSize: 0x44 }
  - { offset: 0x1F8D8, size: 0x8, addend: 0x0, symName: __ZNSt3__19make_pairB8ne180100INS_16reverse_iteratorIPcEES3_EENS_4pairINS_18__unwrap_ref_decayIT_E4typeENS5_IT0_E4typeEEEOS6_OS9_, symObjAddr: 0x18C5C, symBinAddr: 0x100019B18, symSize: 0x38 }
  - { offset: 0x1F927, size: 0x8, addend: 0x0, symName: __ZNSt3__114__rewrap_rangeB8ne180100INS_16reverse_iteratorIPcEES3_S3_EET0_S4_T1_, symObjAddr: 0x18C94, symBinAddr: 0x100019B50, symSize: 0x5C }
  - { offset: 0x1F97C, size: 0x8, addend: 0x0, symName: __ZNSt3__113__rewrap_iterB8ne180100INS_16reverse_iteratorIPcEES3_NS_18__unwrap_iter_implIS3_Lb0EEEEET_S6_T0_, symObjAddr: 0x18CF0, symBinAddr: 0x100019BAC, symSize: 0x74 }
  - { offset: 0x1FA21, size: 0x8, addend: 0x0, symName: __ZNSt3__1neB8ne180100IPcS1_EEbRKNS_16reverse_iteratorIT_EERKNS2_IT0_EE, symObjAddr: 0x18E58, symBinAddr: 0x100019D14, symSize: 0x48 }
  - { offset: 0x1FAC0, size: 0x8, addend: 0x0, symName: __ZNSt3__112__destroy_atB8ne180100IcLi0EEEvPT_, symObjAddr: 0x191A8, symBinAddr: 0x10001A064, symSize: 0x10 }
  - { offset: 0x1FAF7, size: 0x8, addend: 0x0, symName: __ZNSt3__15beginB8ne180100INS_12basic_stringIcNS_11char_traitsIcEENS_9allocatorIcEEEEEEDTcldtfp_5beginEERKT_, symObjAddr: 0x19C44, symBinAddr: 0x10001AB00, symSize: 0x2C }
  - { offset: 0x1FB2C, size: 0x8, addend: 0x0, symName: __ZNSt3__13endB8ne180100INS_12basic_stringIcNS_11char_traitsIcEENS_9allocatorIcEEEEEEDTcldtfp_3endEERKT_, symObjAddr: 0x19C70, symBinAddr: 0x10001AB2C, symSize: 0x2C }
  - { offset: 0x1FB61, size: 0x8, addend: 0x0, symName: __ZNSt3__119__allocate_at_leastB8ne180100INS_9allocatorImEEEENS_19__allocation_resultINS_16allocator_traitsIT_E7pointerEEERS5_m, symObjAddr: 0x1E4F0, symBinAddr: 0x10001F3AC, symSize: 0x40 }
  - { offset: 0x1FBA4, size: 0x8, addend: 0x0, symName: __ZNSt3__16__copyB8ne180100INS_17_ClassicAlgPolicyENS_14__bit_iteratorINS_6vectorIbNS_9allocatorIbEEEELb0ELm0EEES7_S7_EENS_4pairIT0_T2_EES9_T1_SA_, symObjAddr: 0x1E658, symBinAddr: 0x10001F514, symSize: 0x88 }
  - { offset: 0x1FC13, size: 0x8, addend: 0x0, symName: __ZNSt3__123__dispatch_copy_or_moveB8ne180100INS_17_ClassicAlgPolicyENS_11__copy_loopIS1_EENS_14__copy_trivialENS_14__bit_iteratorINS_6vectorIbNS_9allocatorIbEEEELb0ELm0EEESA_SA_EENS_4pairIT2_T4_EESC_T3_SD_, symObjAddr: 0x1E778, symBinAddr: 0x10001F634, symSize: 0x88 }
  - { offset: 0x1FC94, size: 0x8, addend: 0x0, symName: __ZNSt3__121__unwrap_and_dispatchB8ne180100INS_10__overloadINS_11__copy_loopINS_17_ClassicAlgPolicyEEENS_14__copy_trivialEEENS_14__bit_iteratorINS_6vectorIbNS_9allocatorIbEEEELb0ELm0EEESC_SC_Li0EEENS_4pairIT0_T2_EESE_T1_SF_, symObjAddr: 0x1E800, symBinAddr: 0x10001F6BC, symSize: 0x15C }
  - { offset: 0x1FD27, size: 0x8, addend: 0x0, symName: __ZNSt3__114__unwrap_rangeB8ne180100INS_14__bit_iteratorINS_6vectorIbNS_9allocatorIbEEEELb0ELm0EEES6_EEDaT_T0_, symObjAddr: 0x1E95C, symBinAddr: 0x10001F818, symSize: 0x6C }
  - { offset: 0x1FE9B, size: 0x8, addend: 0x0, symName: __ZNSt3__113__unwrap_iterB8ne180100INS_14__bit_iteratorINS_6vectorIbNS_9allocatorIbEEEELb0ELm0EEENS_18__unwrap_iter_implIS6_Lb0EEELi0EEEDTclsrT0_8__unwrapclsr3stdE7declvalIT_EEEESA_, symObjAddr: 0x1EA80, symBinAddr: 0x10001F93C, symSize: 0x44 }
  - { offset: 0x1FEE0, size: 0x8, addend: 0x0, symName: __ZNSt3__19make_pairB8ne180100INS_14__bit_iteratorINS_6vectorIbNS_9allocatorIbEEEELb0ELm0EEES6_EENS_4pairINS_18__unwrap_ref_decayIT_E4typeENS8_IT0_E4typeEEEOS9_OSC_, symObjAddr: 0x1EAC4, symBinAddr: 0x10001F980, symSize: 0x40 }
  - { offset: 0x1FF2F, size: 0x8, addend: 0x0, symName: __ZNSt3__114__rewrap_rangeB8ne180100INS_14__bit_iteratorINS_6vectorIbNS_9allocatorIbEEEELb0ELm0EEES6_S6_EET0_S7_T1_, symObjAddr: 0x1EB04, symBinAddr: 0x10001F9C0, symSize: 0x6C }
  - { offset: 0x1FF86, size: 0x8, addend: 0x0, symName: __ZNSt3__113__rewrap_iterB8ne180100INS_14__bit_iteratorINS_6vectorIbNS_9allocatorIbEEEELb0ELm0EEES6_NS_18__unwrap_iter_implIS6_Lb0EEEEET_S9_T0_, symObjAddr: 0x1EB70, symBinAddr: 0x10001FA2C, symSize: 0x74 }
  - { offset: 0x2002D, size: 0x8, addend: 0x0, symName: __ZNSt3__1neB8ne180100ERKNS_14__bit_iteratorINS_6vectorIbNS_9allocatorIbEEEELb0ELm0EEES7_, symObjAddr: 0x1ECF4, symBinAddr: 0x10001FBB0, symSize: 0x34 }
  - { offset: 0x2006B, size: 0x8, addend: 0x0, symName: __ZNSt3__1eqB8ne180100ERKNS_14__bit_iteratorINS_6vectorIbNS_9allocatorIbEEEELb0ELm0EEES7_, symObjAddr: 0x1EE08, symBinAddr: 0x10001FCC4, symSize: 0x64 }
  - { offset: 0x200F0, size: 0x8, addend: 0x0, symName: __ZNSt3__14swapB8ne180100IPmEENS_9enable_ifIXaasr21is_move_constructibleIT_EE5valuesr18is_move_assignableIS3_EE5valueEvE4typeERS3_S6_, symObjAddr: 0x1F078, symBinAddr: 0x10001FF34, symSize: 0x3C }
  - { offset: 0x20141, size: 0x8, addend: 0x0, symName: __ZNSt3__14swapB8ne180100ImEENS_9enable_ifIXaasr21is_move_constructibleIT_EE5valuesr18is_move_assignableIS2_EE5valueEvE4typeERS2_S5_, symObjAddr: 0x1F0B4, symBinAddr: 0x10001FF70, symSize: 0x3C }
  - { offset: 0x20192, size: 0x8, addend: 0x0, symName: __ZNSt3__116__swap_allocatorB8ne180100INS_9allocatorImEEEEvRT_S4_NS_17integral_constantIbLb0EEE, symObjAddr: 0x1F0F0, symBinAddr: 0x10001FFAC, symSize: 0x14 }
  - { offset: 0x201D3, size: 0x8, addend: 0x0, symName: __ZNSt3__112__to_addressB8ne180100IPN8nlohmann16json_abi_v3_11_310basic_jsonINS_3mapENS_6vectorENS_12basic_stringIcNS_11char_traitsIcEENS_9allocatorIcEEEEbxydS9_NS2_14adl_serializerENS5_IhNS9_IhEEEEvEEEEPT_SI_, symObjAddr: 0x1F5B8, symBinAddr: 0x100020474, symSize: 0x14 }
  - { offset: 0x20208, size: 0x8, addend: 0x0, symName: __ZNSt3__112__destroy_atB8ne180100IPN8nlohmann16json_abi_v3_11_310basic_jsonINS_3mapENS_6vectorENS_12basic_stringIcNS_11char_traitsIcEENS_9allocatorIcEEEEbxydS9_NS2_14adl_serializerENS5_IhNS9_IhEEEEvEELi0EEEvPT_, symObjAddr: 0x1F5CC, symBinAddr: 0x100020488, symSize: 0x10 }
  - { offset: 0x20244, size: 0x8, addend: 0x0, symName: __ZNSt3__16__math8isfiniteB8ne180100IdLi0EEEbT_, symObjAddr: 0x200FC, symBinAddr: 0x100020FB8, symSize: 0x24 }
  - { offset: 0x203F7, size: 0x8, addend: 0x0, symName: __ZNSt3__125__throw_bad_function_callB8ne180100Ev, symObjAddr: 0x20F44, symBinAddr: 0x100021E00, symSize: 0x38 }
  - { offset: 0x20477, size: 0x8, addend: 0x0, symName: __ZNSt3__114__construct_atB8ne180100IPN8nlohmann16json_abi_v3_11_310basic_jsonINS_3mapENS_6vectorENS_12basic_stringIcNS_11char_traitsIcEENS_9allocatorIcEEEEbxydS9_NS2_14adl_serializerENS5_IhNS9_IhEEEEvEEJRKSG_EPSG_EEPT_SL_DpOT0_, symObjAddr: 0x2161C, symBinAddr: 0x1000224D8, symSize: 0x2C }
  - { offset: 0x204CA, size: 0x8, addend: 0x0, symName: __ZNSt3__112construct_atB8ne180100IPN8nlohmann16json_abi_v3_11_310basic_jsonINS_3mapENS_6vectorENS_12basic_stringIcNS_11char_traitsIcEENS_9allocatorIcEEEEbxydS9_NS2_14adl_serializerENS5_IhNS9_IhEEEEvEEJRKSG_EPSG_EEPT_SL_DpOT0_, symObjAddr: 0x21648, symBinAddr: 0x100022504, symSize: 0x24 }
  - { offset: 0x2051D, size: 0x8, addend: 0x0, symName: __ZNSt3__119__allocate_at_leastB8ne180100INS_9allocatorIPN8nlohmann16json_abi_v3_11_310basic_jsonINS_3mapENS_6vectorENS_12basic_stringIcNS_11char_traitsIcEENS1_IcEEEEbxydS1_NS3_14adl_serializerENS6_IhNS1_IhEEEEvEEEEEENS_19__allocation_resultINS_16allocator_traitsIT_E7pointerEEERSK_m, symObjAddr: 0x21AD4, symBinAddr: 0x100022990, symSize: 0x40 }
  - { offset: 0x20560, size: 0x8, addend: 0x0, symName: __ZNSt3__142__uninitialized_allocator_move_if_noexceptB8ne180100INS_9allocatorIPN8nlohmann16json_abi_v3_11_310basic_jsonINS_3mapENS_6vectorENS_12basic_stringIcNS_11char_traitsIcEENS1_IcEEEEbxydS1_NS3_14adl_serializerENS6_IhNS1_IhEEEEvEEEENS_16reverse_iteratorIPSG_EESK_SG_vEET1_RT_T0_SO_SL_, symObjAddr: 0x21C88, symBinAddr: 0x100022B44, symSize: 0x78 }
  - { offset: 0x205DE, size: 0x8, addend: 0x0, symName: __ZNSt3__14swapB8ne180100IPPN8nlohmann16json_abi_v3_11_310basic_jsonINS_3mapENS_6vectorENS_12basic_stringIcNS_11char_traitsIcEENS_9allocatorIcEEEEbxydS9_NS2_14adl_serializerENS5_IhNS9_IhEEEEvEEEENS_9enable_ifIXaasr21is_move_constructibleIT_EE5valuesr18is_move_assignableISJ_EE5valueEvE4typeERSJ_SM_, symObjAddr: 0x21D4C, symBinAddr: 0x100022C08, symSize: 0x3C }
  - { offset: 0x2062F, size: 0x8, addend: 0x0, symName: __ZNSt3__14moveB8ne180100INS_16reverse_iteratorIPPN8nlohmann16json_abi_v3_11_310basic_jsonINS_3mapENS_6vectorENS_12basic_stringIcNS_11char_traitsIcEENS_9allocatorIcEEEEbxydSA_NS3_14adl_serializerENS6_IhNSA_IhEEEEvEEEESJ_EET0_T_SL_SK_, symObjAddr: 0x21D9C, symBinAddr: 0x100022C58, symSize: 0x78 }
  - { offset: 0x20689, size: 0x8, addend: 0x0, symName: __ZNSt3__16__moveB8ne180100INS_17_ClassicAlgPolicyENS_16reverse_iteratorIPPN8nlohmann16json_abi_v3_11_310basic_jsonINS_3mapENS_6vectorENS_12basic_stringIcNS_11char_traitsIcEENS_9allocatorIcEEEEbxydSB_NS4_14adl_serializerENS7_IhNSB_IhEEEEvEEEESK_SK_EENS_4pairIT0_T2_EESM_T1_SN_, symObjAddr: 0x21E14, symBinAddr: 0x100022CD0, symSize: 0x64 }
  - { offset: 0x206F5, size: 0x8, addend: 0x0, symName: __ZNSt3__123__dispatch_copy_or_moveB8ne180100INS_17_ClassicAlgPolicyENS_11__move_loopIS1_EENS_14__move_trivialENS_16reverse_iteratorIPPN8nlohmann16json_abi_v3_11_310basic_jsonINS_3mapENS_6vectorENS_12basic_stringIcNS_11char_traitsIcEENS_9allocatorIcEEEEbxydSE_NS7_14adl_serializerENSA_IhNSE_IhEEEEvEEEESN_SN_EENS_4pairIT2_T4_EESP_T3_SQ_, symObjAddr: 0x21E78, symBinAddr: 0x100022D34, symSize: 0x64 }
  - { offset: 0x20773, size: 0x8, addend: 0x0, symName: __ZNSt3__121__unwrap_and_dispatchB8ne180100INS_10__overloadINS_11__move_loopINS_17_ClassicAlgPolicyEEENS_14__move_trivialEEENS_16reverse_iteratorIPPN8nlohmann16json_abi_v3_11_310basic_jsonINS_3mapENS_6vectorENS_12basic_stringIcNS_11char_traitsIcEENS_9allocatorIcEEEEbxydSG_NS9_14adl_serializerENSC_IhNSG_IhEEEEvEEEESP_SP_Li0EEENS_4pairIT0_T2_EESR_T1_SS_, symObjAddr: 0x21EDC, symBinAddr: 0x100022D98, symSize: 0x12C }
  - { offset: 0x20803, size: 0x8, addend: 0x0, symName: __ZNSt3__114__unwrap_rangeB8ne180100INS_16reverse_iteratorIPPN8nlohmann16json_abi_v3_11_310basic_jsonINS_3mapENS_6vectorENS_12basic_stringIcNS_11char_traitsIcEENS_9allocatorIcEEEEbxydSA_NS3_14adl_serializerENS6_IhNSA_IhEEEEvEEEESJ_EEDaT_T0_, symObjAddr: 0x22008, symBinAddr: 0x100022EC4, symSize: 0x4C }
  - { offset: 0x20923, size: 0x8, addend: 0x0, symName: __ZNSt3__113__unwrap_iterB8ne180100INS_16reverse_iteratorIPPN8nlohmann16json_abi_v3_11_310basic_jsonINS_3mapENS_6vectorENS_12basic_stringIcNS_11char_traitsIcEENS_9allocatorIcEEEEbxydSA_NS3_14adl_serializerENS6_IhNSA_IhEEEEvEEEENS_18__unwrap_iter_implISJ_Lb0EEELi0EEEDTclsrT0_8__unwrapclsr3stdE7declvalIT_EEEESN_, symObjAddr: 0x220F4, symBinAddr: 0x100022FB0, symSize: 0x44 }
  - { offset: 0x20967, size: 0x8, addend: 0x0, symName: __ZNSt3__19make_pairB8ne180100INS_16reverse_iteratorIPPN8nlohmann16json_abi_v3_11_310basic_jsonINS_3mapENS_6vectorENS_12basic_stringIcNS_11char_traitsIcEENS_9allocatorIcEEEEbxydSA_NS3_14adl_serializerENS6_IhNSA_IhEEEEvEEEESJ_EENS_4pairINS_18__unwrap_ref_decayIT_E4typeENSL_IT0_E4typeEEEOSM_OSP_, symObjAddr: 0x22138, symBinAddr: 0x100022FF4, symSize: 0x38 }
  - { offset: 0x209B6, size: 0x8, addend: 0x0, symName: __ZNSt3__114__rewrap_rangeB8ne180100INS_16reverse_iteratorIPPN8nlohmann16json_abi_v3_11_310basic_jsonINS_3mapENS_6vectorENS_12basic_stringIcNS_11char_traitsIcEENS_9allocatorIcEEEEbxydSA_NS3_14adl_serializerENS6_IhNSA_IhEEEEvEEEESJ_SJ_EET0_SK_T1_, symObjAddr: 0x22170, symBinAddr: 0x10002302C, symSize: 0x5C }
  - { offset: 0x20A0B, size: 0x8, addend: 0x0, symName: __ZNSt3__113__rewrap_iterB8ne180100INS_16reverse_iteratorIPPN8nlohmann16json_abi_v3_11_310basic_jsonINS_3mapENS_6vectorENS_12basic_stringIcNS_11char_traitsIcEENS_9allocatorIcEEEEbxydSA_NS3_14adl_serializerENS6_IhNSA_IhEEEEvEEEESJ_NS_18__unwrap_iter_implISJ_Lb0EEEEET_SM_T0_, symObjAddr: 0x221CC, symBinAddr: 0x100023088, symSize: 0x74 }
  - { offset: 0x20AB0, size: 0x8, addend: 0x0, symName: __ZNSt3__1neB8ne180100IPPN8nlohmann16json_abi_v3_11_310basic_jsonINS_3mapENS_6vectorENS_12basic_stringIcNS_11char_traitsIcEENS_9allocatorIcEEEEbxydS9_NS2_14adl_serializerENS5_IhNS9_IhEEEEvEESH_EEbRKNS_16reverse_iteratorIT_EERKNSI_IT0_EE, symObjAddr: 0x22334, symBinAddr: 0x1000231F0, symSize: 0x48 }
  - { offset: 0x20B4F, size: 0x8, addend: 0x0, symName: __ZNSt3__113__tree_removeB8ne180100IPNS_16__tree_node_baseIPvEEEEvT_S5_, symObjAddr: 0x23DE8, symBinAddr: 0x100024CA4, symSize: 0x6F0 }
  - { offset: 0x20BCD, size: 0x8, addend: 0x0, symName: __ZNSt3__111__tree_nextB8ne180100IPNS_16__tree_node_baseIPvEEEET_S5_, symObjAddr: 0x244D8, symBinAddr: 0x100025394, symSize: 0x80 }
  - { offset: 0x20C02, size: 0x8, addend: 0x0, symName: __ZNSt3__1miB8ne180100IPKN8nlohmann16json_abi_v3_11_310basic_jsonINS_3mapENS_6vectorENS_12basic_stringIcNS_11char_traitsIcEENS_9allocatorIcEEEEbxydS9_NS2_14adl_serializerENS5_IhNS9_IhEEEEvEESH_EEDTmicldtfp_4baseEcldtfp0_4baseEERKNS_11__wrap_iterIT_EERKNSJ_IT0_EE, symObjAddr: 0x24558, symBinAddr: 0x100025414, symSize: 0x48 }
  - { offset: 0x20C4E, size: 0x8, addend: 0x0, symName: __ZNSt3__14moveB8ne180100IPN8nlohmann16json_abi_v3_11_310basic_jsonINS_3mapENS_6vectorENS_12basic_stringIcNS_11char_traitsIcEENS_9allocatorIcEEEEbxydS9_NS2_14adl_serializerENS5_IhNS9_IhEEEEvEESG_EET0_T_SI_SH_, symObjAddr: 0x245CC, symBinAddr: 0x100025488, symSize: 0x40 }
  - { offset: 0x20CA8, size: 0x8, addend: 0x0, symName: __ZNSt3__16__moveB8ne180100INS_17_ClassicAlgPolicyEPN8nlohmann16json_abi_v3_11_310basic_jsonINS_3mapENS_6vectorENS_12basic_stringIcNS_11char_traitsIcEENS_9allocatorIcEEEEbxydSA_NS3_14adl_serializerENS6_IhNSA_IhEEEEvEESH_SH_EENS_4pairIT0_T2_EESJ_T1_SK_, symObjAddr: 0x246D8, symBinAddr: 0x100025594, symSize: 0x44 }
  - { offset: 0x20D14, size: 0x8, addend: 0x0, symName: __ZNSt3__123__dispatch_copy_or_moveB8ne180100INS_17_ClassicAlgPolicyENS_11__move_loopIS1_EENS_14__move_trivialEPN8nlohmann16json_abi_v3_11_310basic_jsonINS_3mapENS_6vectorENS_12basic_stringIcNS_11char_traitsIcEENS_9allocatorIcEEEEbxydSD_NS6_14adl_serializerENS9_IhNSD_IhEEEEvEESK_SK_EENS_4pairIT2_T4_EESM_T3_SN_, symObjAddr: 0x2471C, symBinAddr: 0x1000255D8, symSize: 0x44 }
  - { offset: 0x20D92, size: 0x8, addend: 0x0, symName: __ZNSt3__121__unwrap_and_dispatchB8ne180100INS_10__overloadINS_11__move_loopINS_17_ClassicAlgPolicyEEENS_14__move_trivialEEEPN8nlohmann16json_abi_v3_11_310basic_jsonINS_3mapENS_6vectorENS_12basic_stringIcNS_11char_traitsIcEENS_9allocatorIcEEEEbxydSF_NS8_14adl_serializerENSB_IhNSF_IhEEEEvEESM_SM_Li0EEENS_4pairIT0_T2_EESO_T1_SP_, symObjAddr: 0x24760, symBinAddr: 0x10002561C, symSize: 0xB4 }
  - { offset: 0x20E20, size: 0x8, addend: 0x0, symName: __ZNSt3__19make_pairB8ne180100IPN8nlohmann16json_abi_v3_11_310basic_jsonINS_3mapENS_6vectorENS_12basic_stringIcNS_11char_traitsIcEENS_9allocatorIcEEEEbxydS9_NS2_14adl_serializerENS5_IhNS9_IhEEEEvEESG_EENS_4pairINS_18__unwrap_ref_decayIT_E4typeENSI_IT0_E4typeEEEOSJ_OSM_, symObjAddr: 0x248BC, symBinAddr: 0x100025778, symSize: 0x38 }
  - { offset: 0x20E6F, size: 0x8, addend: 0x0, symName: __ZNSt3__114__rewrap_rangeB8ne180100IPN8nlohmann16json_abi_v3_11_310basic_jsonINS_3mapENS_6vectorENS_12basic_stringIcNS_11char_traitsIcEENS_9allocatorIcEEEEbxydS9_NS2_14adl_serializerENS5_IhNS9_IhEEEEvEESG_SG_EET0_SH_T1_, symObjAddr: 0x248F4, symBinAddr: 0x1000257B0, symSize: 0x2C }
  - { offset: 0x20EFB, size: 0x8, addend: 0x0, symName: __ZNSt3__116forward_as_tupleB8ne180100IJRKNS_12basic_stringIcNS_11char_traitsIcEENS_9allocatorIcEEEEEEENS_5tupleIJDpOT_EEESC_, symObjAddr: 0x24D2C, symBinAddr: 0x100025BE8, symSize: 0x2C }
  - { offset: 0x20F35, size: 0x8, addend: 0x0, symName: __ZNSt3__116forward_as_tupleB8ne180100IJEEENS_5tupleIJDpOT_EEES4_, symObjAddr: 0x24D58, symBinAddr: 0x100025C14, symSize: 0x4 }
  - { offset: 0x20F59, size: 0x8, addend: 0x0, symName: __ZNSt3__114__construct_atB8ne180100INS_4pairIKNS_12basic_stringIcNS_11char_traitsIcEENS_9allocatorIcEEEEN8nlohmann16json_abi_v3_11_310basic_jsonINS_3mapENS_6vectorES7_bxydS5_NSA_14adl_serializerENSD_IhNS5_IhEEEEvEEEEJRKNS_21piecewise_construct_tENS_5tupleIJRS8_EEENSM_IJEEEEPSI_EEPT_SS_DpOT0_, symObjAddr: 0x24EB4, symBinAddr: 0x100025D70, symSize: 0x3C }
  - { offset: 0x20FD2, size: 0x8, addend: 0x0, symName: __ZNSt3__112construct_atB8ne180100INS_4pairIKNS_12basic_stringIcNS_11char_traitsIcEENS_9allocatorIcEEEEN8nlohmann16json_abi_v3_11_310basic_jsonINS_3mapENS_6vectorES7_bxydS5_NSA_14adl_serializerENSD_IhNS5_IhEEEEvEEEEJRKNS_21piecewise_construct_tENS_5tupleIJRS8_EEENSM_IJEEEEPSI_EEPT_SS_DpOT0_, symObjAddr: 0x24EF0, symBinAddr: 0x100025DAC, symSize: 0x48 }
  - { offset: 0x21057, size: 0x8, addend: 0x0, symName: __ZNSt3__13getB8ne180100ILm0EJRKNS_12basic_stringIcNS_11char_traitsIcEENS_9allocatorIcEEEEEEERNS_13tuple_elementIXT_ENS_5tupleIJDpT0_EEEE4typeERSD_, symObjAddr: 0x25004, symBinAddr: 0x100025EC0, symSize: 0x24 }
  - { offset: 0x21385, size: 0x8, addend: 0x0, symName: __ZNSt3__114__construct_atB8ne180100IPN8nlohmann16json_abi_v3_11_310basic_jsonINS_3mapENS_6vectorENS_12basic_stringIcNS_11char_traitsIcEENS_9allocatorIcEEEEbxydS9_NS2_14adl_serializerENS5_IhNS9_IhEEEEvEEJSG_EPSG_EEPT_SJ_DpOT0_, symObjAddr: 0x293C4, symBinAddr: 0x10002A280, symSize: 0x2C }
  - { offset: 0x213D8, size: 0x8, addend: 0x0, symName: __ZNSt3__112construct_atB8ne180100IPN8nlohmann16json_abi_v3_11_310basic_jsonINS_3mapENS_6vectorENS_12basic_stringIcNS_11char_traitsIcEENS_9allocatorIcEEEEbxydS9_NS2_14adl_serializerENS5_IhNS9_IhEEEEvEEJSG_EPSG_EEPT_SJ_DpOT0_, symObjAddr: 0x293F0, symBinAddr: 0x10002A2AC, symSize: 0x24 }
  - { offset: 0x2142B, size: 0x8, addend: 0x0, symName: __ZNSt3__114__construct_atB8ne180100IN8nlohmann16json_abi_v3_11_310basic_jsonINS_3mapENS_6vectorENS_12basic_stringIcNS_11char_traitsIcEENS_9allocatorIcEEEEbxydS9_NS2_14adl_serializerENS5_IhNS9_IhEEEEvEEJNS2_6detail7value_tEEPSF_EEPT_SK_DpOT0_, symObjAddr: 0x29654, symBinAddr: 0x10002A510, symSize: 0x2C }
  - { offset: 0x2147E, size: 0x8, addend: 0x0, symName: __ZNSt3__112construct_atB8ne180100IN8nlohmann16json_abi_v3_11_310basic_jsonINS_3mapENS_6vectorENS_12basic_stringIcNS_11char_traitsIcEENS_9allocatorIcEEEEbxydS9_NS2_14adl_serializerENS5_IhNS9_IhEEEEvEEJNS2_6detail7value_tEEPSF_EEPT_SK_DpOT0_, symObjAddr: 0x29680, symBinAddr: 0x10002A53C, symSize: 0x38 }
  - { offset: 0x214D1, size: 0x8, addend: 0x0, symName: __ZNSt3__114__construct_atB8ne180100IN8nlohmann16json_abi_v3_11_310basic_jsonINS_3mapENS_6vectorENS_12basic_stringIcNS_11char_traitsIcEENS_9allocatorIcEEEEbxydS9_NS2_14adl_serializerENS5_IhNS9_IhEEEEvEEJRdEPSF_EEPT_SJ_DpOT0_, symObjAddr: 0x29AE8, symBinAddr: 0x10002A9A4, symSize: 0x2C }
  - { offset: 0x21524, size: 0x8, addend: 0x0, symName: __ZNSt3__112construct_atB8ne180100IN8nlohmann16json_abi_v3_11_310basic_jsonINS_3mapENS_6vectorENS_12basic_stringIcNS_11char_traitsIcEENS_9allocatorIcEEEEbxydS9_NS2_14adl_serializerENS5_IhNS9_IhEEEEvEEJRdEPSF_EEPT_SJ_DpOT0_, symObjAddr: 0x29B14, symBinAddr: 0x10002A9D0, symSize: 0x34 }
  - { offset: 0x21577, size: 0x8, addend: 0x0, symName: __ZNSt3__114__construct_atB8ne180100IN8nlohmann16json_abi_v3_11_310basic_jsonINS_3mapENS_6vectorENS_12basic_stringIcNS_11char_traitsIcEENS_9allocatorIcEEEEbxydS9_NS2_14adl_serializerENS5_IhNS9_IhEEEEvEEJRbEPSF_EEPT_SJ_DpOT0_, symObjAddr: 0x29F78, symBinAddr: 0x10002AE34, symSize: 0x2C }
  - { offset: 0x215CA, size: 0x8, addend: 0x0, symName: __ZNSt3__112construct_atB8ne180100IN8nlohmann16json_abi_v3_11_310basic_jsonINS_3mapENS_6vectorENS_12basic_stringIcNS_11char_traitsIcEENS_9allocatorIcEEEEbxydS9_NS2_14adl_serializerENS5_IhNS9_IhEEEEvEEJRbEPSF_EEPT_SJ_DpOT0_, symObjAddr: 0x29FA4, symBinAddr: 0x10002AE60, symSize: 0x34 }
  - { offset: 0x2161D, size: 0x8, addend: 0x0, symName: __ZNSt3__114__construct_atB8ne180100IN8nlohmann16json_abi_v3_11_310basic_jsonINS_3mapENS_6vectorENS_12basic_stringIcNS_11char_traitsIcEENS_9allocatorIcEEEEbxydS9_NS2_14adl_serializerENS5_IhNS9_IhEEEEvEEJDnEPSF_EEPT_SI_DpOT0_, symObjAddr: 0x2A408, symBinAddr: 0x10002B2C4, symSize: 0x2C }
  - { offset: 0x21670, size: 0x8, addend: 0x0, symName: __ZNSt3__112construct_atB8ne180100IN8nlohmann16json_abi_v3_11_310basic_jsonINS_3mapENS_6vectorENS_12basic_stringIcNS_11char_traitsIcEENS_9allocatorIcEEEEbxydS9_NS2_14adl_serializerENS5_IhNS9_IhEEEEvEEJDnEPSF_EEPT_SI_DpOT0_, symObjAddr: 0x2A434, symBinAddr: 0x10002B2F0, symSize: 0x34 }
  - { offset: 0x216C3, size: 0x8, addend: 0x0, symName: __ZNSt3__114__construct_atB8ne180100IN8nlohmann16json_abi_v3_11_310basic_jsonINS_3mapENS_6vectorENS_12basic_stringIcNS_11char_traitsIcEENS_9allocatorIcEEEEbxydS9_NS2_14adl_serializerENS5_IhNS9_IhEEEEvEEJRxEPSF_EEPT_SJ_DpOT0_, symObjAddr: 0x2A898, symBinAddr: 0x10002B754, symSize: 0x2C }
  - { offset: 0x21716, size: 0x8, addend: 0x0, symName: __ZNSt3__112construct_atB8ne180100IN8nlohmann16json_abi_v3_11_310basic_jsonINS_3mapENS_6vectorENS_12basic_stringIcNS_11char_traitsIcEENS_9allocatorIcEEEEbxydS9_NS2_14adl_serializerENS5_IhNS9_IhEEEEvEEJRxEPSF_EEPT_SJ_DpOT0_, symObjAddr: 0x2A8C4, symBinAddr: 0x10002B780, symSize: 0x34 }
  - { offset: 0x21769, size: 0x8, addend: 0x0, symName: __ZNSt3__114__construct_atB8ne180100IN8nlohmann16json_abi_v3_11_310basic_jsonINS_3mapENS_6vectorENS_12basic_stringIcNS_11char_traitsIcEENS_9allocatorIcEEEEbxydS9_NS2_14adl_serializerENS5_IhNS9_IhEEEEvEEJRSB_EPSF_EEPT_SJ_DpOT0_, symObjAddr: 0x2AD28, symBinAddr: 0x10002BBE4, symSize: 0x2C }
  - { offset: 0x217BC, size: 0x8, addend: 0x0, symName: __ZNSt3__112construct_atB8ne180100IN8nlohmann16json_abi_v3_11_310basic_jsonINS_3mapENS_6vectorENS_12basic_stringIcNS_11char_traitsIcEENS_9allocatorIcEEEEbxydS9_NS2_14adl_serializerENS5_IhNS9_IhEEEEvEEJRSB_EPSF_EEPT_SJ_DpOT0_, symObjAddr: 0x2AD54, symBinAddr: 0x10002BC10, symSize: 0x34 }
  - { offset: 0x2180F, size: 0x8, addend: 0x0, symName: __ZNSt3__114__construct_atB8ne180100IN8nlohmann16json_abi_v3_11_310basic_jsonINS_3mapENS_6vectorENS_12basic_stringIcNS_11char_traitsIcEENS_9allocatorIcEEEEbxydS9_NS2_14adl_serializerENS5_IhNS9_IhEEEEvEEJRyEPSF_EEPT_SJ_DpOT0_, symObjAddr: 0x2B1B8, symBinAddr: 0x10002C074, symSize: 0x2C }
  - { offset: 0x21862, size: 0x8, addend: 0x0, symName: __ZNSt3__112construct_atB8ne180100IN8nlohmann16json_abi_v3_11_310basic_jsonINS_3mapENS_6vectorENS_12basic_stringIcNS_11char_traitsIcEENS_9allocatorIcEEEEbxydS9_NS2_14adl_serializerENS5_IhNS9_IhEEEEvEEJRyEPSF_EEPT_SJ_DpOT0_, symObjAddr: 0x2B1E4, symBinAddr: 0x10002C0A0, symSize: 0x34 }
  - { offset: 0x218B5, size: 0x8, addend: 0x0, symName: __ZNSt3__1ssB8ne180100IcNS_11char_traitsIcEENS_9allocatorIcEEEEDaRKNS_12basic_stringIT_T0_T1_EEPKS7_, symObjAddr: 0x2BB44, symBinAddr: 0x10002CA00, symSize: 0x58 }
  - { offset: 0x2190D, size: 0x8, addend: 0x0, symName: __ZNSt3__128__char_traits_length_checkedB8ne180100INS_11char_traitsIcEEEEmPKNT_9char_typeE, symObjAddr: 0x2BC14, symBinAddr: 0x10002CAD0, symSize: 0x24 }
  - { offset: 0x21944, size: 0x8, addend: 0x0, symName: __ZNSt3__1ltB8ne180100ENS_20_CmpUnspecifiedParamENS_15strong_orderingE, symObjAddr: 0x2BC88, symBinAddr: 0x10002CB44, symSize: 0x28 }
  - { offset: 0x2197A, size: 0x8, addend: 0x0, symName: __ZNSt3__14swapB8ne180100IN8nlohmann16json_abi_v3_11_36detail7value_tEEENS_9enable_ifIXaasr21is_move_constructibleIT_EE5valuesr18is_move_assignableIS6_EE5valueEvE4typeERS6_S9_, symObjAddr: 0x2BDF4, symBinAddr: 0x10002CCB0, symSize: 0x3C }
  - { offset: 0x219CB, size: 0x8, addend: 0x0, symName: __ZNSt3__14swapB8ne180100IN8nlohmann16json_abi_v3_11_310basic_jsonINS_3mapENS_6vectorENS_12basic_stringIcNS_11char_traitsIcEENS_9allocatorIcEEEEbxydS9_NS2_14adl_serializerENS5_IhNS9_IhEEEEvE10json_valueEEENS_9enable_ifIXaasr21is_move_constructibleIT_EE5valuesr18is_move_assignableISI_EE5valueEvE4typeERSI_SL_, symObjAddr: 0x2BE30, symBinAddr: 0x10002CCEC, symSize: 0x3C }
  - { offset: 0x22F95, size: 0x8, addend: 0x0, symName: __ZSt28__throw_bad_array_new_lengthB8ne180100v, symObjAddr: 0x4574, symBinAddr: 0x100005430, symSize: 0x34 }
  - { offset: 0x24829, size: 0x8, addend: 0x0, symName: __ZNSt3__16vectorIN8nlohmann16json_abi_v3_11_310basic_jsonINS_3mapES0_NS_12basic_stringIcNS_11char_traitsIcEENS_9allocatorIcEEEEbxydS8_NS2_14adl_serializerENS0_IhNS8_IhEEEEvEENS8_ISE_EEE26__swap_out_circular_bufferERNS_14__split_bufferISE_RSF_EE, symObjAddr: 0xF610, symBinAddr: 0x1000104CC, symSize: 0x110 }
  - { offset: 0x24A9F, size: 0x8, addend: 0x0, symName: __ZNSt3__16vectorIcNS_9allocatorIcEEE26__swap_out_circular_bufferERNS_14__split_bufferIcRS2_EE, symObjAddr: 0x18294, symBinAddr: 0x100019150, symSize: 0x110 }
  - { offset: 0x24E1C, size: 0x8, addend: 0x0, symName: __ZNSt3__16vectorIPN8nlohmann16json_abi_v3_11_310basic_jsonINS_3mapES0_NS_12basic_stringIcNS_11char_traitsIcEENS_9allocatorIcEEEEbxydS8_NS2_14adl_serializerENS0_IhNS8_IhEEEEvEENS8_ISF_EEE26__swap_out_circular_bufferERNS_14__split_bufferISF_RSG_EE, symObjAddr: 0x21784, symBinAddr: 0x100022640, symSize: 0x110 }
  - { offset: 0x24EFB, size: 0x8, addend: 0x0, symName: _main, symObjAddr: 0x0, symBinAddr: 0x100000EBC, symSize: 0x71C }
  - { offset: 0x24F60, size: 0x8, addend: 0x0, symName: __ZNSt3__113basic_ostreamIcNS_11char_traitsIcEEElsB8ne180100EPFRS3_S4_E, symObjAddr: 0x764, symBinAddr: 0x100001620, symSize: 0x2C }
  - { offset: 0x24F9A, size: 0x8, addend: 0x0, symName: __ZNSt3__112basic_stringIcNS_11char_traitsIcEENS_9allocatorIcEEEC1B8ne180100ILi0EEEPKc, symObjAddr: 0x7E8, symBinAddr: 0x1000016A4, symSize: 0x34 }
  - { offset: 0x250E8, size: 0x8, addend: 0x0, symName: __ZN8DatabaseC1ERKNSt3__112basic_stringIcNS0_11char_traitsIcEENS0_9allocatorIcEEEE, symObjAddr: 0x81C, symBinAddr: 0x1000016D8, symSize: 0x34 }
  - { offset: 0x252B3, size: 0x8, addend: 0x0, symName: __ZN2AV5StockC1ENSt3__112basic_stringIcNS1_11char_traitsIcEENS1_9allocatorIcEEEES7_S7_S7_, symObjAddr: 0x850, symBinAddr: 0x10000170C, symSize: 0x4C }
  - { offset: 0x25319, size: 0x8, addend: 0x0, symName: __ZN8Database13addStockTableERKN8nlohmann16json_abi_v3_11_310basic_jsonINSt3__13mapENS3_6vectorENS3_12basic_stringIcNS3_11char_traitsIcEENS3_9allocatorIcEEEEbxydS9_NS1_14adl_serializerENS5_IhNS9_IhEEEEvEESB_, symObjAddr: 0x89C, symBinAddr: 0x100001758, symSize: 0xB50 }
  - { offset: 0x25445, size: 0x8, addend: 0x0, symName: __ZN2AV5Stock13getMarketDataEv, symObjAddr: 0x13EC, symBinAddr: 0x1000022A8, symSize: 0xD44 }
  - { offset: 0x254F6, size: 0x8, addend: 0x0, symName: __ZN8nlohmann16json_abi_v3_11_310basic_jsonINSt3__13mapENS2_6vectorENS2_12basic_stringIcNS2_11char_traitsIcEENS2_9allocatorIcEEEEbxydS8_NS0_14adl_serializerENS4_IhNS8_IhEEEEvED1Ev, symObjAddr: 0x2130, symBinAddr: 0x100002FEC, symSize: 0x2C }
  - { offset: 0x25520, size: 0x8, addend: 0x0, symName: __ZN2AV5StockD1Ev, symObjAddr: 0x215C, symBinAddr: 0x100003018, symSize: 0x2C }
  - { offset: 0x2554A, size: 0x8, addend: 0x0, symName: __ZN8DatabaseD1Ev, symObjAddr: 0x2188, symBinAddr: 0x100003044, symSize: 0x2C }
  - { offset: 0x25574, size: 0x8, addend: 0x0, symName: __ZNSt3__112basic_stringIcNS_11char_traitsIcEENS_9allocatorIcEEEC2B8ne180100ILi0EEEPKc, symObjAddr: 0x21B4, symBinAddr: 0x100003070, symSize: 0x58 }
  - { offset: 0x255B9, size: 0x8, addend: 0x0, symName: __ZNSt3__117__compressed_pairINS_12basic_stringIcNS_11char_traitsIcEENS_9allocatorIcEEE5__repES5_EC1B8ne180100INS_18__default_init_tagESA_EEOT_OT0_, symObjAddr: 0x220C, symBinAddr: 0x1000030C8, symSize: 0x3C }
  - { offset: 0x25611, size: 0x8, addend: 0x0, symName: __ZNSt3__111char_traitsIcE6lengthB8ne180100EPKc, symObjAddr: 0x2248, symBinAddr: 0x100003104, symSize: 0x34 }
  - { offset: 0x25634, size: 0x8, addend: 0x0, symName: __ZNSt3__117__compressed_pairINS_12basic_stringIcNS_11char_traitsIcEENS_9allocatorIcEEE5__repES5_EC2B8ne180100INS_18__default_init_tagESA_EEOT_OT0_, symObjAddr: 0x227C, symBinAddr: 0x100003138, symSize: 0x3C }
  - { offset: 0x2568C, size: 0x8, addend: 0x0, symName: __ZNSt3__122__compressed_pair_elemINS_12basic_stringIcNS_11char_traitsIcEENS_9allocatorIcEEE5__repELi0ELb0EEC2B8ne180100ENS_18__default_init_tagE, symObjAddr: 0x22B8, symBinAddr: 0x100003174, symSize: 0x14 }
  - { offset: 0x256C0, size: 0x8, addend: 0x0, symName: __ZNSt3__122__compressed_pair_elemINS_9allocatorIcEELi1ELb1EEC2B8ne180100ENS_18__default_init_tagE, symObjAddr: 0x22CC, symBinAddr: 0x100003188, symSize: 0x2C }
  - { offset: 0x256F4, size: 0x8, addend: 0x0, symName: __ZNSt3__19allocatorIcEC2B8ne180100Ev, symObjAddr: 0x22F8, symBinAddr: 0x1000031B4, symSize: 0x2C }
  - { offset: 0x2571E, size: 0x8, addend: 0x0, symName: __ZNSt3__116__non_trivial_ifILb1ENS_9allocatorIcEEEC2B8ne180100Ev, symObjAddr: 0x2324, symBinAddr: 0x1000031E0, symSize: 0x14 }
  - { offset: 0x25748, size: 0x8, addend: 0x0, symName: __ZN8DatabaseC2ERKNSt3__112basic_stringIcNS0_11char_traitsIcEENS0_9allocatorIcEEEE, symObjAddr: 0x236C, symBinAddr: 0x100003228, symSize: 0x1EC }
  - { offset: 0x257BF, size: 0x8, addend: 0x0, symName: __ZNKSt3__112basic_stringIcNS_11char_traitsIcEENS_9allocatorIcEEE5c_strB8ne180100Ev, symObjAddr: 0x2558, symBinAddr: 0x100003414, symSize: 0x24 }
  - { offset: 0x257E5, size: 0x8, addend: 0x0, symName: __ZN8Database19initializeTimeTableEv, symObjAddr: 0x25C8, symBinAddr: 0x100003484, symSize: 0x150 }
  - { offset: 0x25827, size: 0x8, addend: 0x0, symName: __ZN8Database20initializeStockTableEv, symObjAddr: 0x2718, symBinAddr: 0x1000035D4, symSize: 0x150 }
  - { offset: 0x25869, size: 0x8, addend: 0x0, symName: __ZN8Database24initializeStockNameTableEv, symObjAddr: 0x2868, symBinAddr: 0x100003724, symSize: 0x150 }
  - { offset: 0x258AB, size: 0x8, addend: 0x0, symName: __ZNKSt3__112basic_stringIcNS_11char_traitsIcEENS_9allocatorIcEEE4dataB8ne180100Ev, symObjAddr: 0x29B8, symBinAddr: 0x100003874, symSize: 0x28 }
  - { offset: 0x258D1, size: 0x8, addend: 0x0, symName: __ZNKSt3__112basic_stringIcNS_11char_traitsIcEENS_9allocatorIcEEE13__get_pointerB8ne180100Ev, symObjAddr: 0x29F4, symBinAddr: 0x1000038B0, symSize: 0x54 }
  - { offset: 0x258F7, size: 0x8, addend: 0x0, symName: __ZNKSt3__112basic_stringIcNS_11char_traitsIcEENS_9allocatorIcEEE9__is_longB8ne180100Ev, symObjAddr: 0x2A48, symBinAddr: 0x100003904, symSize: 0x38 }
  - { offset: 0x2591D, size: 0x8, addend: 0x0, symName: __ZNKSt3__112basic_stringIcNS_11char_traitsIcEENS_9allocatorIcEEE18__get_long_pointerB8ne180100Ev, symObjAddr: 0x2A80, symBinAddr: 0x10000393C, symSize: 0x28 }
  - { offset: 0x25943, size: 0x8, addend: 0x0, symName: __ZNKSt3__112basic_stringIcNS_11char_traitsIcEENS_9allocatorIcEEE19__get_short_pointerB8ne180100Ev, symObjAddr: 0x2AA8, symBinAddr: 0x100003964, symSize: 0x28 }
  - { offset: 0x25969, size: 0x8, addend: 0x0, symName: __ZNKSt3__117__compressed_pairINS_12basic_stringIcNS_11char_traitsIcEENS_9allocatorIcEEE5__repES5_E5firstB8ne180100Ev, symObjAddr: 0x2AD0, symBinAddr: 0x10000398C, symSize: 0x24 }
  - { offset: 0x2598F, size: 0x8, addend: 0x0, symName: __ZNKSt3__122__compressed_pair_elemINS_12basic_stringIcNS_11char_traitsIcEENS_9allocatorIcEEE5__repELi0ELb0EE5__getB8ne180100Ev, symObjAddr: 0x2AF4, symBinAddr: 0x1000039B0, symSize: 0x14 }
  - { offset: 0x259B5, size: 0x8, addend: 0x0, symName: __ZNSt3__114pointer_traitsIPKcE10pointer_toB8ne180100ERS1_, symObjAddr: 0x2B08, symBinAddr: 0x1000039C4, symSize: 0x14 }
  - { offset: 0x259D8, size: 0x8, addend: 0x0, symName: __ZNKSt3__112basic_stringIcNS_11char_traitsIcEENS_9allocatorIcEEE4sizeB8ne180100Ev, symObjAddr: 0x2D08, symBinAddr: 0x100003BC4, symSize: 0x54 }
  - { offset: 0x25A1B, size: 0x8, addend: 0x0, symName: __ZNKSt3__113basic_ostreamIcNS_11char_traitsIcEEE6sentrycvbB8ne180100Ev, symObjAddr: 0x2D5C, symBinAddr: 0x100003C18, symSize: 0x1C }
  - { offset: 0x25A41, size: 0x8, addend: 0x0, symName: __ZNSt3__119ostreambuf_iteratorIcNS_11char_traitsIcEEEC1B8ne180100ERNS_13basic_ostreamIcS2_EE, symObjAddr: 0x2FB8, symBinAddr: 0x100003E74, symSize: 0x34 }
  - { offset: 0x25A79, size: 0x8, addend: 0x0, symName: __ZNKSt3__18ios_base5flagsB8ne180100Ev, symObjAddr: 0x2FEC, symBinAddr: 0x100003EA8, symSize: 0x18 }
  - { offset: 0x25AA1, size: 0x8, addend: 0x0, symName: __ZNKSt3__19basic_iosIcNS_11char_traitsIcEEE4fillB8ne180100Ev, symObjAddr: 0x3004, symBinAddr: 0x100003EC0, symSize: 0x64 }
  - { offset: 0x25AC9, size: 0x8, addend: 0x0, symName: __ZNKSt3__119ostreambuf_iteratorIcNS_11char_traitsIcEEE6failedB8ne180100Ev, symObjAddr: 0x3068, symBinAddr: 0x100003F24, symSize: 0x24 }
  - { offset: 0x25AEF, size: 0x8, addend: 0x0, symName: __ZNSt3__19basic_iosIcNS_11char_traitsIcEEE8setstateB8ne180100Ej, symObjAddr: 0x308C, symBinAddr: 0x100003F48, symSize: 0x2C }
  - { offset: 0x25B24, size: 0x8, addend: 0x0, symName: __ZNKSt3__18ios_base5widthB8ne180100Ev, symObjAddr: 0x30B8, symBinAddr: 0x100003F74, symSize: 0x18 }
  - { offset: 0x25B4C, size: 0x8, addend: 0x0, symName: __ZNSt3__115basic_streambufIcNS_11char_traitsIcEEE5sputnB8ne180100EPKcl, symObjAddr: 0x30D0, symBinAddr: 0x100003F8C, symSize: 0x3C }
  - { offset: 0x25B8E, size: 0x8, addend: 0x0, symName: __ZNSt3__112basic_stringIcNS_11char_traitsIcEENS_9allocatorIcEEEC1B8ne180100Emc, symObjAddr: 0x310C, symBinAddr: 0x100003FC8, symSize: 0x3C }
  - { offset: 0x25BD6, size: 0x8, addend: 0x0, symName: __ZNSt3__112basic_stringIcNS_11char_traitsIcEENS_9allocatorIcEEE4dataB8ne180100Ev, symObjAddr: 0x3148, symBinAddr: 0x100004004, symSize: 0x28 }
  - { offset: 0x25BFC, size: 0x8, addend: 0x0, symName: __ZNSt3__18ios_base5widthB8ne180100El, symObjAddr: 0x3170, symBinAddr: 0x10000402C, symSize: 0x2C }
  - { offset: 0x25C42, size: 0x8, addend: 0x0, symName: __ZNSt3__112basic_stringIcNS_11char_traitsIcEENS_9allocatorIcEEEC2B8ne180100Emc, symObjAddr: 0x319C, symBinAddr: 0x100004058, symSize: 0x4C }
  - { offset: 0x25C8A, size: 0x8, addend: 0x0, symName: __ZNSt3__112basic_stringIcNS_11char_traitsIcEENS_9allocatorIcEEE13__get_pointerB8ne180100Ev, symObjAddr: 0x31FC, symBinAddr: 0x1000040B8, symSize: 0x54 }
  - { offset: 0x25CB0, size: 0x8, addend: 0x0, symName: __ZNSt3__112basic_stringIcNS_11char_traitsIcEENS_9allocatorIcEEE18__get_long_pointerB8ne180100Ev, symObjAddr: 0x3250, symBinAddr: 0x10000410C, symSize: 0x28 }
  - { offset: 0x25CD6, size: 0x8, addend: 0x0, symName: __ZNSt3__112basic_stringIcNS_11char_traitsIcEENS_9allocatorIcEEE19__get_short_pointerB8ne180100Ev, symObjAddr: 0x3278, symBinAddr: 0x100004134, symSize: 0x28 }
  - { offset: 0x25CFC, size: 0x8, addend: 0x0, symName: __ZNSt3__117__compressed_pairINS_12basic_stringIcNS_11char_traitsIcEENS_9allocatorIcEEE5__repES5_E5firstB8ne180100Ev, symObjAddr: 0x32A0, symBinAddr: 0x10000415C, symSize: 0x24 }
  - { offset: 0x25D22, size: 0x8, addend: 0x0, symName: __ZNSt3__122__compressed_pair_elemINS_12basic_stringIcNS_11char_traitsIcEENS_9allocatorIcEEE5__repELi0ELb0EE5__getB8ne180100Ev, symObjAddr: 0x32C4, symBinAddr: 0x100004180, symSize: 0x14 }
  - { offset: 0x25D48, size: 0x8, addend: 0x0, symName: __ZNSt3__114pointer_traitsIPcE10pointer_toB8ne180100ERc, symObjAddr: 0x32D8, symBinAddr: 0x100004194, symSize: 0x14 }
  - { offset: 0x25D6B, size: 0x8, addend: 0x0, symName: __ZNSt3__119ostreambuf_iteratorIcNS_11char_traitsIcEEEC2B8ne180100ERNS_13basic_ostreamIcS2_EE, symObjAddr: 0x32EC, symBinAddr: 0x1000041A8, symSize: 0x54 }
  - { offset: 0x25DA3, size: 0x8, addend: 0x0, symName: __ZNKSt3__19basic_iosIcNS_11char_traitsIcEEE5rdbufB8ne180100Ev, symObjAddr: 0x3340, symBinAddr: 0x1000041FC, symSize: 0x24 }
  - { offset: 0x25DCB, size: 0x8, addend: 0x0, symName: __ZNKSt3__18ios_base5rdbufB8ne180100Ev, symObjAddr: 0x3364, symBinAddr: 0x100004220, symSize: 0x18 }
  - { offset: 0x25DF1, size: 0x8, addend: 0x0, symName: __ZNSt3__111char_traitsIcE11eq_int_typeB8ne180100Eii, symObjAddr: 0x337C, symBinAddr: 0x100004238, symSize: 0x28 }
  - { offset: 0x25E24, size: 0x8, addend: 0x0, symName: __ZNSt3__111char_traitsIcE3eofB8ne180100Ev, symObjAddr: 0x33A4, symBinAddr: 0x100004260, symSize: 0x8 }
  - { offset: 0x25E38, size: 0x8, addend: 0x0, symName: __ZNKSt3__19basic_iosIcNS_11char_traitsIcEEE5widenB8ne180100Ec, symObjAddr: 0x33AC, symBinAddr: 0x100004268, symSize: 0x84 }
  - { offset: 0x25EB3, size: 0x8, addend: 0x0, symName: __ZNKSt3__15ctypeIcE5widenB8ne180100Ec, symObjAddr: 0x345C, symBinAddr: 0x100004318, symSize: 0x38 }
  - { offset: 0x25EE8, size: 0x8, addend: 0x0, symName: __ZNSt3__18ios_base8setstateB8ne180100Ej, symObjAddr: 0x3494, symBinAddr: 0x100004350, symSize: 0x34 }
  - { offset: 0x25F1F, size: 0x8, addend: 0x0, symName: __ZNKSt3__112basic_stringIcNS_11char_traitsIcEENS_9allocatorIcEEE15__get_long_sizeB8ne180100Ev, symObjAddr: 0x34C8, symBinAddr: 0x100004384, symSize: 0x28 }
  - { offset: 0x25F45, size: 0x8, addend: 0x0, symName: __ZNKSt3__112basic_stringIcNS_11char_traitsIcEENS_9allocatorIcEEE16__get_short_sizeB8ne180100Ev, symObjAddr: 0x34F0, symBinAddr: 0x1000043AC, symSize: 0x34 }
  - { offset: 0x25F6B, size: 0x8, addend: 0x0, symName: __ZN2AV5StockC2ENSt3__112basic_stringIcNS1_11char_traitsIcEENS1_9allocatorIcEEEES7_S7_S7_, symObjAddr: 0x3524, symBinAddr: 0x1000043E0, symSize: 0x418 }
  - { offset: 0x25FD1, size: 0x8, addend: 0x0, symName: __ZNSt3__112basic_stringIcNS_11char_traitsIcEENS_9allocatorIcEEEC1B8ne180100Ev, symObjAddr: 0x393C, symBinAddr: 0x1000047F8, symSize: 0x2C }
  - { offset: 0x25FFB, size: 0x8, addend: 0x0, symName: __ZNSt3__112basic_stringIcNS_11char_traitsIcEENS_9allocatorIcEEEpLB8ne180100ERKS5_, symObjAddr: 0x3968, symBinAddr: 0x100004824, symSize: 0x2C }
  - { offset: 0x26030, size: 0x8, addend: 0x0, symName: __ZNSt3__112basic_stringIcNS_11char_traitsIcEENS_9allocatorIcEEEaSB8ne180100EOS5_, symObjAddr: 0x3B08, symBinAddr: 0x1000049C4, symSize: 0x34 }
  - { offset: 0x26065, size: 0x8, addend: 0x0, symName: __ZNSt3__112basic_stringIcNS_11char_traitsIcEENS_9allocatorIcEEEC2B8ne180100Ev, symObjAddr: 0x3B3C, symBinAddr: 0x1000049F8, symSize: 0x48 }
  - { offset: 0x26095, size: 0x8, addend: 0x0, symName: __ZNSt3__117__compressed_pairINS_12basic_stringIcNS_11char_traitsIcEENS_9allocatorIcEEE5__repES5_EC1B8ne180100INS_16__value_init_tagENS_18__default_init_tagEEEOT_OT0_, symObjAddr: 0x3B84, symBinAddr: 0x100004A40, symSize: 0x3C }
  - { offset: 0x260ED, size: 0x8, addend: 0x0, symName: __ZNKSt3__112basic_stringIcNS_11char_traitsIcEENS_9allocatorIcEEE14__annotate_newB8ne180100Em, symObjAddr: 0x3BC0, symBinAddr: 0x100004A7C, symSize: 0x14 }
  - { offset: 0x26122, size: 0x8, addend: 0x0, symName: __ZNSt3__117__compressed_pairINS_12basic_stringIcNS_11char_traitsIcEENS_9allocatorIcEEE5__repES5_EC2B8ne180100INS_16__value_init_tagENS_18__default_init_tagEEEOT_OT0_, symObjAddr: 0x3BD4, symBinAddr: 0x100004A90, symSize: 0x3C }
  - { offset: 0x2617A, size: 0x8, addend: 0x0, symName: __ZNSt3__122__compressed_pair_elemINS_12basic_stringIcNS_11char_traitsIcEENS_9allocatorIcEEE5__repELi0ELb0EEC2B8ne180100ENS_16__value_init_tagE, symObjAddr: 0x3C10, symBinAddr: 0x100004ACC, symSize: 0x20 }
  - { offset: 0x261AE, size: 0x8, addend: 0x0, symName: __ZNSt3__112basic_stringIcNS_11char_traitsIcEENS_9allocatorIcEEE6appendB8ne180100ERKS5_, symObjAddr: 0x3C30, symBinAddr: 0x100004AEC, symSize: 0x4C }
  - { offset: 0x261E3, size: 0x8, addend: 0x0, symName: __ZNSt3__112basic_stringIcNS_11char_traitsIcEENS_9allocatorIcEEEC1B8ne180100EOS5_, symObjAddr: 0x3C7C, symBinAddr: 0x100004B38, symSize: 0x34 }
  - { offset: 0x2621C, size: 0x8, addend: 0x0, symName: __ZNSt3__112basic_stringIcNS_11char_traitsIcEENS_9allocatorIcEEEC2B8ne180100EOS5_, symObjAddr: 0x3CB0, symBinAddr: 0x100004B6C, symSize: 0xB8 }
  - { offset: 0x26287, size: 0x8, addend: 0x0, symName: __ZZNSt3__112basic_stringIcNS_11char_traitsIcEENS_9allocatorIcEEEC1B8ne180100EOS5_ENKUlRS5_E_clES7_, symObjAddr: 0x3D68, symBinAddr: 0x100004C24, symSize: 0x40 }
  - { offset: 0x262C0, size: 0x8, addend: 0x0, symName: __ZNKSt3__112basic_stringIcNS_11char_traitsIcEENS_9allocatorIcEEE17__annotate_deleteB8ne180100Ev, symObjAddr: 0x3DA8, symBinAddr: 0x100004C64, symSize: 0x10 }
  - { offset: 0x262F1, size: 0x8, addend: 0x0, symName: __ZNSt3__116allocator_traitsINS_9allocatorIcEEE37select_on_container_copy_constructionB8ne180100IS2_vvEES2_RKS2_, symObjAddr: 0x3DB8, symBinAddr: 0x100004C74, symSize: 0x10 }
  - { offset: 0x26320, size: 0x8, addend: 0x0, symName: __ZNKSt3__112basic_stringIcNS_11char_traitsIcEENS_9allocatorIcEEE13get_allocatorB8ne180100Ev, symObjAddr: 0x3DC8, symBinAddr: 0x100004C84, symSize: 0x24 }
  - { offset: 0x26346, size: 0x8, addend: 0x0, symName: __ZNSt3__112basic_stringIcNS_11char_traitsIcEENS_9allocatorIcEEEC1B8ne180100ENS_24__uninitialized_size_tagEmRKS4_, symObjAddr: 0x3DEC, symBinAddr: 0x100004CA8, symSize: 0x3C }
  - { offset: 0x2639A, size: 0x8, addend: 0x0, symName: __ZNSt3__111char_traitsIcE4copyB8ne180100EPcPKcm, symObjAddr: 0x3E28, symBinAddr: 0x100004CE4, symSize: 0x40 }
  - { offset: 0x263D9, size: 0x8, addend: 0x0, symName: __ZNSt3__111char_traitsIcE6assignB8ne180100EPcmc, symObjAddr: 0x3E68, symBinAddr: 0x100004D24, symSize: 0x44 }
  - { offset: 0x26418, size: 0x8, addend: 0x0, symName: __ZNKSt3__112basic_stringIcNS_11char_traitsIcEENS_9allocatorIcEEE7__allocB8ne180100Ev, symObjAddr: 0x3EAC, symBinAddr: 0x100004D68, symSize: 0x24 }
  - { offset: 0x2643E, size: 0x8, addend: 0x0, symName: __ZNKSt3__117__compressed_pairINS_12basic_stringIcNS_11char_traitsIcEENS_9allocatorIcEEE5__repES5_E6secondB8ne180100Ev, symObjAddr: 0x3ED0, symBinAddr: 0x100004D8C, symSize: 0x24 }
  - { offset: 0x26464, size: 0x8, addend: 0x0, symName: __ZNKSt3__122__compressed_pair_elemINS_9allocatorIcEELi1ELb1EE5__getB8ne180100Ev, symObjAddr: 0x3EF4, symBinAddr: 0x100004DB0, symSize: 0x14 }
  - { offset: 0x2648A, size: 0x8, addend: 0x0, symName: __ZNSt3__112basic_stringIcNS_11char_traitsIcEENS_9allocatorIcEEEC2B8ne180100ENS_24__uninitialized_size_tagEmRKS4_, symObjAddr: 0x3F08, symBinAddr: 0x100004DC4, symSize: 0x11C }
  - { offset: 0x2650B, size: 0x8, addend: 0x0, symName: __ZNSt3__117__compressed_pairINS_12basic_stringIcNS_11char_traitsIcEENS_9allocatorIcEEE5__repES5_EC1B8ne180100INS_18__default_init_tagERKS5_EEOT_OT0_, symObjAddr: 0x4024, symBinAddr: 0x100004EE0, symSize: 0x3C }
  - { offset: 0x26563, size: 0x8, addend: 0x0, symName: __ZNKSt3__112basic_stringIcNS_11char_traitsIcEENS_9allocatorIcEEE8max_sizeB8ne180100Ev, symObjAddr: 0x4060, symBinAddr: 0x100004F1C, symSize: 0xAC }
  - { offset: 0x265B6, size: 0x8, addend: 0x0, symName: __ZNKSt3__112basic_stringIcNS_11char_traitsIcEENS_9allocatorIcEEE20__throw_length_errorB8ne180100Ev, symObjAddr: 0x410C, symBinAddr: 0x100004FC8, symSize: 0x1C }
  - { offset: 0x265DC, size: 0x8, addend: 0x0, symName: __ZNSt3__112basic_stringIcNS_11char_traitsIcEENS_9allocatorIcEEE13__fits_in_ssoB8ne180100Em, symObjAddr: 0x4128, symBinAddr: 0x100004FE4, symSize: 0x20 }
  - { offset: 0x26600, size: 0x8, addend: 0x0, symName: __ZNSt3__112basic_stringIcNS_11char_traitsIcEENS_9allocatorIcEEE16__set_short_sizeB8ne180100Em, symObjAddr: 0x4148, symBinAddr: 0x100005004, symSize: 0x78 }
  - { offset: 0x26635, size: 0x8, addend: 0x0, symName: __ZNSt3__112basic_stringIcNS_11char_traitsIcEENS_9allocatorIcEEE11__recommendB8ne180100Em, symObjAddr: 0x41C0, symBinAddr: 0x10000507C, symSize: 0x84 }
  - { offset: 0x26668, size: 0x8, addend: 0x0, symName: __ZNSt3__116allocator_traitsINS_9allocatorIcEEE8allocateB8ne180100ERS2_m, symObjAddr: 0x4244, symBinAddr: 0x100005100, symSize: 0x2C }
  - { offset: 0x2669B, size: 0x8, addend: 0x0, symName: __ZNSt3__112basic_stringIcNS_11char_traitsIcEENS_9allocatorIcEEE7__allocB8ne180100Ev, symObjAddr: 0x4270, symBinAddr: 0x10000512C, symSize: 0x24 }
  - { offset: 0x266C1, size: 0x8, addend: 0x0, symName: __ZNSt3__112basic_stringIcNS_11char_traitsIcEENS_9allocatorIcEEE16__begin_lifetimeB8ne180100EPcm, symObjAddr: 0x4294, symBinAddr: 0x100005150, symSize: 0x14 }
  - { offset: 0x266F4, size: 0x8, addend: 0x0, symName: __ZNSt3__112basic_stringIcNS_11char_traitsIcEENS_9allocatorIcEEE14__set_long_capB8ne180100Em, symObjAddr: 0x42A8, symBinAddr: 0x100005164, symSize: 0x70 }
  - { offset: 0x26729, size: 0x8, addend: 0x0, symName: __ZNSt3__112basic_stringIcNS_11char_traitsIcEENS_9allocatorIcEEE18__set_long_pointerB8ne180100EPc, symObjAddr: 0x4318, symBinAddr: 0x1000051D4, symSize: 0x38 }
  - { offset: 0x2675E, size: 0x8, addend: 0x0, symName: __ZNSt3__112basic_stringIcNS_11char_traitsIcEENS_9allocatorIcEEE15__set_long_sizeB8ne180100Em, symObjAddr: 0x4350, symBinAddr: 0x10000520C, symSize: 0x38 }
  - { offset: 0x26793, size: 0x8, addend: 0x0, symName: __ZNSt3__117__compressed_pairINS_12basic_stringIcNS_11char_traitsIcEENS_9allocatorIcEEE5__repES5_EC2B8ne180100INS_18__default_init_tagERKS5_EEOT_OT0_, symObjAddr: 0x4388, symBinAddr: 0x100005244, symSize: 0x40 }
  - { offset: 0x267EB, size: 0x8, addend: 0x0, symName: __ZNSt3__122__compressed_pair_elemINS_9allocatorIcEELi1ELb1EEC2B8ne180100IRKS2_vEEOT_, symObjAddr: 0x43C8, symBinAddr: 0x100005284, symSize: 0x18 }
  - { offset: 0x2682D, size: 0x8, addend: 0x0, symName: __ZNSt3__116allocator_traitsINS_9allocatorIcEEE8max_sizeB8ne180100IS2_vvEEmRKS2_, symObjAddr: 0x43E0, symBinAddr: 0x10000529C, symSize: 0x28 }
  - { offset: 0x26859, size: 0x8, addend: 0x0, symName: __ZNSt3__114numeric_limitsImE3maxB8ne180100Ev, symObjAddr: 0x4408, symBinAddr: 0x1000052C4, symSize: 0x14 }
  - { offset: 0x2686D, size: 0x8, addend: 0x0, symName: __ZNSt3__123__libcpp_numeric_limitsImLb1EE3maxB8ne180100Ev, symObjAddr: 0x441C, symBinAddr: 0x1000052D8, symSize: 0x8 }
  - { offset: 0x26881, size: 0x8, addend: 0x0, symName: __ZNSt12length_errorC1B8ne180100EPKc, symObjAddr: 0x4488, symBinAddr: 0x100005344, symSize: 0x34 }
  - { offset: 0x268B9, size: 0x8, addend: 0x0, symName: __ZNSt12length_errorC2B8ne180100EPKc, symObjAddr: 0x44BC, symBinAddr: 0x100005378, symSize: 0x44 }
  - { offset: 0x268F1, size: 0x8, addend: 0x0, symName: __ZNSt3__112basic_stringIcNS_11char_traitsIcEENS_9allocatorIcEEE10__align_itB8ne180100ILm8EEEmm, symObjAddr: 0x4500, symBinAddr: 0x1000053BC, symSize: 0x1C }
  - { offset: 0x2691F, size: 0x8, addend: 0x0, symName: __ZNSt3__19allocatorIcE8allocateB8ne180100Em, symObjAddr: 0x451C, symBinAddr: 0x1000053D8, symSize: 0x58 }
  - { offset: 0x26953, size: 0x8, addend: 0x0, symName: __ZNSt3__117__compressed_pairINS_12basic_stringIcNS_11char_traitsIcEENS_9allocatorIcEEE5__repES5_E6secondB8ne180100Ev, symObjAddr: 0x4678, symBinAddr: 0x100005534, symSize: 0x24 }
  - { offset: 0x26979, size: 0x8, addend: 0x0, symName: __ZNSt3__122__compressed_pair_elemINS_9allocatorIcEELi1ELb1EE5__getB8ne180100Ev, symObjAddr: 0x469C, symBinAddr: 0x100005558, symSize: 0x14 }
  - { offset: 0x269C7, size: 0x8, addend: 0x0, symName: __ZNKSt3__114__copy_trivialclB8ne180100IKccLi0EEENS_4pairIPT_PT0_EES5_S5_S7_, symObjAddr: 0x48AC, symBinAddr: 0x100005768, symSize: 0x48 }
  - { offset: 0x26A4C, size: 0x8, addend: 0x0, symName: __ZNSt3__119__unwrap_range_implIPKcS2_E8__unwrapB8ne180100ES2_S2_, symObjAddr: 0x49B8, symBinAddr: 0x100005874, symSize: 0x58 }
  - { offset: 0x26A83, size: 0x8, addend: 0x0, symName: __ZNSt3__14pairIPKcS2_EC1B8ne180100IS2_S2_Li0EEEOT_OT0_, symObjAddr: 0x4A34, symBinAddr: 0x1000058F0, symSize: 0x3C }
  - { offset: 0x26AE1, size: 0x8, addend: 0x0, symName: __ZNSt3__118__unwrap_iter_implIPKcLb1EE8__unwrapB8ne180100ES2_, symObjAddr: 0x4A70, symBinAddr: 0x10000592C, symSize: 0x24 }
  - { offset: 0x26B04, size: 0x8, addend: 0x0, symName: __ZNSt3__14pairIPKcS2_EC2B8ne180100IS2_S2_Li0EEEOT_OT0_, symObjAddr: 0x4A94, symBinAddr: 0x100005950, symSize: 0x34 }
  - { offset: 0x26B6E, size: 0x8, addend: 0x0, symName: __ZNSt3__14pairIPKcPcEC1B8ne180100IRS2_S3_Li0EEEOT_OT0_, symObjAddr: 0x4BDC, symBinAddr: 0x100005A98, symSize: 0x3C }
  - { offset: 0x26BCC, size: 0x8, addend: 0x0, symName: __ZNSt3__14pairIPKcPcEC2B8ne180100IRS2_S3_Li0EEEOT_OT0_, symObjAddr: 0x4C18, symBinAddr: 0x100005AD4, symSize: 0x34 }
  - { offset: 0x26C2A, size: 0x8, addend: 0x0, symName: __ZNSt3__118__unwrap_iter_implIPcLb1EE8__unwrapB8ne180100ES1_, symObjAddr: 0x4C4C, symBinAddr: 0x100005B08, symSize: 0x24 }
  - { offset: 0x26C4D, size: 0x8, addend: 0x0, symName: __ZNSt3__14pairIPKcPcEC1B8ne180100IS2_S3_Li0EEEOT_OT0_, symObjAddr: 0x4C70, symBinAddr: 0x100005B2C, symSize: 0x3C }
  - { offset: 0x26CAB, size: 0x8, addend: 0x0, symName: __ZNSt3__14pairIPKcPcEC2B8ne180100IS2_S3_Li0EEEOT_OT0_, symObjAddr: 0x4CAC, symBinAddr: 0x100005B68, symSize: 0x34 }
  - { offset: 0x26D09, size: 0x8, addend: 0x0, symName: __ZNSt3__119__unwrap_range_implIPKcS2_E8__rewrapB8ne180100ES2_S2_, symObjAddr: 0x4CE0, symBinAddr: 0x100005B9C, symSize: 0x2C }
  - { offset: 0x26D3A, size: 0x8, addend: 0x0, symName: __ZNSt3__118__unwrap_iter_implIPKcLb1EE8__rewrapB8ne180100ES2_S2_, symObjAddr: 0x4D48, symBinAddr: 0x100005C04, symSize: 0x48 }
  - { offset: 0x26D6B, size: 0x8, addend: 0x0, symName: __ZNSt3__118__unwrap_iter_implIPcLb1EE8__rewrapB8ne180100ES1_S1_, symObjAddr: 0x4D90, symBinAddr: 0x100005C4C, symSize: 0x48 }
  - { offset: 0x26D9C, size: 0x8, addend: 0x0, symName: __ZNSt3__112basic_stringIcNS_11char_traitsIcEENS_9allocatorIcEEE13__move_assignB8ne180100ERS5_NS_17integral_constantIbLb1EEE, symObjAddr: 0x4E94, symBinAddr: 0x100005D50, symSize: 0x17C }
  - { offset: 0x26DFD, size: 0x8, addend: 0x0, symName: __ZNSt3__116allocator_traitsINS_9allocatorIcEEE10deallocateB8ne180100ERS2_Pcm, symObjAddr: 0x5010, symBinAddr: 0x100005ECC, symSize: 0x34 }
  - { offset: 0x26E3F, size: 0x8, addend: 0x0, symName: __ZNKSt3__112basic_stringIcNS_11char_traitsIcEENS_9allocatorIcEEE14__get_long_capB8ne180100Ev, symObjAddr: 0x5044, symBinAddr: 0x100005F00, symSize: 0x30 }
  - { offset: 0x26E65, size: 0x8, addend: 0x0, symName: __ZNSt3__112basic_stringIcNS_11char_traitsIcEENS_9allocatorIcEEE19__move_assign_allocB8ne180100ERS5_, symObjAddr: 0x5074, symBinAddr: 0x100005F30, symSize: 0x2C }
  - { offset: 0x26E9A, size: 0x8, addend: 0x0, symName: __ZNSt3__111char_traitsIcE6assignB8ne180100ERcRKc, symObjAddr: 0x50A0, symBinAddr: 0x100005F5C, symSize: 0x24 }
  - { offset: 0x26ECB, size: 0x8, addend: 0x0, symName: __ZNKSt3__112basic_stringIcNS_11char_traitsIcEENS_9allocatorIcEEE17__annotate_shrinkB8ne180100Em, symObjAddr: 0x50C4, symBinAddr: 0x100005F80, symSize: 0x14 }
  - { offset: 0x26F00, size: 0x8, addend: 0x0, symName: __ZNSt3__19allocatorIcE10deallocateB8ne180100EPcm, symObjAddr: 0x50D8, symBinAddr: 0x100005F94, symSize: 0x40 }
  - { offset: 0x26F42, size: 0x8, addend: 0x0, symName: __ZNSt3__112basic_stringIcNS_11char_traitsIcEENS_9allocatorIcEEE19__move_assign_allocB8ne180100ERS5_NS_17integral_constantIbLb1EEE, symObjAddr: 0x5220, symBinAddr: 0x1000060DC, symSize: 0x38 }
  - { offset: 0x26F83, size: 0x8, addend: 0x0, symName: __ZN8Database12getIdByFieldENSt3__112basic_stringIcNS0_11char_traitsIcEENS0_9allocatorIcEEEES6_S6_, symObjAddr: 0x5258, symBinAddr: 0x100006114, symSize: 0x2A0 }
  - { offset: 0x27002, size: 0x8, addend: 0x0, symName: __ZNK8nlohmann16json_abi_v3_11_310basic_jsonINSt3__13mapENS2_6vectorENS2_12basic_stringIcNS2_11char_traitsIcEENS2_9allocatorIcEEEEbxydS8_NS0_14adl_serializerENS4_IhNS8_IhEEEEvE5itemsEv, symObjAddr: 0x54F8, symBinAddr: 0x1000063B4, symSize: 0x2C }
  - { offset: 0x27028, size: 0x8, addend: 0x0, symName: __ZNK8nlohmann16json_abi_v3_11_36detail15iteration_proxyINS1_9iter_implIKNS0_10basic_jsonINSt3__13mapENS5_6vectorENS5_12basic_stringIcNS5_11char_traitsIcEENS5_9allocatorIcEEEEbxydSB_NS0_14adl_serializerENS7_IhNSB_IhEEEEvEEEEE5beginEv, symObjAddr: 0x5524, symBinAddr: 0x1000063E0, symSize: 0x48 }
  - { offset: 0x2704E, size: 0x8, addend: 0x0, symName: __ZNK8nlohmann16json_abi_v3_11_36detail15iteration_proxyINS1_9iter_implIKNS0_10basic_jsonINSt3__13mapENS5_6vectorENS5_12basic_stringIcNS5_11char_traitsIcEENS5_9allocatorIcEEEEbxydSB_NS0_14adl_serializerENS7_IhNSB_IhEEEEvEEEEE3endEv, symObjAddr: 0x556C, symBinAddr: 0x100006428, symSize: 0x48 }
  - { offset: 0x27074, size: 0x8, addend: 0x0, symName: __ZNK8nlohmann16json_abi_v3_11_36detail21iteration_proxy_valueINS1_9iter_implIKNS0_10basic_jsonINSt3__13mapENS5_6vectorENS5_12basic_stringIcNS5_11char_traitsIcEENS5_9allocatorIcEEEEbxydSB_NS0_14adl_serializerENS7_IhNSB_IhEEEEvEEEEEneERKSK_, symObjAddr: 0x55B4, symBinAddr: 0x100006470, symSize: 0x30 }
  - { offset: 0x270A8, size: 0x8, addend: 0x0, symName: __ZNK8nlohmann16json_abi_v3_11_36detail21iteration_proxy_valueINS1_9iter_implIKNS0_10basic_jsonINSt3__13mapENS5_6vectorENS5_12basic_stringIcNS5_11char_traitsIcEENS5_9allocatorIcEEEEbxydSB_NS0_14adl_serializerENS7_IhNSB_IhEEEEvEEEEEdeEv, symObjAddr: 0x55E4, symBinAddr: 0x1000064A0, symSize: 0x14 }
  - { offset: 0x270CE, size: 0x8, addend: 0x0, symName: __ZNK8nlohmann16json_abi_v3_11_36detail21iteration_proxy_valueINS1_9iter_implIKNS0_10basic_jsonINSt3__13mapENS5_6vectorENS5_12basic_stringIcNS5_11char_traitsIcEENS5_9allocatorIcEEEEbxydSB_NS0_14adl_serializerENS7_IhNSB_IhEEEEvEEEEE3keyEv, symObjAddr: 0x55F8, symBinAddr: 0x1000064B4, symSize: 0x114 }
  - { offset: 0x270F4, size: 0x8, addend: 0x0, symName: __ZNK8nlohmann16json_abi_v3_11_36detail21iteration_proxy_valueINS1_9iter_implIKNS0_10basic_jsonINSt3__13mapENS5_6vectorENS5_12basic_stringIcNS5_11char_traitsIcEENS5_9allocatorIcEEEEbxydSB_NS0_14adl_serializerENS7_IhNSB_IhEEEEvEEEEE5valueEv, symObjAddr: 0x5734, symBinAddr: 0x1000065F0, symSize: 0x24 }
  - { offset: 0x2711A, size: 0x8, addend: 0x0, symName: __ZN8nlohmann16json_abi_v3_11_310basic_jsonINSt3__13mapENS2_6vectorENS2_12basic_stringIcNS2_11char_traitsIcEENS2_9allocatorIcEEEEbxydS8_NS0_14adl_serializerENS4_IhNS8_IhEEEEvEC1ERKSE_, symObjAddr: 0x5758, symBinAddr: 0x100006614, symSize: 0x34 }
  - { offset: 0x27153, size: 0x8, addend: 0x0, symName: __ZN8nlohmann16json_abi_v3_11_310basic_jsonINSt3__13mapENS2_6vectorENS2_12basic_stringIcNS2_11char_traitsIcEENS2_9allocatorIcEEEEbxydS8_NS0_14adl_serializerENS4_IhNS8_IhEEEEvEixIKcEERSE_PT_, symObjAddr: 0x578C, symBinAddr: 0x100006648, symSize: 0x78 }
  - { offset: 0x27191, size: 0x8, addend: 0x0, symName: __ZNK8nlohmann16json_abi_v3_11_310basic_jsonINSt3__13mapENS2_6vectorENS2_12basic_stringIcNS2_11char_traitsIcEENS2_9allocatorIcEEEEbxydS8_NS0_14adl_serializerENS4_IhNS8_IhEEEEvE3getISA_SA_EEDTcldtclL_ZNS2_7declvalB8ne180100IRKSE_EEDTclsr3stdE9__declvalIT_ELi0EEEvEE8get_implIT0_EtlNS0_6detail12priority_tagILj4EEEEEEv, symObjAddr: 0x5804, symBinAddr: 0x1000066C0, symSize: 0x2C }
  - { offset: 0x271C9, size: 0x8, addend: 0x0, symName: __ZN8nlohmann16json_abi_v3_11_36detail21iteration_proxy_valueINS1_9iter_implIKNS0_10basic_jsonINSt3__13mapENS5_6vectorENS5_12basic_stringIcNS5_11char_traitsIcEENS5_9allocatorIcEEEEbxydSB_NS0_14adl_serializerENS7_IhNSB_IhEEEEvEEEEEppEv, symObjAddr: 0x5830, symBinAddr: 0x1000066EC, symSize: 0x38 }
  - { offset: 0x271EF, size: 0x8, addend: 0x0, symName: __ZN8nlohmann16json_abi_v3_11_36detail21iteration_proxy_valueINS1_9iter_implIKNS0_10basic_jsonINSt3__13mapENS5_6vectorENS5_12basic_stringIcNS5_11char_traitsIcEENS5_9allocatorIcEEEEbxydSB_NS0_14adl_serializerENS7_IhNSB_IhEEEEvEEEEED1Ev, symObjAddr: 0x5868, symBinAddr: 0x100006724, symSize: 0x2C }
  - { offset: 0x27219, size: 0x8, addend: 0x0, symName: __ZN8nlohmann16json_abi_v3_11_36detail15iteration_proxyINS1_9iter_implIKNS0_10basic_jsonINSt3__13mapENS5_6vectorENS5_12basic_stringIcNS5_11char_traitsIcEENS5_9allocatorIcEEEEbxydSB_NS0_14adl_serializerENS7_IhNSB_IhEEEEvEEEEEC1ERSI_, symObjAddr: 0x58D4, symBinAddr: 0x100006790, symSize: 0x34 }
  - { offset: 0x27251, size: 0x8, addend: 0x0, symName: __ZN8nlohmann16json_abi_v3_11_36detail15iteration_proxyINS1_9iter_implIKNS0_10basic_jsonINSt3__13mapENS5_6vectorENS5_12basic_stringIcNS5_11char_traitsIcEENS5_9allocatorIcEEEEbxydSB_NS0_14adl_serializerENS7_IhNSB_IhEEEEvEEEEEC2ERSI_, symObjAddr: 0x5908, symBinAddr: 0x1000067C4, symSize: 0x20 }
  - { offset: 0x27289, size: 0x8, addend: 0x0, symName: __ZNK8nlohmann16json_abi_v3_11_310basic_jsonINSt3__13mapENS2_6vectorENS2_12basic_stringIcNS2_11char_traitsIcEENS2_9allocatorIcEEEEbxydS8_NS0_14adl_serializerENS4_IhNS8_IhEEEEvE5beginEv, symObjAddr: 0x5928, symBinAddr: 0x1000067E4, symSize: 0x2C }
  - { offset: 0x272AF, size: 0x8, addend: 0x0, symName: __ZN8nlohmann16json_abi_v3_11_36detail21iteration_proxy_valueINS1_9iter_implIKNS0_10basic_jsonINSt3__13mapENS5_6vectorENS5_12basic_stringIcNS5_11char_traitsIcEENS5_9allocatorIcEEEEbxydSB_NS0_14adl_serializerENS7_IhNSB_IhEEEEvEEEEEC1ESJ_m, symObjAddr: 0x5954, symBinAddr: 0x100006810, symSize: 0x3C }
  - { offset: 0x272F6, size: 0x8, addend: 0x0, symName: __ZNK8nlohmann16json_abi_v3_11_310basic_jsonINSt3__13mapENS2_6vectorENS2_12basic_stringIcNS2_11char_traitsIcEENS2_9allocatorIcEEEEbxydS8_NS0_14adl_serializerENS4_IhNS8_IhEEEEvE6cbeginEv, symObjAddr: 0x5990, symBinAddr: 0x10000684C, symSize: 0x40 }
  - { offset: 0x2732C, size: 0x8, addend: 0x0, symName: __ZN8nlohmann16json_abi_v3_11_36detail9iter_implIKNS0_10basic_jsonINSt3__13mapENS4_6vectorENS4_12basic_stringIcNS4_11char_traitsIcEENS4_9allocatorIcEEEEbxydSA_NS0_14adl_serializerENS6_IhNSA_IhEEEEvEEEC1EPSH_, symObjAddr: 0x59D0, symBinAddr: 0x10000688C, symSize: 0x34 }
  - { offset: 0x27364, size: 0x8, addend: 0x0, symName: __ZN8nlohmann16json_abi_v3_11_36detail9iter_implIKNS0_10basic_jsonINSt3__13mapENS4_6vectorENS4_12basic_stringIcNS4_11char_traitsIcEENS4_9allocatorIcEEEEbxydSA_NS0_14adl_serializerENS6_IhNSA_IhEEEEvEEE9set_beginEv, symObjAddr: 0x5A04, symBinAddr: 0x1000068C0, symSize: 0x118 }
  - { offset: 0x2738A, size: 0x8, addend: 0x0, symName: __ZN8nlohmann16json_abi_v3_11_36detail9iter_implIKNS0_10basic_jsonINSt3__13mapENS4_6vectorENS4_12basic_stringIcNS4_11char_traitsIcEENS4_9allocatorIcEEEEbxydSA_NS0_14adl_serializerENS6_IhNSA_IhEEEEvEEEC2EPSH_, symObjAddr: 0x5B44, symBinAddr: 0x100006A00, symSize: 0x13C }
  - { offset: 0x273C2, size: 0x8, addend: 0x0, symName: __ZNSt3__114__map_iteratorINS_15__tree_iteratorINS_12__value_typeINS_12basic_stringIcNS_11char_traitsIcEENS_9allocatorIcEEEEN8nlohmann16json_abi_v3_11_310basic_jsonINS_3mapENS_6vectorES8_bxydS6_NSA_14adl_serializerENSD_IhNS6_IhEEEEvEEEEPNS_11__tree_nodeISI_PvEElEEEC1B8ne180100Ev, symObjAddr: 0x5CA8, symBinAddr: 0x100006B64, symSize: 0x2C }
  - { offset: 0x273EC, size: 0x8, addend: 0x0, symName: __ZNSt3__111__wrap_iterIPN8nlohmann16json_abi_v3_11_310basic_jsonINS_3mapENS_6vectorENS_12basic_stringIcNS_11char_traitsIcEENS_9allocatorIcEEEEbxydS9_NS2_14adl_serializerENS5_IhNS9_IhEEEEvEEEC1B8ne180100Ev, symObjAddr: 0x5CD4, symBinAddr: 0x100006B90, symSize: 0x2C }
  - { offset: 0x27416, size: 0x8, addend: 0x0, symName: __ZN8nlohmann16json_abi_v3_11_36detail20primitive_iterator_tC1Ev, symObjAddr: 0x5D00, symBinAddr: 0x100006BBC, symSize: 0x2C }
  - { offset: 0x27442, size: 0x8, addend: 0x0, symName: __ZNSt3__114__map_iteratorINS_15__tree_iteratorINS_12__value_typeINS_12basic_stringIcNS_11char_traitsIcEENS_9allocatorIcEEEEN8nlohmann16json_abi_v3_11_310basic_jsonINS_3mapENS_6vectorES8_bxydS6_NSA_14adl_serializerENSD_IhNS6_IhEEEEvEEEEPNS_11__tree_nodeISI_PvEElEEEC2B8ne180100Ev, symObjAddr: 0x5D2C, symBinAddr: 0x100006BE8, symSize: 0x2C }
  - { offset: 0x2746C, size: 0x8, addend: 0x0, symName: __ZNSt3__115__tree_iteratorINS_12__value_typeINS_12basic_stringIcNS_11char_traitsIcEENS_9allocatorIcEEEEN8nlohmann16json_abi_v3_11_310basic_jsonINS_3mapENS_6vectorES7_bxydS5_NS9_14adl_serializerENSC_IhNS5_IhEEEEvEEEEPNS_11__tree_nodeISH_PvEElEC1B8ne180100Ev, symObjAddr: 0x5D58, symBinAddr: 0x100006C14, symSize: 0x2C }
  - { offset: 0x27496, size: 0x8, addend: 0x0, symName: __ZNSt3__115__tree_iteratorINS_12__value_typeINS_12basic_stringIcNS_11char_traitsIcEENS_9allocatorIcEEEEN8nlohmann16json_abi_v3_11_310basic_jsonINS_3mapENS_6vectorES7_bxydS5_NS9_14adl_serializerENSC_IhNS5_IhEEEEvEEEEPNS_11__tree_nodeISH_PvEElEC2B8ne180100Ev, symObjAddr: 0x5D84, symBinAddr: 0x100006C40, symSize: 0x18 }
  - { offset: 0x274C0, size: 0x8, addend: 0x0, symName: __ZNSt3__111__wrap_iterIPN8nlohmann16json_abi_v3_11_310basic_jsonINS_3mapENS_6vectorENS_12basic_stringIcNS_11char_traitsIcEENS_9allocatorIcEEEEbxydS9_NS2_14adl_serializerENS5_IhNS9_IhEEEEvEEEC2B8ne180100Ev, symObjAddr: 0x5D9C, symBinAddr: 0x100006C58, symSize: 0x18 }
  - { offset: 0x274EA, size: 0x8, addend: 0x0, symName: __ZN8nlohmann16json_abi_v3_11_36detail20primitive_iterator_tC2Ev, symObjAddr: 0x5DB4, symBinAddr: 0x100006C70, symSize: 0x34 }
  - { offset: 0x27516, size: 0x8, addend: 0x0, symName: __ZNSt3__114numeric_limitsIlE3minB8ne180100Ev, symObjAddr: 0x5DE8, symBinAddr: 0x100006CA4, symSize: 0x14 }
  - { offset: 0x2752A, size: 0x8, addend: 0x0, symName: __ZNSt3__123__libcpp_numeric_limitsIlLb1EE3minB8ne180100Ev, symObjAddr: 0x5DFC, symBinAddr: 0x100006CB8, symSize: 0x8 }
  - { offset: 0x2753E, size: 0x8, addend: 0x0, symName: __ZNSt3__13mapINS_12basic_stringIcNS_11char_traitsIcEENS_9allocatorIcEEEEN8nlohmann16json_abi_v3_11_310basic_jsonIS0_NS_6vectorES6_bxydS4_NS8_14adl_serializerENSA_IhNS4_IhEEEEvEENS_4lessIvEENS4_INS_4pairIKS6_SE_EEEEE5beginB8ne180100Ev, symObjAddr: 0x5E04, symBinAddr: 0x100006CC0, symSize: 0x38 }
  - { offset: 0x27564, size: 0x8, addend: 0x0, symName: __ZNSt3__16vectorIN8nlohmann16json_abi_v3_11_310basic_jsonINS_3mapES0_NS_12basic_stringIcNS_11char_traitsIcEENS_9allocatorIcEEEEbxydS8_NS2_14adl_serializerENS0_IhNS8_IhEEEEvEENS8_ISE_EEE5beginB8ne180100Ev, symObjAddr: 0x5E3C, symBinAddr: 0x100006CF8, symSize: 0x30 }
  - { offset: 0x2758C, size: 0x8, addend: 0x0, symName: __ZN8nlohmann16json_abi_v3_11_36detail20primitive_iterator_t7set_endEv, symObjAddr: 0x5E6C, symBinAddr: 0x100006D28, symSize: 0x1C }
  - { offset: 0x275B2, size: 0x8, addend: 0x0, symName: __ZN8nlohmann16json_abi_v3_11_36detail20primitive_iterator_t9set_beginEv, symObjAddr: 0x5E88, symBinAddr: 0x100006D44, symSize: 0x18 }
  - { offset: 0x275D8, size: 0x8, addend: 0x0, symName: __ZNSt3__16__treeINS_12__value_typeINS_12basic_stringIcNS_11char_traitsIcEENS_9allocatorIcEEEEN8nlohmann16json_abi_v3_11_310basic_jsonINS_3mapENS_6vectorES7_bxydS5_NS9_14adl_serializerENSC_IhNS5_IhEEEEvEEEENS_19__map_value_compareIS7_SH_NS_4lessIvEELb1EEENS5_ISH_EEE5beginB8ne180100Ev, symObjAddr: 0x5EA0, symBinAddr: 0x100006D5C, symSize: 0x34 }
  - { offset: 0x275FE, size: 0x8, addend: 0x0, symName: __ZNSt3__114__map_iteratorINS_15__tree_iteratorINS_12__value_typeINS_12basic_stringIcNS_11char_traitsIcEENS_9allocatorIcEEEEN8nlohmann16json_abi_v3_11_310basic_jsonINS_3mapENS_6vectorES8_bxydS6_NSA_14adl_serializerENSD_IhNS6_IhEEEEvEEEEPNS_11__tree_nodeISI_PvEElEEEC1B8ne180100ESN_, symObjAddr: 0x5ED4, symBinAddr: 0x100006D90, symSize: 0x34 }
  - { offset: 0x27637, size: 0x8, addend: 0x0, symName: __ZNSt3__16__treeINS_12__value_typeINS_12basic_stringIcNS_11char_traitsIcEENS_9allocatorIcEEEEN8nlohmann16json_abi_v3_11_310basic_jsonINS_3mapENS_6vectorES7_bxydS5_NS9_14adl_serializerENSC_IhNS5_IhEEEEvEEEENS_19__map_value_compareIS7_SH_NS_4lessIvEELb1EEENS5_ISH_EEE12__begin_nodeB8ne180100Ev, symObjAddr: 0x5F08, symBinAddr: 0x100006DC4, symSize: 0x14 }
  - { offset: 0x2765D, size: 0x8, addend: 0x0, symName: __ZNSt3__115__tree_iteratorINS_12__value_typeINS_12basic_stringIcNS_11char_traitsIcEENS_9allocatorIcEEEEN8nlohmann16json_abi_v3_11_310basic_jsonINS_3mapENS_6vectorES7_bxydS5_NS9_14adl_serializerENSC_IhNS5_IhEEEEvEEEEPNS_11__tree_nodeISH_PvEElEC1B8ne180100EPNS_15__tree_end_nodeIPNS_16__tree_node_baseISJ_EEEE, symObjAddr: 0x5F1C, symBinAddr: 0x100006DD8, symSize: 0x34 }
  - { offset: 0x27696, size: 0x8, addend: 0x0, symName: __ZNSt3__115__tree_iteratorINS_12__value_typeINS_12basic_stringIcNS_11char_traitsIcEENS_9allocatorIcEEEEN8nlohmann16json_abi_v3_11_310basic_jsonINS_3mapENS_6vectorES7_bxydS5_NS9_14adl_serializerENSC_IhNS5_IhEEEEvEEEEPNS_11__tree_nodeISH_PvEElEC2B8ne180100EPNS_15__tree_end_nodeIPNS_16__tree_node_baseISJ_EEEE, symObjAddr: 0x5F50, symBinAddr: 0x100006E0C, symSize: 0x20 }
  - { offset: 0x276CF, size: 0x8, addend: 0x0, symName: __ZNSt3__114__map_iteratorINS_15__tree_iteratorINS_12__value_typeINS_12basic_stringIcNS_11char_traitsIcEENS_9allocatorIcEEEEN8nlohmann16json_abi_v3_11_310basic_jsonINS_3mapENS_6vectorES8_bxydS6_NSA_14adl_serializerENSD_IhNS6_IhEEEEvEEEEPNS_11__tree_nodeISI_PvEElEEEC2B8ne180100ESN_, symObjAddr: 0x5F70, symBinAddr: 0x100006E2C, symSize: 0x20 }
  - { offset: 0x27708, size: 0x8, addend: 0x0, symName: __ZNSt3__16vectorIN8nlohmann16json_abi_v3_11_310basic_jsonINS_3mapES0_NS_12basic_stringIcNS_11char_traitsIcEENS_9allocatorIcEEEEbxydS8_NS2_14adl_serializerENS0_IhNS8_IhEEEEvEENS8_ISE_EEE11__make_iterB8ne180100EPSE_, symObjAddr: 0x5F90, symBinAddr: 0x100006E4C, symSize: 0x30 }
  - { offset: 0x2773D, size: 0x8, addend: 0x0, symName: __ZNSt3__111__wrap_iterIPN8nlohmann16json_abi_v3_11_310basic_jsonINS_3mapENS_6vectorENS_12basic_stringIcNS_11char_traitsIcEENS_9allocatorIcEEEEbxydS9_NS2_14adl_serializerENS5_IhNS9_IhEEEEvEEEC1B8ne180100ESG_, symObjAddr: 0x5FC0, symBinAddr: 0x100006E7C, symSize: 0x34 }
  - { offset: 0x27775, size: 0x8, addend: 0x0, symName: __ZNSt3__111__wrap_iterIPN8nlohmann16json_abi_v3_11_310basic_jsonINS_3mapENS_6vectorENS_12basic_stringIcNS_11char_traitsIcEENS_9allocatorIcEEEEbxydS9_NS2_14adl_serializerENS5_IhNS9_IhEEEEvEEEC2B8ne180100ESG_, symObjAddr: 0x5FF4, symBinAddr: 0x100006EB0, symSize: 0x20 }
  - { offset: 0x277AD, size: 0x8, addend: 0x0, symName: __ZN8nlohmann16json_abi_v3_11_36detail21iteration_proxy_valueINS1_9iter_implIKNS0_10basic_jsonINSt3__13mapENS5_6vectorENS5_12basic_stringIcNS5_11char_traitsIcEENS5_9allocatorIcEEEEbxydSB_NS0_14adl_serializerENS7_IhNSB_IhEEEEvEEEEEC2ESJ_m, symObjAddr: 0x6014, symBinAddr: 0x100006ED0, symSize: 0x74 }
  - { offset: 0x277F4, size: 0x8, addend: 0x0, symName: __ZNK8nlohmann16json_abi_v3_11_310basic_jsonINSt3__13mapENS2_6vectorENS2_12basic_stringIcNS2_11char_traitsIcEENS2_9allocatorIcEEEEbxydS8_NS0_14adl_serializerENS4_IhNS8_IhEEEEvE3endEv, symObjAddr: 0x6088, symBinAddr: 0x100006F44, symSize: 0x2C }
  - { offset: 0x2781A, size: 0x8, addend: 0x0, symName: __ZNK8nlohmann16json_abi_v3_11_310basic_jsonINSt3__13mapENS2_6vectorENS2_12basic_stringIcNS2_11char_traitsIcEENS2_9allocatorIcEEEEbxydS8_NS0_14adl_serializerENS4_IhNS8_IhEEEEvE4cendEv, symObjAddr: 0x60B4, symBinAddr: 0x100006F70, symSize: 0x40 }
  - { offset: 0x27850, size: 0x8, addend: 0x0, symName: __ZN8nlohmann16json_abi_v3_11_36detail9iter_implIKNS0_10basic_jsonINSt3__13mapENS4_6vectorENS4_12basic_stringIcNS4_11char_traitsIcEENS4_9allocatorIcEEEEbxydSA_NS0_14adl_serializerENS6_IhNSA_IhEEEEvEEE7set_endEv, symObjAddr: 0x60F4, symBinAddr: 0x100006FB0, symSize: 0x108 }
  - { offset: 0x27876, size: 0x8, addend: 0x0, symName: __ZNSt3__13mapINS_12basic_stringIcNS_11char_traitsIcEENS_9allocatorIcEEEEN8nlohmann16json_abi_v3_11_310basic_jsonIS0_NS_6vectorES6_bxydS4_NS8_14adl_serializerENSA_IhNS4_IhEEEEvEENS_4lessIvEENS4_INS_4pairIKS6_SE_EEEEE3endB8ne180100Ev, symObjAddr: 0x6224, symBinAddr: 0x1000070E0, symSize: 0x38 }
  - { offset: 0x2789C, size: 0x8, addend: 0x0, symName: __ZNSt3__16vectorIN8nlohmann16json_abi_v3_11_310basic_jsonINS_3mapES0_NS_12basic_stringIcNS_11char_traitsIcEENS_9allocatorIcEEEEbxydS8_NS2_14adl_serializerENS0_IhNS8_IhEEEEvEENS8_ISE_EEE3endB8ne180100Ev, symObjAddr: 0x625C, symBinAddr: 0x100007118, symSize: 0x30 }
  - { offset: 0x278C4, size: 0x8, addend: 0x0, symName: __ZNSt3__16__treeINS_12__value_typeINS_12basic_stringIcNS_11char_traitsIcEENS_9allocatorIcEEEEN8nlohmann16json_abi_v3_11_310basic_jsonINS_3mapENS_6vectorES7_bxydS5_NS9_14adl_serializerENSC_IhNS5_IhEEEEvEEEENS_19__map_value_compareIS7_SH_NS_4lessIvEELb1EEENS5_ISH_EEE3endB8ne180100Ev, symObjAddr: 0x628C, symBinAddr: 0x100007148, symSize: 0x34 }
  - { offset: 0x278EA, size: 0x8, addend: 0x0, symName: __ZNSt3__16__treeINS_12__value_typeINS_12basic_stringIcNS_11char_traitsIcEENS_9allocatorIcEEEEN8nlohmann16json_abi_v3_11_310basic_jsonINS_3mapENS_6vectorES7_bxydS5_NS9_14adl_serializerENSC_IhNS5_IhEEEEvEEEENS_19__map_value_compareIS7_SH_NS_4lessIvEELb1EEENS5_ISH_EEE10__end_nodeB8ne180100Ev, symObjAddr: 0x62C0, symBinAddr: 0x10000717C, symSize: 0x2C }
  - { offset: 0x27910, size: 0x8, addend: 0x0, symName: __ZNSt3__114pointer_traitsIPNS_15__tree_end_nodeIPNS_16__tree_node_baseIPvEEEEE10pointer_toB8ne180100ERS6_, symObjAddr: 0x62EC, symBinAddr: 0x1000071A8, symSize: 0x14 }
  - { offset: 0x27933, size: 0x8, addend: 0x0, symName: __ZNSt3__117__compressed_pairINS_15__tree_end_nodeIPNS_16__tree_node_baseIPvEEEENS_9allocatorINS_11__tree_nodeINS_12__value_typeINS_12basic_stringIcNS_11char_traitsIcEENS7_IcEEEEN8nlohmann16json_abi_v3_11_310basic_jsonINS_3mapENS_6vectorESE_bxydS7_NSG_14adl_serializerENSJ_IhNS7_IhEEEEvEEEES3_EEEEE5firstB8ne180100Ev, symObjAddr: 0x6300, symBinAddr: 0x1000071BC, symSize: 0x24 }
  - { offset: 0x27959, size: 0x8, addend: 0x0, symName: __ZNSt3__122__compressed_pair_elemINS_15__tree_end_nodeIPNS_16__tree_node_baseIPvEEEELi0ELb0EE5__getB8ne180100Ev, symObjAddr: 0x6324, symBinAddr: 0x1000071E0, symSize: 0x14 }
  - { offset: 0x2797F, size: 0x8, addend: 0x0, symName: __ZNK8nlohmann16json_abi_v3_11_36detail9iter_implIKNS0_10basic_jsonINSt3__13mapENS4_6vectorENS4_12basic_stringIcNS4_11char_traitsIcEENS4_9allocatorIcEEEEbxydSA_NS0_14adl_serializerENS6_IhNSA_IhEEEEvEEEneISI_LDn0EEEbRKT_, symObjAddr: 0x6338, symBinAddr: 0x1000071F4, symSize: 0x34 }
  - { offset: 0x279C3, size: 0x8, addend: 0x0, symName: __ZNK8nlohmann16json_abi_v3_11_36detail9iter_implIKNS0_10basic_jsonINSt3__13mapENS4_6vectorENS4_12basic_stringIcNS4_11char_traitsIcEENS4_9allocatorIcEEEEbxydSA_NS0_14adl_serializerENS6_IhNSA_IhEEEEvEEEeqISI_LDn0EEEbRKT_, symObjAddr: 0x636C, symBinAddr: 0x100007228, symSize: 0x214 }
  - { offset: 0x27A3B, size: 0x8, addend: 0x0, symName: __ZN8nlohmann16json_abi_v3_11_36detail16invalid_iterator6createIPKNS0_10basic_jsonINSt3__13mapENS5_6vectorENS5_12basic_stringIcNS5_11char_traitsIcEENS5_9allocatorIcEEEEbxydSB_NS0_14adl_serializerENS7_IhNSB_IhEEEEvEELi0EEES2_iRKSD_T_, symObjAddr: 0x65A8, symBinAddr: 0x100007464, symSize: 0x130 }
  - { offset: 0x27A97, size: 0x8, addend: 0x0, symName: __ZN8nlohmann16json_abi_v3_11_36detail16invalid_iteratorD1Ev, symObjAddr: 0x66D8, symBinAddr: 0x100007594, symSize: 0x2C }
  - { offset: 0x27AC3, size: 0x8, addend: 0x0, symName: __ZN8nlohmann16json_abi_v3_11_36detail9exception4nameERKNSt3__112basic_stringIcNS3_11char_traitsIcEENS3_9allocatorIcEEEEi, symObjAddr: 0x687C, symBinAddr: 0x100007738, symSize: 0xA0 }
  - { offset: 0x27AF4, size: 0x8, addend: 0x0, symName: __ZN8nlohmann16json_abi_v3_11_36detail9exception11diagnosticsINS0_10basic_jsonINSt3__13mapENS5_6vectorENS5_12basic_stringIcNS5_11char_traitsIcEENS5_9allocatorIcEEEEbxydSB_NS0_14adl_serializerENS7_IhNSB_IhEEEEvEEEESD_PKT_, symObjAddr: 0x691C, symBinAddr: 0x1000077D8, symSize: 0x3C }
  - { offset: 0x27B20, size: 0x8, addend: 0x0, symName: __ZN8nlohmann16json_abi_v3_11_36detail16invalid_iteratorC1EiPKc, symObjAddr: 0x6958, symBinAddr: 0x100007814, symSize: 0x3C }
  - { offset: 0x27B66, size: 0x8, addend: 0x0, symName: __ZNSt3__112basic_stringIcNS_11char_traitsIcEENS_9allocatorIcEEEpLB8ne180100Ec, symObjAddr: 0x6E50, symBinAddr: 0x100007D0C, symSize: 0x34 }
  - { offset: 0x27B9B, size: 0x8, addend: 0x0, symName: __ZN8nlohmann16json_abi_v3_11_36detail16invalid_iteratorC2EiPKc, symObjAddr: 0x6EF4, symBinAddr: 0x100007DB0, symSize: 0x4C }
  - { offset: 0x27BE1, size: 0x8, addend: 0x0, symName: __ZN8nlohmann16json_abi_v3_11_36detail9exceptionC2EiPKc, symObjAddr: 0x6F40, symBinAddr: 0x100007DFC, symSize: 0x84 }
  - { offset: 0x27C27, size: 0x8, addend: 0x0, symName: __ZN8nlohmann16json_abi_v3_11_36detail16invalid_iteratorD0Ev, symObjAddr: 0x6FC4, symBinAddr: 0x100007E80, symSize: 0x30 }
  - { offset: 0x27C53, size: 0x8, addend: 0x0, symName: __ZNK8nlohmann16json_abi_v3_11_36detail9exception4whatEv, symObjAddr: 0x6FF4, symBinAddr: 0x100007EB0, symSize: 0x28 }
  - { offset: 0x27C79, size: 0x8, addend: 0x0, symName: __ZNSt9exceptionC2B8ne180100Ev, symObjAddr: 0x701C, symBinAddr: 0x100007ED8, symSize: 0x24 }
  - { offset: 0x27CA3, size: 0x8, addend: 0x0, symName: __ZN8nlohmann16json_abi_v3_11_36detail9exceptionD1Ev, symObjAddr: 0x7040, symBinAddr: 0x100007EFC, symSize: 0x2C }
  - { offset: 0x27CCF, size: 0x8, addend: 0x0, symName: __ZN8nlohmann16json_abi_v3_11_36detail9exceptionD0Ev, symObjAddr: 0x706C, symBinAddr: 0x100007F28, symSize: 0x30 }
  - { offset: 0x27CFB, size: 0x8, addend: 0x0, symName: __ZN8nlohmann16json_abi_v3_11_36detail9exceptionD2Ev, symObjAddr: 0x709C, symBinAddr: 0x100007F58, symSize: 0x48 }
  - { offset: 0x27D27, size: 0x8, addend: 0x0, symName: __ZN8nlohmann16json_abi_v3_11_36detail16invalid_iteratorD2Ev, symObjAddr: 0x70E4, symBinAddr: 0x100007FA0, symSize: 0x2C }
  - { offset: 0x27D53, size: 0x8, addend: 0x0, symName: __ZNKSt3__111__wrap_iterIPN8nlohmann16json_abi_v3_11_310basic_jsonINS_3mapENS_6vectorENS_12basic_stringIcNS_11char_traitsIcEENS_9allocatorIcEEEEbxydS9_NS2_14adl_serializerENS5_IhNS9_IhEEEEvEEE4baseB8ne180100Ev, symObjAddr: 0x7140, symBinAddr: 0x100007FFC, symSize: 0x18 }
  - { offset: 0x27D79, size: 0x8, addend: 0x0, symName: __ZNK8nlohmann16json_abi_v3_11_310basic_jsonINSt3__13mapENS2_6vectorENS2_12basic_stringIcNS2_11char_traitsIcEENS2_9allocatorIcEEEEbxydS8_NS0_14adl_serializerENS4_IhNS8_IhEEEEvE4typeEv, symObjAddr: 0x7158, symBinAddr: 0x100008014, symSize: 0x18 }
  - { offset: 0x27D9F, size: 0x8, addend: 0x0, symName: __ZNK8nlohmann16json_abi_v3_11_36detail9iter_implIKNS0_10basic_jsonINSt3__13mapENS4_6vectorENS4_12basic_stringIcNS4_11char_traitsIcEENS4_9allocatorIcEEEEbxydSA_NS0_14adl_serializerENS6_IhNSA_IhEEEEvEEE3keyEv, symObjAddr: 0x71B4, symBinAddr: 0x100008070, symSize: 0x144 }
  - { offset: 0x27DC5, size: 0x8, addend: 0x0, symName: __ZNK8nlohmann16json_abi_v3_11_310basic_jsonINSt3__13mapENS2_6vectorENS2_12basic_stringIcNS2_11char_traitsIcEENS2_9allocatorIcEEEEbxydS8_NS0_14adl_serializerENS4_IhNS8_IhEEEEvE9is_objectEv, symObjAddr: 0x72F8, symBinAddr: 0x1000081B4, symSize: 0x24 }
  - { offset: 0x27DEB, size: 0x8, addend: 0x0, symName: __ZNKSt3__114__map_iteratorINS_15__tree_iteratorINS_12__value_typeINS_12basic_stringIcNS_11char_traitsIcEENS_9allocatorIcEEEEN8nlohmann16json_abi_v3_11_310basic_jsonINS_3mapENS_6vectorES8_bxydS6_NSA_14adl_serializerENSD_IhNS6_IhEEEEvEEEEPNS_11__tree_nodeISI_PvEElEEEptB8ne180100Ev, symObjAddr: 0x731C, symBinAddr: 0x1000081D8, symSize: 0x2C }
  - { offset: 0x27E11, size: 0x8, addend: 0x0, symName: __ZNSt3__114pointer_traitsIPNS_4pairIKNS_12basic_stringIcNS_11char_traitsIcEENS_9allocatorIcEEEEN8nlohmann16json_abi_v3_11_310basic_jsonINS_3mapENS_6vectorES7_bxydS5_NSA_14adl_serializerENSD_IhNS5_IhEEEEvEEEEE10pointer_toB8ne180100ERSI_, symObjAddr: 0x7348, symBinAddr: 0x100008204, symSize: 0x14 }
  - { offset: 0x27E34, size: 0x8, addend: 0x0, symName: __ZNKSt3__115__tree_iteratorINS_12__value_typeINS_12basic_stringIcNS_11char_traitsIcEENS_9allocatorIcEEEEN8nlohmann16json_abi_v3_11_310basic_jsonINS_3mapENS_6vectorES7_bxydS5_NS9_14adl_serializerENSC_IhNS5_IhEEEEvEEEEPNS_11__tree_nodeISH_PvEElEptB8ne180100Ev, symObjAddr: 0x735C, symBinAddr: 0x100008218, symSize: 0x2C }
  - { offset: 0x27E5A, size: 0x8, addend: 0x0, symName: __ZNSt3__112__value_typeINS_12basic_stringIcNS_11char_traitsIcEENS_9allocatorIcEEEEN8nlohmann16json_abi_v3_11_310basic_jsonINS_3mapENS_6vectorES6_bxydS4_NS8_14adl_serializerENSB_IhNS4_IhEEEEvEEE11__get_valueB8ne180100Ev, symObjAddr: 0x7388, symBinAddr: 0x100008244, symSize: 0x24 }
  - { offset: 0x27E80, size: 0x8, addend: 0x0, symName: __ZNSt3__114pointer_traitsIPNS_12__value_typeINS_12basic_stringIcNS_11char_traitsIcEENS_9allocatorIcEEEEN8nlohmann16json_abi_v3_11_310basic_jsonINS_3mapENS_6vectorES7_bxydS5_NS9_14adl_serializerENSC_IhNS5_IhEEEEvEEEEE10pointer_toB8ne180100ERSH_, symObjAddr: 0x73AC, symBinAddr: 0x100008268, symSize: 0x14 }
  - { offset: 0x27EA3, size: 0x8, addend: 0x0, symName: __ZNKSt3__115__tree_iteratorINS_12__value_typeINS_12basic_stringIcNS_11char_traitsIcEENS_9allocatorIcEEEEN8nlohmann16json_abi_v3_11_310basic_jsonINS_3mapENS_6vectorES7_bxydS5_NS9_14adl_serializerENSC_IhNS5_IhEEEEvEEEEPNS_11__tree_nodeISH_PvEElE8__get_npB8ne180100Ev, symObjAddr: 0x73C0, symBinAddr: 0x10000827C, symSize: 0x18 }
  - { offset: 0x27EC9, size: 0x8, addend: 0x0, symName: __ZNK8nlohmann16json_abi_v3_11_36detail9iter_implIKNS0_10basic_jsonINSt3__13mapENS4_6vectorENS4_12basic_stringIcNS4_11char_traitsIcEENS4_9allocatorIcEEEEbxydSA_NS0_14adl_serializerENS6_IhNSA_IhEEEEvEEE5valueEv, symObjAddr: 0x7410, symBinAddr: 0x1000082CC, symSize: 0x24 }
  - { offset: 0x27EEF, size: 0x8, addend: 0x0, symName: __ZNK8nlohmann16json_abi_v3_11_36detail9iter_implIKNS0_10basic_jsonINSt3__13mapENS4_6vectorENS4_12basic_stringIcNS4_11char_traitsIcEENS4_9allocatorIcEEEEbxydSA_NS0_14adl_serializerENS6_IhNSA_IhEEEEvEEEdeEv, symObjAddr: 0x7434, symBinAddr: 0x1000082F0, symSize: 0x32C }
  - { offset: 0x27F15, size: 0x8, addend: 0x0, symName: __ZNKSt3__111__wrap_iterIPN8nlohmann16json_abi_v3_11_310basic_jsonINS_3mapENS_6vectorENS_12basic_stringIcNS_11char_traitsIcEENS_9allocatorIcEEEEbxydS9_NS2_14adl_serializerENS5_IhNS9_IhEEEEvEEEdeB8ne180100Ev, symObjAddr: 0x77EC, symBinAddr: 0x1000086A8, symSize: 0x18 }
  - { offset: 0x27F3B, size: 0x8, addend: 0x0, symName: __ZNK8nlohmann16json_abi_v3_11_36detail20primitive_iterator_t8is_beginEv, symObjAddr: 0x7804, symBinAddr: 0x1000086C0, symSize: 0x24 }
  - { offset: 0x27F61, size: 0x8, addend: 0x0, symName: __ZN8nlohmann16json_abi_v3_11_310basic_jsonINSt3__13mapENS2_6vectorENS2_12basic_stringIcNS2_11char_traitsIcEENS2_9allocatorIcEEEEbxydS8_NS0_14adl_serializerENS4_IhNS8_IhEEEEvEC2ERKSE_, symObjAddr: 0x785C, symBinAddr: 0x100008718, symSize: 0x1FC }
  - { offset: 0x27F9A, size: 0x8, addend: 0x0, symName: __ZN8nlohmann16json_abi_v3_11_310basic_jsonINSt3__13mapENS2_6vectorENS2_12basic_stringIcNS2_11char_traitsIcEENS2_9allocatorIcEEEEbxydS8_NS0_14adl_serializerENS4_IhNS8_IhEEEEvE4dataC1Ev, symObjAddr: 0x7A80, symBinAddr: 0x10000893C, symSize: 0x2C }
  - { offset: 0x27FC4, size: 0x8, addend: 0x0, symName: __ZNK8nlohmann16json_abi_v3_11_310basic_jsonINSt3__13mapENS2_6vectorENS2_12basic_stringIcNS2_11char_traitsIcEENS2_9allocatorIcEEEEbxydS8_NS0_14adl_serializerENS4_IhNS8_IhEEEEvE16assert_invariantEb, symObjAddr: 0x7AAC, symBinAddr: 0x100008968, symSize: 0x1F0 }
  - { offset: 0x27FF9, size: 0x8, addend: 0x0, symName: __ZN8nlohmann16json_abi_v3_11_310basic_jsonINSt3__13mapENS2_6vectorENS2_12basic_stringIcNS2_11char_traitsIcEENS2_9allocatorIcEEEEbxydS8_NS0_14adl_serializerENS4_IhNS8_IhEEEEvE10json_valueC1ERKNS3_ISA_SE_NS2_4lessIvEENS8_INS2_4pairIKSA_SE_EEEEEE, symObjAddr: 0x7C9C, symBinAddr: 0x100008B58, symSize: 0x34 }
  - { offset: 0x28032, size: 0x8, addend: 0x0, symName: __ZN8nlohmann16json_abi_v3_11_310basic_jsonINSt3__13mapENS2_6vectorENS2_12basic_stringIcNS2_11char_traitsIcEENS2_9allocatorIcEEEEbxydS8_NS0_14adl_serializerENS4_IhNS8_IhEEEEvE10json_valueC1ERKNS4_ISE_NS8_ISE_EEEE, symObjAddr: 0x7CD0, symBinAddr: 0x100008B8C, symSize: 0x34 }
  - { offset: 0x2806B, size: 0x8, addend: 0x0, symName: __ZN8nlohmann16json_abi_v3_11_310basic_jsonINSt3__13mapENS2_6vectorENS2_12basic_stringIcNS2_11char_traitsIcEENS2_9allocatorIcEEEEbxydS8_NS0_14adl_serializerENS4_IhNS8_IhEEEEvE10json_valueC1ERKSA_, symObjAddr: 0x7D04, symBinAddr: 0x100008BC0, symSize: 0x34 }
  - { offset: 0x280A4, size: 0x8, addend: 0x0, symName: __ZN8nlohmann16json_abi_v3_11_310basic_jsonINSt3__13mapENS2_6vectorENS2_12basic_stringIcNS2_11char_traitsIcEENS2_9allocatorIcEEEEbxydS8_NS0_14adl_serializerENS4_IhNS8_IhEEEEvE10json_valueC1Eb, symObjAddr: 0x7D38, symBinAddr: 0x100008BF4, symSize: 0x40 }
  - { offset: 0x280DD, size: 0x8, addend: 0x0, symName: __ZN8nlohmann16json_abi_v3_11_310basic_jsonINSt3__13mapENS2_6vectorENS2_12basic_stringIcNS2_11char_traitsIcEENS2_9allocatorIcEEEEbxydS8_NS0_14adl_serializerENS4_IhNS8_IhEEEEvE10json_valueC1Ex, symObjAddr: 0x7D78, symBinAddr: 0x100008C34, symSize: 0x34 }
  - { offset: 0x28116, size: 0x8, addend: 0x0, symName: __ZN8nlohmann16json_abi_v3_11_310basic_jsonINSt3__13mapENS2_6vectorENS2_12basic_stringIcNS2_11char_traitsIcEENS2_9allocatorIcEEEEbxydS8_NS0_14adl_serializerENS4_IhNS8_IhEEEEvE10json_valueC1Ey, symObjAddr: 0x7DAC, symBinAddr: 0x100008C68, symSize: 0x34 }
  - { offset: 0x2814F, size: 0x8, addend: 0x0, symName: __ZN8nlohmann16json_abi_v3_11_310basic_jsonINSt3__13mapENS2_6vectorENS2_12basic_stringIcNS2_11char_traitsIcEENS2_9allocatorIcEEEEbxydS8_NS0_14adl_serializerENS4_IhNS8_IhEEEEvE10json_valueC1Ed, symObjAddr: 0x7DE0, symBinAddr: 0x100008C9C, symSize: 0x34 }
  - { offset: 0x28188, size: 0x8, addend: 0x0, symName: __ZN8nlohmann16json_abi_v3_11_310basic_jsonINSt3__13mapENS2_6vectorENS2_12basic_stringIcNS2_11char_traitsIcEENS2_9allocatorIcEEEEbxydS8_NS0_14adl_serializerENS4_IhNS8_IhEEEEvE10json_valueC1ERKNS0_27byte_container_with_subtypeISD_EE, symObjAddr: 0x7E14, symBinAddr: 0x100008CD0, symSize: 0x34 }
  - { offset: 0x281C1, size: 0x8, addend: 0x0, symName: __ZN8nlohmann16json_abi_v3_11_310basic_jsonINSt3__13mapENS2_6vectorENS2_12basic_stringIcNS2_11char_traitsIcEENS2_9allocatorIcEEEEbxydS8_NS0_14adl_serializerENS4_IhNS8_IhEEEEvE11set_parentsEv, symObjAddr: 0x7E48, symBinAddr: 0x100008D04, symSize: 0x10 }
  - { offset: 0x281E7, size: 0x8, addend: 0x0, symName: __ZN8nlohmann16json_abi_v3_11_310basic_jsonINSt3__13mapENS2_6vectorENS2_12basic_stringIcNS2_11char_traitsIcEENS2_9allocatorIcEEEEbxydS8_NS0_14adl_serializerENS4_IhNS8_IhEEEEvE4dataD1Ev, symObjAddr: 0x7E58, symBinAddr: 0x100008D14, symSize: 0x2C }
  - { offset: 0x28211, size: 0x8, addend: 0x0, symName: __ZN8nlohmann16json_abi_v3_11_310basic_jsonINSt3__13mapENS2_6vectorENS2_12basic_stringIcNS2_11char_traitsIcEENS2_9allocatorIcEEEEbxydS8_NS0_14adl_serializerENS4_IhNS8_IhEEEEvE4dataC2Ev, symObjAddr: 0x7E84, symBinAddr: 0x100008D40, symSize: 0x1C }
  - { offset: 0x2823B, size: 0x8, addend: 0x0, symName: __ZN8nlohmann16json_abi_v3_11_310basic_jsonINSt3__13mapENS2_6vectorENS2_12basic_stringIcNS2_11char_traitsIcEENS2_9allocatorIcEEEEbxydS8_NS0_14adl_serializerENS4_IhNS8_IhEEEEvE10json_valueC2ERKNS3_ISA_SE_NS2_4lessIvEENS8_INS2_4pairIKSA_SE_EEEEEE, symObjAddr: 0x7EA0, symBinAddr: 0x100008D5C, symSize: 0x3C }
  - { offset: 0x28274, size: 0x8, addend: 0x0, symName: __ZN8nlohmann16json_abi_v3_11_310basic_jsonINSt3__13mapENS2_6vectorENS2_12basic_stringIcNS2_11char_traitsIcEENS2_9allocatorIcEEEEbxydS8_NS0_14adl_serializerENS4_IhNS8_IhEEEEvE6createINS3_ISA_SE_NS2_4lessIvEENS8_INS2_4pairIKSA_SE_EEEEEEJRKSM_EEEPT_DpOT0_, symObjAddr: 0x7EDC, symBinAddr: 0x100008D98, symSize: 0xF4 }
  - { offset: 0x2830E, size: 0x8, addend: 0x0, symName: __ZNSt3__19allocatorINS_3mapINS_12basic_stringIcNS_11char_traitsIcEENS0_IcEEEEN8nlohmann16json_abi_v3_11_310basic_jsonIS1_NS_6vectorES6_bxydS0_NS8_14adl_serializerENSA_IhNS0_IhEEEEvEENS_4lessIvEENS0_INS_4pairIKS6_SE_EEEEEEEC1B8ne180100Ev, symObjAddr: 0x7FD0, symBinAddr: 0x100008E8C, symSize: 0x2C }
  - { offset: 0x2833E, size: 0x8, addend: 0x0, symName: __ZNSt3__116allocator_traitsINS_9allocatorINS_3mapINS_12basic_stringIcNS_11char_traitsIcEENS1_IcEEEEN8nlohmann16json_abi_v3_11_310basic_jsonIS2_NS_6vectorES7_bxydS1_NS9_14adl_serializerENSB_IhNS1_IhEEEEvEENS_4lessIvEENS1_INS_4pairIKS7_SF_EEEEEEEEE8allocateB8ne180100ERSN_m, symObjAddr: 0x7FFC, symBinAddr: 0x100008EB8, symSize: 0x2C }
  - { offset: 0x28412, size: 0x8, addend: 0x0, symName: __ZNSt3__110unique_ptrINS_3mapINS_12basic_stringIcNS_11char_traitsIcEENS_9allocatorIcEEEEN8nlohmann16json_abi_v3_11_310basic_jsonIS1_NS_6vectorES7_bxydS5_NS9_14adl_serializerENSB_IhNS5_IhEEEEvEENS_4lessIvEENS5_INS_4pairIKS7_SF_EEEEEEZNSF_6createISM_JRKSM_EEEPT_DpOT0_EUlPSM_E_EC1B8ne180100ILb1EvEESV_NS_16__dependent_typeINS_27__unique_ptr_deleter_sfinaeISW_EEXT_EE15__lval_ref_typeE, symObjAddr: 0x8028, symBinAddr: 0x100008EE4, symSize: 0x3C }
  - { offset: 0x28463, size: 0x8, addend: 0x0, symName: __ZNSt3__116allocator_traitsINS_9allocatorINS_3mapINS_12basic_stringIcNS_11char_traitsIcEENS1_IcEEEEN8nlohmann16json_abi_v3_11_310basic_jsonIS2_NS_6vectorES7_bxydS1_NS9_14adl_serializerENSB_IhNS1_IhEEEEvEENS_4lessIvEENS1_INS_4pairIKS7_SF_EEEEEEEEE9constructB8ne180100ISM_JRKSM_EvvEEvRSN_PT_DpOT0_, symObjAddr: 0x8064, symBinAddr: 0x100008F20, symSize: 0x30 }
  - { offset: 0x284B8, size: 0x8, addend: 0x0, symName: __ZNKSt3__110unique_ptrINS_3mapINS_12basic_stringIcNS_11char_traitsIcEENS_9allocatorIcEEEEN8nlohmann16json_abi_v3_11_310basic_jsonIS1_NS_6vectorES7_bxydS5_NS9_14adl_serializerENSB_IhNS5_IhEEEEvEENS_4lessIvEENS5_INS_4pairIKS7_SF_EEEEEEZNSF_6createISM_JRKSM_EEEPT_DpOT0_EUlPSM_E_E3getB8ne180100Ev, symObjAddr: 0x8094, symBinAddr: 0x100008F50, symSize: 0x28 }
  - { offset: 0x284DE, size: 0x8, addend: 0x0, symName: __ZNSt3__110unique_ptrINS_3mapINS_12basic_stringIcNS_11char_traitsIcEENS_9allocatorIcEEEEN8nlohmann16json_abi_v3_11_310basic_jsonIS1_NS_6vectorES7_bxydS5_NS9_14adl_serializerENSB_IhNS5_IhEEEEvEENS_4lessIvEENS5_INS_4pairIKS7_SF_EEEEEEZNSF_6createISM_JRKSM_EEEPT_DpOT0_EUlPSM_E_E7releaseB8ne180100Ev, symObjAddr: 0x80EC, symBinAddr: 0x100008FA8, symSize: 0x44 }
  - { offset: 0x28513, size: 0x8, addend: 0x0, symName: __ZNSt3__110unique_ptrINS_3mapINS_12basic_stringIcNS_11char_traitsIcEENS_9allocatorIcEEEEN8nlohmann16json_abi_v3_11_310basic_jsonIS1_NS_6vectorES7_bxydS5_NS9_14adl_serializerENSB_IhNS5_IhEEEEvEENS_4lessIvEENS5_INS_4pairIKS7_SF_EEEEEEZNSF_6createISM_JRKSM_EEEPT_DpOT0_EUlPSM_E_ED1B8ne180100Ev, symObjAddr: 0x8130, symBinAddr: 0x100008FEC, symSize: 0x2C }
  - { offset: 0x2853D, size: 0x8, addend: 0x0, symName: __ZNSt3__19allocatorINS_3mapINS_12basic_stringIcNS_11char_traitsIcEENS0_IcEEEEN8nlohmann16json_abi_v3_11_310basic_jsonIS1_NS_6vectorES6_bxydS0_NS8_14adl_serializerENSA_IhNS0_IhEEEEvEENS_4lessIvEENS0_INS_4pairIKS6_SE_EEEEEEEC2B8ne180100Ev, symObjAddr: 0x815C, symBinAddr: 0x100009018, symSize: 0x2C }
  - { offset: 0x28567, size: 0x8, addend: 0x0, symName: __ZNSt3__116__non_trivial_ifILb1ENS_9allocatorINS_3mapINS_12basic_stringIcNS_11char_traitsIcEENS1_IcEEEEN8nlohmann16json_abi_v3_11_310basic_jsonIS2_NS_6vectorES7_bxydS1_NS9_14adl_serializerENSB_IhNS1_IhEEEEvEENS_4lessIvEENS1_INS_4pairIKS7_SF_EEEEEEEEEC2B8ne180100Ev, symObjAddr: 0x8188, symBinAddr: 0x100009044, symSize: 0x14 }
  - { offset: 0x28591, size: 0x8, addend: 0x0, symName: __ZNSt3__19allocatorINS_3mapINS_12basic_stringIcNS_11char_traitsIcEENS0_IcEEEEN8nlohmann16json_abi_v3_11_310basic_jsonIS1_NS_6vectorES6_bxydS0_NS8_14adl_serializerENSA_IhNS0_IhEEEEvEENS_4lessIvEENS0_INS_4pairIKS6_SE_EEEEEEE8allocateB8ne180100Em, symObjAddr: 0x819C, symBinAddr: 0x100009058, symSize: 0x5C }
  - { offset: 0x285D0, size: 0x8, addend: 0x0, symName: __ZNSt3__116allocator_traitsINS_9allocatorINS_3mapINS_12basic_stringIcNS_11char_traitsIcEENS1_IcEEEEN8nlohmann16json_abi_v3_11_310basic_jsonIS2_NS_6vectorES7_bxydS1_NS9_14adl_serializerENSB_IhNS1_IhEEEEvEENS_4lessIvEENS1_INS_4pairIKS7_SF_EEEEEEEEE8max_sizeB8ne180100ISN_vvEEmRKSN_, symObjAddr: 0x81F8, symBinAddr: 0x1000090B4, symSize: 0x28 }
  - { offset: 0x285FC, size: 0x8, addend: 0x0, symName: __ZNSt3__110unique_ptrINS_3mapINS_12basic_stringIcNS_11char_traitsIcEENS_9allocatorIcEEEEN8nlohmann16json_abi_v3_11_310basic_jsonIS1_NS_6vectorES7_bxydS5_NS9_14adl_serializerENSB_IhNS5_IhEEEEvEENS_4lessIvEENS5_INS_4pairIKS7_SF_EEEEEEZNSF_6createISM_JRKSM_EEEPT_DpOT0_EUlPSM_E_EC2B8ne180100ILb1EvEESV_NS_16__dependent_typeINS_27__unique_ptr_deleter_sfinaeISW_EEXT_EE15__lval_ref_typeE, symObjAddr: 0x8220, symBinAddr: 0x1000090DC, symSize: 0x48 }
  - { offset: 0x2864D, size: 0x8, addend: 0x0, symName: __ZNSt3__117__compressed_pairIPNS_3mapINS_12basic_stringIcNS_11char_traitsIcEENS_9allocatorIcEEEEN8nlohmann16json_abi_v3_11_310basic_jsonIS1_NS_6vectorES7_bxydS5_NS9_14adl_serializerENSB_IhNS5_IhEEEEvEENS_4lessIvEENS5_INS_4pairIKS7_SF_EEEEEEZNSF_6createISM_JRKSM_EEEPT_DpOT0_EUlSN_E_EC1B8ne180100IRSN_RKSW_EEOSR_OT0_, symObjAddr: 0x8268, symBinAddr: 0x100009124, symSize: 0x3C }
  - { offset: 0x286A5, size: 0x8, addend: 0x0, symName: __ZNSt3__117__compressed_pairIPNS_3mapINS_12basic_stringIcNS_11char_traitsIcEENS_9allocatorIcEEEEN8nlohmann16json_abi_v3_11_310basic_jsonIS1_NS_6vectorES7_bxydS5_NS9_14adl_serializerENSB_IhNS5_IhEEEEvEENS_4lessIvEENS5_INS_4pairIKS7_SF_EEEEEEZNSF_6createISM_JRKSM_EEEPT_DpOT0_EUlSN_E_EC2B8ne180100IRSN_RKSW_EEOSR_OT0_, symObjAddr: 0x82A4, symBinAddr: 0x100009160, symSize: 0x48 }
  - { offset: 0x286FD, size: 0x8, addend: 0x0, symName: __ZNSt3__122__compressed_pair_elemIPNS_3mapINS_12basic_stringIcNS_11char_traitsIcEENS_9allocatorIcEEEEN8nlohmann16json_abi_v3_11_310basic_jsonIS1_NS_6vectorES7_bxydS5_NS9_14adl_serializerENSB_IhNS5_IhEEEEvEENS_4lessIvEENS5_INS_4pairIKS7_SF_EEEEEELi0ELb0EEC2B8ne180100IRSN_vEEOT_, symObjAddr: 0x82EC, symBinAddr: 0x1000091A8, symSize: 0x24 }
  - { offset: 0x2873F, size: 0x8, addend: 0x0, symName: __ZNSt3__122__compressed_pair_elemIZN8nlohmann16json_abi_v3_11_310basic_jsonINS_3mapENS_6vectorENS_12basic_stringIcNS_11char_traitsIcEENS_9allocatorIcEEEEbxydS9_NS2_14adl_serializerENS5_IhNS9_IhEEEEvE6createINS4_ISB_SF_NS_4lessIvEENS9_INS_4pairIKSB_SF_EEEEEEJRKSN_EEEPT_DpOT0_EUlPSN_E_Li1ELb0EEC2B8ne180100IRKSW_vEEOSQ_, symObjAddr: 0x8310, symBinAddr: 0x1000091CC, symSize: 0x24 }
  - { offset: 0x28781, size: 0x8, addend: 0x0, symName: __ZNSt3__13mapINS_12basic_stringIcNS_11char_traitsIcEENS_9allocatorIcEEEEN8nlohmann16json_abi_v3_11_310basic_jsonIS0_NS_6vectorES6_bxydS4_NS8_14adl_serializerENSA_IhNS4_IhEEEEvEENS_4lessIvEENS4_INS_4pairIKS6_SE_EEEEEC1B8ne180100ERKSL_, symObjAddr: 0x8394, symBinAddr: 0x100009250, symSize: 0x34 }
  - { offset: 0x287BA, size: 0x8, addend: 0x0, symName: __ZNSt3__13mapINS_12basic_stringIcNS_11char_traitsIcEENS_9allocatorIcEEEEN8nlohmann16json_abi_v3_11_310basic_jsonIS0_NS_6vectorES6_bxydS4_NS8_14adl_serializerENSA_IhNS4_IhEEEEvEENS_4lessIvEENS4_INS_4pairIKS6_SE_EEEEEC2B8ne180100ERKSL_, symObjAddr: 0x83C8, symBinAddr: 0x100009284, symSize: 0x88 }
  - { offset: 0x287F3, size: 0x8, addend: 0x0, symName: __ZNSt3__16__treeINS_12__value_typeINS_12basic_stringIcNS_11char_traitsIcEENS_9allocatorIcEEEEN8nlohmann16json_abi_v3_11_310basic_jsonINS_3mapENS_6vectorES7_bxydS5_NS9_14adl_serializerENSC_IhNS5_IhEEEEvEEEENS_19__map_value_compareIS7_SH_NS_4lessIvEELb1EEENS5_ISH_EEEC1ERKSN_, symObjAddr: 0x8450, symBinAddr: 0x10000930C, symSize: 0x34 }
  - { offset: 0x2882E, size: 0x8, addend: 0x0, symName: __ZNSt3__13mapINS_12basic_stringIcNS_11char_traitsIcEENS_9allocatorIcEEEEN8nlohmann16json_abi_v3_11_310basic_jsonIS0_NS_6vectorES6_bxydS4_NS8_14adl_serializerENSA_IhNS4_IhEEEEvEENS_4lessIvEENS4_INS_4pairIKS6_SE_EEEEE6insertB8ne180100INS_20__map_const_iteratorINS_21__tree_const_iteratorINS_12__value_typeIS6_SE_EEPNS_11__tree_nodeISQ_PvEElEEEEEEvT_SX_, symObjAddr: 0x8484, symBinAddr: 0x100009340, symSize: 0x8C }
  - { offset: 0x28899, size: 0x8, addend: 0x0, symName: __ZNKSt3__13mapINS_12basic_stringIcNS_11char_traitsIcEENS_9allocatorIcEEEEN8nlohmann16json_abi_v3_11_310basic_jsonIS0_NS_6vectorES6_bxydS4_NS8_14adl_serializerENSA_IhNS4_IhEEEEvEENS_4lessIvEENS4_INS_4pairIKS6_SE_EEEEE5beginB8ne180100Ev, symObjAddr: 0x8510, symBinAddr: 0x1000093CC, symSize: 0x38 }
  - { offset: 0x288BF, size: 0x8, addend: 0x0, symName: __ZNKSt3__13mapINS_12basic_stringIcNS_11char_traitsIcEENS_9allocatorIcEEEEN8nlohmann16json_abi_v3_11_310basic_jsonIS0_NS_6vectorES6_bxydS4_NS8_14adl_serializerENSA_IhNS4_IhEEEEvEENS_4lessIvEENS4_INS_4pairIKS6_SE_EEEEE3endB8ne180100Ev, symObjAddr: 0x8548, symBinAddr: 0x100009404, symSize: 0x38 }
  - { offset: 0x288E5, size: 0x8, addend: 0x0, symName: __ZNSt3__16__treeINS_12__value_typeINS_12basic_stringIcNS_11char_traitsIcEENS_9allocatorIcEEEEN8nlohmann16json_abi_v3_11_310basic_jsonINS_3mapENS_6vectorES7_bxydS5_NS9_14adl_serializerENSC_IhNS5_IhEEEEvEEEENS_19__map_value_compareIS7_SH_NS_4lessIvEELb1EEENS5_ISH_EEED1Ev, symObjAddr: 0x8580, symBinAddr: 0x10000943C, symSize: 0x2C }
  - { offset: 0x28911, size: 0x8, addend: 0x0, symName: __ZNSt3__16__treeINS_12__value_typeINS_12basic_stringIcNS_11char_traitsIcEENS_9allocatorIcEEEEN8nlohmann16json_abi_v3_11_310basic_jsonINS_3mapENS_6vectorES7_bxydS5_NS9_14adl_serializerENSC_IhNS5_IhEEEEvEEEENS_19__map_value_compareIS7_SH_NS_4lessIvEELb1EEENS5_ISH_EEEC2ERKSN_, symObjAddr: 0x85AC, symBinAddr: 0x100009468, symSize: 0x9C }
  - { offset: 0x28957, size: 0x8, addend: 0x0, symName: __ZNSt3__116allocator_traitsINS_9allocatorINS_11__tree_nodeINS_12__value_typeINS_12basic_stringIcNS_11char_traitsIcEENS1_IcEEEEN8nlohmann16json_abi_v3_11_310basic_jsonINS_3mapENS_6vectorES8_bxydS1_NSA_14adl_serializerENSD_IhNS1_IhEEEEvEEEEPvEEEEE37select_on_container_copy_constructionB8ne180100ISL_vvEESL_RKSL_, symObjAddr: 0x8648, symBinAddr: 0x100009504, symSize: 0x10 }
  - { offset: 0x28986, size: 0x8, addend: 0x0, symName: __ZNKSt3__16__treeINS_12__value_typeINS_12basic_stringIcNS_11char_traitsIcEENS_9allocatorIcEEEEN8nlohmann16json_abi_v3_11_310basic_jsonINS_3mapENS_6vectorES7_bxydS5_NS9_14adl_serializerENSC_IhNS5_IhEEEEvEEEENS_19__map_value_compareIS7_SH_NS_4lessIvEELb1EEENS5_ISH_EEE12__node_allocB8ne180100Ev, symObjAddr: 0x8658, symBinAddr: 0x100009514, symSize: 0x28 }
  - { offset: 0x289B2, size: 0x8, addend: 0x0, symName: __ZNSt3__117__compressed_pairINS_15__tree_end_nodeIPNS_16__tree_node_baseIPvEEEENS_9allocatorINS_11__tree_nodeINS_12__value_typeINS_12basic_stringIcNS_11char_traitsIcEENS7_IcEEEEN8nlohmann16json_abi_v3_11_310basic_jsonINS_3mapENS_6vectorESE_bxydS7_NSG_14adl_serializerENSJ_IhNS7_IhEEEEvEEEES3_EEEEEC1B8ne180100INS_18__default_init_tagESQ_EEOT_OT0_, symObjAddr: 0x8680, symBinAddr: 0x10000953C, symSize: 0x3C }
  - { offset: 0x28A0A, size: 0x8, addend: 0x0, symName: __ZNKSt3__16__treeINS_12__value_typeINS_12basic_stringIcNS_11char_traitsIcEENS_9allocatorIcEEEEN8nlohmann16json_abi_v3_11_310basic_jsonINS_3mapENS_6vectorES7_bxydS5_NS9_14adl_serializerENSC_IhNS5_IhEEEEvEEEENS_19__map_value_compareIS7_SH_NS_4lessIvEELb1EEENS5_ISH_EEE10value_compB8ne180100Ev, symObjAddr: 0x86BC, symBinAddr: 0x100009578, symSize: 0x28 }
  - { offset: 0x28A30, size: 0x8, addend: 0x0, symName: __ZNSt3__117__compressed_pairImNS_19__map_value_compareINS_12basic_stringIcNS_11char_traitsIcEENS_9allocatorIcEEEENS_12__value_typeIS7_N8nlohmann16json_abi_v3_11_310basic_jsonINS_3mapENS_6vectorES7_bxydS5_NSA_14adl_serializerENSD_IhNS5_IhEEEEvEEEENS_4lessIvEELb1EEEEC1B8ne180100IiRKSL_EEOT_OT0_, symObjAddr: 0x86E4, symBinAddr: 0x1000095A0, symSize: 0x3C }
  - { offset: 0x28A88, size: 0x8, addend: 0x0, symName: __ZNKSt3__117__compressed_pairINS_15__tree_end_nodeIPNS_16__tree_node_baseIPvEEEENS_9allocatorINS_11__tree_nodeINS_12__value_typeINS_12basic_stringIcNS_11char_traitsIcEENS7_IcEEEEN8nlohmann16json_abi_v3_11_310basic_jsonINS_3mapENS_6vectorESE_bxydS7_NSG_14adl_serializerENSJ_IhNS7_IhEEEEvEEEES3_EEEEE6secondB8ne180100Ev, symObjAddr: 0x8720, symBinAddr: 0x1000095DC, symSize: 0x24 }
  - { offset: 0x28AAE, size: 0x8, addend: 0x0, symName: __ZNKSt3__122__compressed_pair_elemINS_9allocatorINS_11__tree_nodeINS_12__value_typeINS_12basic_stringIcNS_11char_traitsIcEENS1_IcEEEEN8nlohmann16json_abi_v3_11_310basic_jsonINS_3mapENS_6vectorES8_bxydS1_NSA_14adl_serializerENSD_IhNS1_IhEEEEvEEEEPvEEEELi1ELb1EE5__getB8ne180100Ev, symObjAddr: 0x8744, symBinAddr: 0x100009600, symSize: 0x14 }
  - { offset: 0x28AD4, size: 0x8, addend: 0x0, symName: __ZNSt3__117__compressed_pairINS_15__tree_end_nodeIPNS_16__tree_node_baseIPvEEEENS_9allocatorINS_11__tree_nodeINS_12__value_typeINS_12basic_stringIcNS_11char_traitsIcEENS7_IcEEEEN8nlohmann16json_abi_v3_11_310basic_jsonINS_3mapENS_6vectorESE_bxydS7_NSG_14adl_serializerENSJ_IhNS7_IhEEEEvEEEES3_EEEEEC2B8ne180100INS_18__default_init_tagESQ_EEOT_OT0_, symObjAddr: 0x8758, symBinAddr: 0x100009614, symSize: 0x40 }
  - { offset: 0x28B2C, size: 0x8, addend: 0x0, symName: __ZNSt3__122__compressed_pair_elemINS_15__tree_end_nodeIPNS_16__tree_node_baseIPvEEEELi0ELb0EEC2B8ne180100ENS_18__default_init_tagE, symObjAddr: 0x8798, symBinAddr: 0x100009654, symSize: 0x2C }
  - { offset: 0x28B60, size: 0x8, addend: 0x0, symName: __ZNSt3__122__compressed_pair_elemINS_9allocatorINS_11__tree_nodeINS_12__value_typeINS_12basic_stringIcNS_11char_traitsIcEENS1_IcEEEEN8nlohmann16json_abi_v3_11_310basic_jsonINS_3mapENS_6vectorES8_bxydS1_NSA_14adl_serializerENSD_IhNS1_IhEEEEvEEEEPvEEEELi1ELb1EEC2B8ne180100ISL_vEEOT_, symObjAddr: 0x87C4, symBinAddr: 0x100009680, symSize: 0x18 }
  - { offset: 0x28BA2, size: 0x8, addend: 0x0, symName: __ZNSt3__115__tree_end_nodeIPNS_16__tree_node_baseIPvEEEC1B8ne180100Ev, symObjAddr: 0x87DC, symBinAddr: 0x100009698, symSize: 0x2C }
  - { offset: 0x28BCC, size: 0x8, addend: 0x0, symName: __ZNSt3__115__tree_end_nodeIPNS_16__tree_node_baseIPvEEEC2B8ne180100Ev, symObjAddr: 0x8808, symBinAddr: 0x1000096C4, symSize: 0x18 }
  - { offset: 0x28BF6, size: 0x8, addend: 0x0, symName: __ZNKSt3__117__compressed_pairImNS_19__map_value_compareINS_12basic_stringIcNS_11char_traitsIcEENS_9allocatorIcEEEENS_12__value_typeIS7_N8nlohmann16json_abi_v3_11_310basic_jsonINS_3mapENS_6vectorES7_bxydS5_NSA_14adl_serializerENSD_IhNS5_IhEEEEvEEEENS_4lessIvEELb1EEEE6secondB8ne180100Ev, symObjAddr: 0x8820, symBinAddr: 0x1000096DC, symSize: 0x24 }
  - { offset: 0x28C1C, size: 0x8, addend: 0x0, symName: __ZNKSt3__122__compressed_pair_elemINS_19__map_value_compareINS_12basic_stringIcNS_11char_traitsIcEENS_9allocatorIcEEEENS_12__value_typeIS7_N8nlohmann16json_abi_v3_11_310basic_jsonINS_3mapENS_6vectorES7_bxydS5_NSA_14adl_serializerENSD_IhNS5_IhEEEEvEEEENS_4lessIvEELb1EEELi1ELb1EE5__getB8ne180100Ev, symObjAddr: 0x8844, symBinAddr: 0x100009700, symSize: 0x14 }
  - { offset: 0x28C42, size: 0x8, addend: 0x0, symName: __ZNSt3__117__compressed_pairImNS_19__map_value_compareINS_12basic_stringIcNS_11char_traitsIcEENS_9allocatorIcEEEENS_12__value_typeIS7_N8nlohmann16json_abi_v3_11_310basic_jsonINS_3mapENS_6vectorES7_bxydS5_NSA_14adl_serializerENSD_IhNS5_IhEEEEvEEEENS_4lessIvEELb1EEEEC2B8ne180100IiRKSL_EEOT_OT0_, symObjAddr: 0x8858, symBinAddr: 0x100009714, symSize: 0x44 }
  - { offset: 0x28C9A, size: 0x8, addend: 0x0, symName: __ZNSt3__122__compressed_pair_elemImLi0ELb0EEC2B8ne180100IivEEOT_, symObjAddr: 0x889C, symBinAddr: 0x100009758, symSize: 0x24 }
  - { offset: 0x28CDC, size: 0x8, addend: 0x0, symName: __ZNSt3__122__compressed_pair_elemINS_19__map_value_compareINS_12basic_stringIcNS_11char_traitsIcEENS_9allocatorIcEEEENS_12__value_typeIS7_N8nlohmann16json_abi_v3_11_310basic_jsonINS_3mapENS_6vectorES7_bxydS5_NSA_14adl_serializerENSD_IhNS5_IhEEEEvEEEENS_4lessIvEELb1EEELi1ELb1EEC2B8ne180100IRKSL_vEEOT_, symObjAddr: 0x88C0, symBinAddr: 0x10000977C, symSize: 0x18 }
  - { offset: 0x28D1E, size: 0x8, addend: 0x0, symName: __ZNKSt3__13mapINS_12basic_stringIcNS_11char_traitsIcEENS_9allocatorIcEEEEN8nlohmann16json_abi_v3_11_310basic_jsonIS0_NS_6vectorES6_bxydS4_NS8_14adl_serializerENSA_IhNS4_IhEEEEvEENS_4lessIvEENS4_INS_4pairIKS6_SE_EEEEE4cendB8ne180100Ev, symObjAddr: 0x88D8, symBinAddr: 0x100009794, symSize: 0x2C }
  - { offset: 0x28D44, size: 0x8, addend: 0x0, symName: __ZNSt3__13mapINS_12basic_stringIcNS_11char_traitsIcEENS_9allocatorIcEEEEN8nlohmann16json_abi_v3_11_310basic_jsonIS0_NS_6vectorES6_bxydS4_NS8_14adl_serializerENSA_IhNS4_IhEEEEvEENS_4lessIvEENS4_INS_4pairIKS6_SE_EEEEE6insertB8ne180100ENS_20__map_const_iteratorINS_21__tree_const_iteratorINS_12__value_typeIS6_SE_EEPNS_11__tree_nodeISP_PvEElEEEERKSJ_, symObjAddr: 0x8934, symBinAddr: 0x1000097F0, symSize: 0x50 }
  - { offset: 0x28D88, size: 0x8, addend: 0x0, symName: __ZNSt3__120__map_const_iteratorINS_21__tree_const_iteratorINS_12__value_typeINS_12basic_stringIcNS_11char_traitsIcEENS_9allocatorIcEEEEN8nlohmann16json_abi_v3_11_310basic_jsonINS_3mapENS_6vectorES8_bxydS6_NSA_14adl_serializerENSD_IhNS6_IhEEEEvEEEEPNS_11__tree_nodeISI_PvEElEEEC1B8ne180100ESN_, symObjAddr: 0x8984, symBinAddr: 0x100009840, symSize: 0x34 }
  - { offset: 0x28DC1, size: 0x8, addend: 0x0, symName: __ZNKSt3__120__map_const_iteratorINS_21__tree_const_iteratorINS_12__value_typeINS_12basic_stringIcNS_11char_traitsIcEENS_9allocatorIcEEEEN8nlohmann16json_abi_v3_11_310basic_jsonINS_3mapENS_6vectorES8_bxydS6_NSA_14adl_serializerENSD_IhNS6_IhEEEEvEEEEPNS_11__tree_nodeISI_PvEElEEEdeB8ne180100Ev, symObjAddr: 0x89B8, symBinAddr: 0x100009874, symSize: 0x28 }
  - { offset: 0x28DE7, size: 0x8, addend: 0x0, symName: __ZNSt3__120__map_const_iteratorINS_21__tree_const_iteratorINS_12__value_typeINS_12basic_stringIcNS_11char_traitsIcEENS_9allocatorIcEEEEN8nlohmann16json_abi_v3_11_310basic_jsonINS_3mapENS_6vectorES8_bxydS6_NSA_14adl_serializerENSD_IhNS6_IhEEEEvEEEEPNS_11__tree_nodeISI_PvEElEEEppB8ne180100Ev, symObjAddr: 0x89E0, symBinAddr: 0x10000989C, symSize: 0x2C }
  - { offset: 0x28E0D, size: 0x8, addend: 0x0, symName: __ZNSt3__16__treeINS_12__value_typeINS_12basic_stringIcNS_11char_traitsIcEENS_9allocatorIcEEEEN8nlohmann16json_abi_v3_11_310basic_jsonINS_3mapENS_6vectorES7_bxydS5_NS9_14adl_serializerENSC_IhNS5_IhEEEEvEEEENS_19__map_value_compareIS7_SH_NS_4lessIvEELb1EEENS5_ISH_EEE15__insert_uniqueB8ne180100ENS_21__tree_const_iteratorISH_PNS_11__tree_nodeISH_PvEElEERKNS_4pairIKS7_SG_EE, symObjAddr: 0x8A70, symBinAddr: 0x10000992C, symSize: 0x64 }
  - { offset: 0x28E51, size: 0x8, addend: 0x0, symName: __ZNSt3__16__treeINS_12__value_typeINS_12basic_stringIcNS_11char_traitsIcEENS_9allocatorIcEEEEN8nlohmann16json_abi_v3_11_310basic_jsonINS_3mapENS_6vectorES7_bxydS5_NS9_14adl_serializerENSC_IhNS5_IhEEEEvEEEENS_19__map_value_compareIS7_SH_NS_4lessIvEELb1EEENS5_ISH_EEE30__emplace_hint_unique_key_argsIS7_JRKNS_4pairIKS7_SG_EEEEENSP_INS_15__tree_iteratorISH_PNS_11__tree_nodeISH_PvEElEEbEENS_21__tree_const_iteratorISH_SY_lEERKT_DpOT0_, symObjAddr: 0x8AD4, symBinAddr: 0x100009990, symSize: 0x104 }
  - { offset: 0x28F1D, size: 0x8, addend: 0x0, symName: __ZNSt3__122__tree_key_value_typesINS_12__value_typeINS_12basic_stringIcNS_11char_traitsIcEENS_9allocatorIcEEEEN8nlohmann16json_abi_v3_11_310basic_jsonINS_3mapENS_6vectorES7_bxydS5_NS9_14adl_serializerENSC_IhNS5_IhEEEEvEEEEE9__get_keyB8ne180100IKNS_4pairIKS7_SG_EELi0EEERSL_RT_, symObjAddr: 0x8BD8, symBinAddr: 0x100009A94, symSize: 0x14 }
  - { offset: 0x28F50, size: 0x8, addend: 0x0, symName: __ZNSt3__16__treeINS_12__value_typeINS_12basic_stringIcNS_11char_traitsIcEENS_9allocatorIcEEEEN8nlohmann16json_abi_v3_11_310basic_jsonINS_3mapENS_6vectorES7_bxydS5_NS9_14adl_serializerENSC_IhNS5_IhEEEEvEEEENS_19__map_value_compareIS7_SH_NS_4lessIvEELb1EEENS5_ISH_EEE12__find_equalIS7_EERPNS_16__tree_node_baseIPvEENS_21__tree_const_iteratorISH_PNS_11__tree_nodeISH_SQ_EElEERPNS_15__tree_end_nodeISS_EEST_RKT_, symObjAddr: 0x8BEC, symBinAddr: 0x100009AA8, symSize: 0x304 }
  - { offset: 0x28FFB, size: 0x8, addend: 0x0, symName: __ZNSt3__16__treeINS_12__value_typeINS_12basic_stringIcNS_11char_traitsIcEENS_9allocatorIcEEEEN8nlohmann16json_abi_v3_11_310basic_jsonINS_3mapENS_6vectorES7_bxydS5_NS9_14adl_serializerENSC_IhNS5_IhEEEEvEEEENS_19__map_value_compareIS7_SH_NS_4lessIvEELb1EEENS5_ISH_EEE16__construct_nodeIJRKNS_4pairIKS7_SG_EEEEENS_10unique_ptrINS_11__tree_nodeISH_PvEENS_22__tree_node_destructorINS5_ISX_EEEEEEDpOT_, symObjAddr: 0x8EF0, symBinAddr: 0x100009DAC, symSize: 0x110 }
  - { offset: 0x2905C, size: 0x8, addend: 0x0, symName: __ZNSt3__16__treeINS_12__value_typeINS_12basic_stringIcNS_11char_traitsIcEENS_9allocatorIcEEEEN8nlohmann16json_abi_v3_11_310basic_jsonINS_3mapENS_6vectorES7_bxydS5_NS9_14adl_serializerENSC_IhNS5_IhEEEEvEEEENS_19__map_value_compareIS7_SH_NS_4lessIvEELb1EEENS5_ISH_EEE16__insert_node_atEPNS_15__tree_end_nodeIPNS_16__tree_node_baseIPvEEEERSS_SS_, symObjAddr: 0x9000, symBinAddr: 0x100009EBC, symSize: 0xCC }
  - { offset: 0x290B1, size: 0x8, addend: 0x0, symName: __ZNKSt3__110unique_ptrINS_11__tree_nodeINS_12__value_typeINS_12basic_stringIcNS_11char_traitsIcEENS_9allocatorIcEEEEN8nlohmann16json_abi_v3_11_310basic_jsonINS_3mapENS_6vectorES8_bxydS6_NSA_14adl_serializerENSD_IhNS6_IhEEEEvEEEEPvEENS_22__tree_node_destructorINS6_ISK_EEEEE3getB8ne180100Ev, symObjAddr: 0x90CC, symBinAddr: 0x100009F88, symSize: 0x28 }
  - { offset: 0x290D7, size: 0x8, addend: 0x0, symName: __ZNSt3__110unique_ptrINS_11__tree_nodeINS_12__value_typeINS_12basic_stringIcNS_11char_traitsIcEENS_9allocatorIcEEEEN8nlohmann16json_abi_v3_11_310basic_jsonINS_3mapENS_6vectorES8_bxydS6_NSA_14adl_serializerENSD_IhNS6_IhEEEEvEEEEPvEENS_22__tree_node_destructorINS6_ISK_EEEEE7releaseB8ne180100Ev, symObjAddr: 0x90F4, symBinAddr: 0x100009FB0, symSize: 0x44 }
  - { offset: 0x2910C, size: 0x8, addend: 0x0, symName: __ZNSt3__110unique_ptrINS_11__tree_nodeINS_12__value_typeINS_12basic_stringIcNS_11char_traitsIcEENS_9allocatorIcEEEEN8nlohmann16json_abi_v3_11_310basic_jsonINS_3mapENS_6vectorES8_bxydS6_NSA_14adl_serializerENSD_IhNS6_IhEEEEvEEEEPvEENS_22__tree_node_destructorINS6_ISK_EEEEED1B8ne180100Ev, symObjAddr: 0x9138, symBinAddr: 0x100009FF4, symSize: 0x2C }
  - { offset: 0x29136, size: 0x8, addend: 0x0, symName: __ZNSt3__115__tree_iteratorINS_12__value_typeINS_12basic_stringIcNS_11char_traitsIcEENS_9allocatorIcEEEEN8nlohmann16json_abi_v3_11_310basic_jsonINS_3mapENS_6vectorES7_bxydS5_NS9_14adl_serializerENSC_IhNS5_IhEEEEvEEEEPNS_11__tree_nodeISH_PvEElEC1B8ne180100ESL_, symObjAddr: 0x9164, symBinAddr: 0x10000A020, symSize: 0x34 }
  - { offset: 0x2917B, size: 0x8, addend: 0x0, symName: __ZNSt3__14pairINS_15__tree_iteratorINS_12__value_typeINS_12basic_stringIcNS_11char_traitsIcEENS_9allocatorIcEEEEN8nlohmann16json_abi_v3_11_310basic_jsonINS_3mapENS_6vectorES8_bxydS6_NSA_14adl_serializerENSD_IhNS6_IhEEEEvEEEEPNS_11__tree_nodeISI_PvEElEEbEC1B8ne180100ISN_RbLi0EEEOT_OT0_, symObjAddr: 0x9198, symBinAddr: 0x10000A054, symSize: 0x3C }
  - { offset: 0x291D9, size: 0x8, addend: 0x0, symName: __ZNSt3__121__tree_const_iteratorINS_12__value_typeINS_12basic_stringIcNS_11char_traitsIcEENS_9allocatorIcEEEEN8nlohmann16json_abi_v3_11_310basic_jsonINS_3mapENS_6vectorES7_bxydS5_NS9_14adl_serializerENSC_IhNS5_IhEEEEvEEEEPNS_11__tree_nodeISH_PvEElEC1B8ne180100ENS_15__tree_iteratorISH_SL_lEE, symObjAddr: 0x91D4, symBinAddr: 0x10000A090, symSize: 0x34 }
  - { offset: 0x29212, size: 0x8, addend: 0x0, symName: __ZNSt3__16__treeINS_12__value_typeINS_12basic_stringIcNS_11char_traitsIcEENS_9allocatorIcEEEEN8nlohmann16json_abi_v3_11_310basic_jsonINS_3mapENS_6vectorES7_bxydS5_NS9_14adl_serializerENSC_IhNS5_IhEEEEvEEEENS_19__map_value_compareIS7_SH_NS_4lessIvEELb1EEENS5_ISH_EEE10value_compB8ne180100Ev, symObjAddr: 0x9208, symBinAddr: 0x10000A0C4, symSize: 0x28 }
  - { offset: 0x29238, size: 0x8, addend: 0x0, symName: __ZNKSt3__119__map_value_compareINS_12basic_stringIcNS_11char_traitsIcEENS_9allocatorIcEEEENS_12__value_typeIS6_N8nlohmann16json_abi_v3_11_310basic_jsonINS_3mapENS_6vectorES6_bxydS4_NS9_14adl_serializerENSC_IhNS4_IhEEEEvEEEENS_4lessIvEELb1EEclB8ne180100ERKS6_RKSH_, symObjAddr: 0x9230, symBinAddr: 0x10000A0EC, symSize: 0x50 }
  - { offset: 0x2927C, size: 0x8, addend: 0x0, symName: __ZNKSt3__121__tree_const_iteratorINS_12__value_typeINS_12basic_stringIcNS_11char_traitsIcEENS_9allocatorIcEEEEN8nlohmann16json_abi_v3_11_310basic_jsonINS_3mapENS_6vectorES7_bxydS5_NS9_14adl_serializerENSC_IhNS5_IhEEEEvEEEEPNS_11__tree_nodeISH_PvEElEdeB8ne180100Ev, symObjAddr: 0x9280, symBinAddr: 0x10000A13C, symSize: 0x28 }
  - { offset: 0x292A2, size: 0x8, addend: 0x0, symName: __ZNKSt3__119__map_value_compareINS_12basic_stringIcNS_11char_traitsIcEENS_9allocatorIcEEEENS_12__value_typeIS6_N8nlohmann16json_abi_v3_11_310basic_jsonINS_3mapENS_6vectorES6_bxydS4_NS9_14adl_serializerENSC_IhNS4_IhEEEEvEEEENS_4lessIvEELb1EEclB8ne180100ERKSH_RKS6_, symObjAddr: 0x92A8, symBinAddr: 0x10000A164, symSize: 0x48 }
  - { offset: 0x292E6, size: 0x8, addend: 0x0, symName: __ZNSt3__121__tree_const_iteratorINS_12__value_typeINS_12basic_stringIcNS_11char_traitsIcEENS_9allocatorIcEEEEN8nlohmann16json_abi_v3_11_310basic_jsonINS_3mapENS_6vectorES7_bxydS5_NS9_14adl_serializerENSC_IhNS5_IhEEEEvEEEEPNS_11__tree_nodeISH_PvEElEmmB8ne180100Ev, symObjAddr: 0x92F0, symBinAddr: 0x10000A1AC, symSize: 0x38 }
  - { offset: 0x2930C, size: 0x8, addend: 0x0, symName: __ZNSt3__16__treeINS_12__value_typeINS_12basic_stringIcNS_11char_traitsIcEENS_9allocatorIcEEEEN8nlohmann16json_abi_v3_11_310basic_jsonINS_3mapENS_6vectorES7_bxydS5_NS9_14adl_serializerENSC_IhNS5_IhEEEEvEEEENS_19__map_value_compareIS7_SH_NS_4lessIvEELb1EEENS5_ISH_EEE12__find_equalIS7_EERPNS_16__tree_node_baseIPvEERPNS_15__tree_end_nodeISS_EERKT_, symObjAddr: 0x9328, symBinAddr: 0x10000A1E4, symSize: 0x184 }
  - { offset: 0x29379, size: 0x8, addend: 0x0, symName: __ZNKSt3__121__tree_const_iteratorINS_12__value_typeINS_12basic_stringIcNS_11char_traitsIcEENS_9allocatorIcEEEEN8nlohmann16json_abi_v3_11_310basic_jsonINS_3mapENS_6vectorES7_bxydS5_NS9_14adl_serializerENSC_IhNS5_IhEEEEvEEEEPNS_11__tree_nodeISH_PvEElE8__get_npB8ne180100Ev, symObjAddr: 0x94E8, symBinAddr: 0x10000A3A4, symSize: 0x18 }
  - { offset: 0x2939F, size: 0x8, addend: 0x0, symName: __ZNSt3__121__tree_const_iteratorINS_12__value_typeINS_12basic_stringIcNS_11char_traitsIcEENS_9allocatorIcEEEEN8nlohmann16json_abi_v3_11_310basic_jsonINS_3mapENS_6vectorES7_bxydS5_NS9_14adl_serializerENSC_IhNS5_IhEEEEvEEEEPNS_11__tree_nodeISH_PvEElEC2B8ne180100ENS_15__tree_iteratorISH_SL_lEE, symObjAddr: 0x9500, symBinAddr: 0x10000A3BC, symSize: 0x20 }
  - { offset: 0x293D8, size: 0x8, addend: 0x0, symName: __ZNSt3__117__compressed_pairImNS_19__map_value_compareINS_12basic_stringIcNS_11char_traitsIcEENS_9allocatorIcEEEENS_12__value_typeIS7_N8nlohmann16json_abi_v3_11_310basic_jsonINS_3mapENS_6vectorES7_bxydS5_NSA_14adl_serializerENSD_IhNS5_IhEEEEvEEEENS_4lessIvEELb1EEEE6secondB8ne180100Ev, symObjAddr: 0x9520, symBinAddr: 0x10000A3DC, symSize: 0x24 }
  - { offset: 0x293FE, size: 0x8, addend: 0x0, symName: __ZNSt3__122__compressed_pair_elemINS_19__map_value_compareINS_12basic_stringIcNS_11char_traitsIcEENS_9allocatorIcEEEENS_12__value_typeIS7_N8nlohmann16json_abi_v3_11_310basic_jsonINS_3mapENS_6vectorES7_bxydS5_NSA_14adl_serializerENSD_IhNS5_IhEEEEvEEEENS_4lessIvEELb1EEELi1ELb1EE5__getB8ne180100Ev, symObjAddr: 0x9544, symBinAddr: 0x10000A400, symSize: 0x14 }
  - { offset: 0x2942A, size: 0x8, addend: 0x0, symName: __ZNKSt3__14lessIvEclB8ne180100IRKNS_12basic_stringIcNS_11char_traitsIcEENS_9allocatorIcEEEESA_EEDTltclsr3stdE7forwardIT_Efp_Eclsr3stdE7forwardIT0_Efp0_EEOSB_OSC_, symObjAddr: 0x9558, symBinAddr: 0x10000A414, symSize: 0x50 }
  - { offset: 0x29480, size: 0x8, addend: 0x0, symName: __ZNKSt3__112__value_typeINS_12basic_stringIcNS_11char_traitsIcEENS_9allocatorIcEEEEN8nlohmann16json_abi_v3_11_310basic_jsonINS_3mapENS_6vectorES6_bxydS4_NS8_14adl_serializerENSB_IhNS4_IhEEEEvEEE11__get_valueB8ne180100Ev, symObjAddr: 0x95A8, symBinAddr: 0x10000A464, symSize: 0x24 }
  - { offset: 0x294B6, size: 0x8, addend: 0x0, symName: __ZNSt3__120_CmpUnspecifiedParamC1B8ne180100EMS0_i, symObjAddr: 0x964C, symBinAddr: 0x10000A508, symSize: 0x34 }
  - { offset: 0x294EA, size: 0x8, addend: 0x0, symName: __ZNKSt3__112basic_stringIcNS_11char_traitsIcEENS_9allocatorIcEEEcvNS_17basic_string_viewIcS2_EEB8ne180100Ev, symObjAddr: 0x96FC, symBinAddr: 0x10000A5B8, symSize: 0x50 }
  - { offset: 0x29510, size: 0x8, addend: 0x0, symName: __ZNKSt3__117basic_string_viewIcNS_11char_traitsIcEEE7compareES3_, symObjAddr: 0x974C, symBinAddr: 0x10000A608, symSize: 0x13C }
  - { offset: 0x29563, size: 0x8, addend: 0x0, symName: __ZNKSt3__117basic_string_viewIcNS_11char_traitsIcEEE4sizeB8ne180100Ev, symObjAddr: 0x98B4, symBinAddr: 0x10000A770, symSize: 0x18 }
  - { offset: 0x29589, size: 0x8, addend: 0x0, symName: __ZNSt3__111char_traitsIcE7compareB8ne180100EPKcS3_m, symObjAddr: 0x98CC, symBinAddr: 0x10000A788, symSize: 0x34 }
  - { offset: 0x295C8, size: 0x8, addend: 0x0, symName: __ZNKSt3__117basic_string_viewIcNS_11char_traitsIcEEE4dataB8ne180100Ev, symObjAddr: 0x9900, symBinAddr: 0x10000A7BC, symSize: 0x18 }
  - { offset: 0x295F9, size: 0x8, addend: 0x0, symName: __ZNKSt3__16__lessIvvEclB8ne180100ImmEEbRKT_RKT0_, symObjAddr: 0x996C, symBinAddr: 0x10000A828, symSize: 0x34 }
  - { offset: 0x2964D, size: 0x8, addend: 0x0, symName: __ZNSt3__117basic_string_viewIcNS_11char_traitsIcEEEC1B8ne180100EPKcm, symObjAddr: 0x99A0, symBinAddr: 0x10000A85C, symSize: 0x3C }
  - { offset: 0x29695, size: 0x8, addend: 0x0, symName: __ZNSt3__117basic_string_viewIcNS_11char_traitsIcEEEC2B8ne180100EPKcm, symObjAddr: 0x99DC, symBinAddr: 0x10000A898, symSize: 0x2C }
  - { offset: 0x296DD, size: 0x8, addend: 0x0, symName: __ZNSt3__120_CmpUnspecifiedParamC2B8ne180100EMS0_i, symObjAddr: 0x9A08, symBinAddr: 0x10000A8C4, symSize: 0x18 }
  - { offset: 0x29711, size: 0x8, addend: 0x0, symName: __ZNKSt3__116__tree_node_baseIPvE15__parent_unsafeB8ne180100Ev, symObjAddr: 0x9B68, symBinAddr: 0x10000AA24, symSize: 0x18 }
  - { offset: 0x29737, size: 0x8, addend: 0x0, symName: __ZNKSt3__16__treeINS_12__value_typeINS_12basic_stringIcNS_11char_traitsIcEENS_9allocatorIcEEEEN8nlohmann16json_abi_v3_11_310basic_jsonINS_3mapENS_6vectorES7_bxydS5_NS9_14adl_serializerENSC_IhNS5_IhEEEEvEEEENS_19__map_value_compareIS7_SH_NS_4lessIvEELb1EEENS5_ISH_EEE6__rootB8ne180100Ev, symObjAddr: 0x9B80, symBinAddr: 0x10000AA3C, symSize: 0x28 }
  - { offset: 0x2975D, size: 0x8, addend: 0x0, symName: __ZNKSt3__16__treeINS_12__value_typeINS_12basic_stringIcNS_11char_traitsIcEENS_9allocatorIcEEEEN8nlohmann16json_abi_v3_11_310basic_jsonINS_3mapENS_6vectorES7_bxydS5_NS9_14adl_serializerENSC_IhNS5_IhEEEEvEEEENS_19__map_value_compareIS7_SH_NS_4lessIvEELb1EEENS5_ISH_EEE10__root_ptrB8ne180100Ev, symObjAddr: 0x9BA8, symBinAddr: 0x10000AA64, symSize: 0x24 }
  - { offset: 0x29783, size: 0x8, addend: 0x0, symName: __ZNKSt3__16__treeINS_12__value_typeINS_12basic_stringIcNS_11char_traitsIcEENS_9allocatorIcEEEEN8nlohmann16json_abi_v3_11_310basic_jsonINS_3mapENS_6vectorES7_bxydS5_NS9_14adl_serializerENSC_IhNS5_IhEEEEvEEEENS_19__map_value_compareIS7_SH_NS_4lessIvEELb1EEENS5_ISH_EEE10__end_nodeB8ne180100Ev, symObjAddr: 0x9BCC, symBinAddr: 0x10000AA88, symSize: 0x2C }
  - { offset: 0x297A9, size: 0x8, addend: 0x0, symName: __ZNKSt3__117__compressed_pairINS_15__tree_end_nodeIPNS_16__tree_node_baseIPvEEEENS_9allocatorINS_11__tree_nodeINS_12__value_typeINS_12basic_stringIcNS_11char_traitsIcEENS7_IcEEEEN8nlohmann16json_abi_v3_11_310basic_jsonINS_3mapENS_6vectorESE_bxydS7_NSG_14adl_serializerENSJ_IhNS7_IhEEEEvEEEES3_EEEEE5firstB8ne180100Ev, symObjAddr: 0x9BF8, symBinAddr: 0x10000AAB4, symSize: 0x24 }
  - { offset: 0x297CF, size: 0x8, addend: 0x0, symName: __ZNKSt3__122__compressed_pair_elemINS_15__tree_end_nodeIPNS_16__tree_node_baseIPvEEEELi0ELb0EE5__getB8ne180100Ev, symObjAddr: 0x9C1C, symBinAddr: 0x10000AAD8, symSize: 0x14 }
  - { offset: 0x297F5, size: 0x8, addend: 0x0, symName: __ZNSt3__121__tree_const_iteratorINS_12__value_typeINS_12basic_stringIcNS_11char_traitsIcEENS_9allocatorIcEEEEN8nlohmann16json_abi_v3_11_310basic_jsonINS_3mapENS_6vectorES7_bxydS5_NS9_14adl_serializerENSC_IhNS5_IhEEEEvEEEEPNS_11__tree_nodeISH_PvEElEppB8ne180100Ev, symObjAddr: 0x9D20, symBinAddr: 0x10000ABDC, symSize: 0x38 }
  - { offset: 0x2981B, size: 0x8, addend: 0x0, symName: __ZNSt3__16__treeINS_12__value_typeINS_12basic_stringIcNS_11char_traitsIcEENS_9allocatorIcEEEEN8nlohmann16json_abi_v3_11_310basic_jsonINS_3mapENS_6vectorES7_bxydS5_NS9_14adl_serializerENSC_IhNS5_IhEEEEvEEEENS_19__map_value_compareIS7_SH_NS_4lessIvEELb1EEENS5_ISH_EEE12__node_allocB8ne180100Ev, symObjAddr: 0x9E18, symBinAddr: 0x10000ACD4, symSize: 0x28 }
  - { offset: 0x29841, size: 0x8, addend: 0x0, symName: __ZNSt3__116allocator_traitsINS_9allocatorINS_11__tree_nodeINS_12__value_typeINS_12basic_stringIcNS_11char_traitsIcEENS1_IcEEEEN8nlohmann16json_abi_v3_11_310basic_jsonINS_3mapENS_6vectorES8_bxydS1_NSA_14adl_serializerENSD_IhNS1_IhEEEEvEEEEPvEEEEE8allocateB8ne180100ERSL_m, symObjAddr: 0x9E40, symBinAddr: 0x10000ACFC, symSize: 0x2C }
  - { offset: 0x29874, size: 0x8, addend: 0x0, symName: __ZNSt3__122__tree_node_destructorINS_9allocatorINS_11__tree_nodeINS_12__value_typeINS_12basic_stringIcNS_11char_traitsIcEENS1_IcEEEEN8nlohmann16json_abi_v3_11_310basic_jsonINS_3mapENS_6vectorES8_bxydS1_NSA_14adl_serializerENSD_IhNS1_IhEEEEvEEEEPvEEEEEC1B8ne180100ERSL_b, symObjAddr: 0x9E6C, symBinAddr: 0x10000AD28, symSize: 0x48 }
  - { offset: 0x298C2, size: 0x8, addend: 0x0, symName: __ZNSt3__110unique_ptrINS_11__tree_nodeINS_12__value_typeINS_12basic_stringIcNS_11char_traitsIcEENS_9allocatorIcEEEEN8nlohmann16json_abi_v3_11_310basic_jsonINS_3mapENS_6vectorES8_bxydS6_NSA_14adl_serializerENSD_IhNS6_IhEEEEvEEEEPvEENS_22__tree_node_destructorINS6_ISK_EEEEEC1B8ne180100ILb1EvEEPSK_NS_16__dependent_typeINS_27__unique_ptr_deleter_sfinaeISN_EEXT_EE20__good_rval_ref_typeE, symObjAddr: 0x9EB4, symBinAddr: 0x10000AD70, symSize: 0x3C }
  - { offset: 0x29913, size: 0x8, addend: 0x0, symName: __ZNSt3__116allocator_traitsINS_9allocatorINS_11__tree_nodeINS_12__value_typeINS_12basic_stringIcNS_11char_traitsIcEENS1_IcEEEEN8nlohmann16json_abi_v3_11_310basic_jsonINS_3mapENS_6vectorES8_bxydS1_NSA_14adl_serializerENSD_IhNS1_IhEEEEvEEEEPvEEEEE9constructB8ne180100INS_4pairIKS8_SH_EEJRKSQ_EvvEEvRSL_PT_DpOT0_, symObjAddr: 0x9EF0, symBinAddr: 0x10000ADAC, symSize: 0x30 }
  - { offset: 0x29968, size: 0x8, addend: 0x0, symName: __ZNSt3__122__tree_key_value_typesINS_12__value_typeINS_12basic_stringIcNS_11char_traitsIcEENS_9allocatorIcEEEEN8nlohmann16json_abi_v3_11_310basic_jsonINS_3mapENS_6vectorES7_bxydS5_NS9_14adl_serializerENSC_IhNS5_IhEEEEvEEEEE9__get_ptrB8ne180100ERSH_, symObjAddr: 0x9F20, symBinAddr: 0x10000ADDC, symSize: 0x24 }
  - { offset: 0x2998C, size: 0x8, addend: 0x0, symName: __ZNKSt3__110unique_ptrINS_11__tree_nodeINS_12__value_typeINS_12basic_stringIcNS_11char_traitsIcEENS_9allocatorIcEEEEN8nlohmann16json_abi_v3_11_310basic_jsonINS_3mapENS_6vectorES8_bxydS6_NSA_14adl_serializerENSD_IhNS6_IhEEEEvEEEEPvEENS_22__tree_node_destructorINS6_ISK_EEEEEptB8ne180100Ev, symObjAddr: 0x9F44, symBinAddr: 0x10000AE00, symSize: 0x28 }
  - { offset: 0x299B2, size: 0x8, addend: 0x0, symName: __ZNSt3__110unique_ptrINS_11__tree_nodeINS_12__value_typeINS_12basic_stringIcNS_11char_traitsIcEENS_9allocatorIcEEEEN8nlohmann16json_abi_v3_11_310basic_jsonINS_3mapENS_6vectorES8_bxydS6_NSA_14adl_serializerENSD_IhNS6_IhEEEEvEEEEPvEENS_22__tree_node_destructorINS6_ISK_EEEEE11get_deleterB8ne180100Ev, symObjAddr: 0x9F6C, symBinAddr: 0x10000AE28, symSize: 0x24 }
  - { offset: 0x299D8, size: 0x8, addend: 0x0, symName: __ZNSt3__117__compressed_pairINS_15__tree_end_nodeIPNS_16__tree_node_baseIPvEEEENS_9allocatorINS_11__tree_nodeINS_12__value_typeINS_12basic_stringIcNS_11char_traitsIcEENS7_IcEEEEN8nlohmann16json_abi_v3_11_310basic_jsonINS_3mapENS_6vectorESE_bxydS7_NSG_14adl_serializerENSJ_IhNS7_IhEEEEvEEEES3_EEEEE6secondB8ne180100Ev, symObjAddr: 0x9F90, symBinAddr: 0x10000AE4C, symSize: 0x24 }
  - { offset: 0x299FE, size: 0x8, addend: 0x0, symName: __ZNSt3__122__compressed_pair_elemINS_9allocatorINS_11__tree_nodeINS_12__value_typeINS_12basic_stringIcNS_11char_traitsIcEENS1_IcEEEEN8nlohmann16json_abi_v3_11_310basic_jsonINS_3mapENS_6vectorES8_bxydS1_NSA_14adl_serializerENSD_IhNS1_IhEEEEvEEEEPvEEEELi1ELb1EE5__getB8ne180100Ev, symObjAddr: 0x9FB4, symBinAddr: 0x10000AE70, symSize: 0x14 }
  - { offset: 0x29A24, size: 0x8, addend: 0x0, symName: __ZNSt3__19allocatorINS_11__tree_nodeINS_12__value_typeINS_12basic_stringIcNS_11char_traitsIcEENS0_IcEEEEN8nlohmann16json_abi_v3_11_310basic_jsonINS_3mapENS_6vectorES7_bxydS0_NS9_14adl_serializerENSC_IhNS0_IhEEEEvEEEEPvEEE8allocateB8ne180100Em, symObjAddr: 0x9FC8, symBinAddr: 0x10000AE84, symSize: 0x5C }
  - { offset: 0x29A58, size: 0x8, addend: 0x0, symName: __ZNSt3__116allocator_traitsINS_9allocatorINS_11__tree_nodeINS_12__value_typeINS_12basic_stringIcNS_11char_traitsIcEENS1_IcEEEEN8nlohmann16json_abi_v3_11_310basic_jsonINS_3mapENS_6vectorES8_bxydS1_NSA_14adl_serializerENSD_IhNS1_IhEEEEvEEEEPvEEEEE8max_sizeB8ne180100ISL_vvEEmRKSL_, symObjAddr: 0xA024, symBinAddr: 0x10000AEE0, symSize: 0x28 }
  - { offset: 0x29A84, size: 0x8, addend: 0x0, symName: __ZNSt3__122__tree_node_destructorINS_9allocatorINS_11__tree_nodeINS_12__value_typeINS_12basic_stringIcNS_11char_traitsIcEENS1_IcEEEEN8nlohmann16json_abi_v3_11_310basic_jsonINS_3mapENS_6vectorES8_bxydS1_NSA_14adl_serializerENSD_IhNS1_IhEEEEvEEEEPvEEEEEC2B8ne180100ERSL_b, symObjAddr: 0xA04C, symBinAddr: 0x10000AF08, symSize: 0x38 }
  - { offset: 0x29ACC, size: 0x8, addend: 0x0, symName: __ZNSt3__110unique_ptrINS_11__tree_nodeINS_12__value_typeINS_12basic_stringIcNS_11char_traitsIcEENS_9allocatorIcEEEEN8nlohmann16json_abi_v3_11_310basic_jsonINS_3mapENS_6vectorES8_bxydS6_NSA_14adl_serializerENSD_IhNS6_IhEEEEvEEEEPvEENS_22__tree_node_destructorINS6_ISK_EEEEEC2B8ne180100ILb1EvEEPSK_NS_16__dependent_typeINS_27__unique_ptr_deleter_sfinaeISN_EEXT_EE20__good_rval_ref_typeE, symObjAddr: 0xA084, symBinAddr: 0x10000AF40, symSize: 0x48 }
  - { offset: 0x29B1D, size: 0x8, addend: 0x0, symName: __ZNSt3__117__compressed_pairIPNS_11__tree_nodeINS_12__value_typeINS_12basic_stringIcNS_11char_traitsIcEENS_9allocatorIcEEEEN8nlohmann16json_abi_v3_11_310basic_jsonINS_3mapENS_6vectorES8_bxydS6_NSA_14adl_serializerENSD_IhNS6_IhEEEEvEEEEPvEENS_22__tree_node_destructorINS6_ISK_EEEEEC1B8ne180100IRSL_SO_EEOT_OT0_, symObjAddr: 0xA0CC, symBinAddr: 0x10000AF88, symSize: 0x3C }
  - { offset: 0x29B75, size: 0x8, addend: 0x0, symName: __ZNSt3__117__compressed_pairIPNS_11__tree_nodeINS_12__value_typeINS_12basic_stringIcNS_11char_traitsIcEENS_9allocatorIcEEEEN8nlohmann16json_abi_v3_11_310basic_jsonINS_3mapENS_6vectorES8_bxydS6_NSA_14adl_serializerENSD_IhNS6_IhEEEEvEEEEPvEENS_22__tree_node_destructorINS6_ISK_EEEEEC2B8ne180100IRSL_SO_EEOT_OT0_, symObjAddr: 0xA108, symBinAddr: 0x10000AFC4, symSize: 0x48 }
  - { offset: 0x29BCD, size: 0x8, addend: 0x0, symName: __ZNSt3__122__compressed_pair_elemIPNS_11__tree_nodeINS_12__value_typeINS_12basic_stringIcNS_11char_traitsIcEENS_9allocatorIcEEEEN8nlohmann16json_abi_v3_11_310basic_jsonINS_3mapENS_6vectorES8_bxydS6_NSA_14adl_serializerENSD_IhNS6_IhEEEEvEEEEPvEELi0ELb0EEC2B8ne180100IRSL_vEEOT_, symObjAddr: 0xA150, symBinAddr: 0x10000B00C, symSize: 0x24 }
  - { offset: 0x29C0F, size: 0x8, addend: 0x0, symName: __ZNSt3__122__compressed_pair_elemINS_22__tree_node_destructorINS_9allocatorINS_11__tree_nodeINS_12__value_typeINS_12basic_stringIcNS_11char_traitsIcEENS2_IcEEEEN8nlohmann16json_abi_v3_11_310basic_jsonINS_3mapENS_6vectorES9_bxydS2_NSB_14adl_serializerENSE_IhNS2_IhEEEEvEEEEPvEEEEEELi1ELb0EEC2B8ne180100ISN_vEEOT_, symObjAddr: 0xA174, symBinAddr: 0x10000B030, symSize: 0x24 }
  - { offset: 0x29C51, size: 0x8, addend: 0x0, symName: __ZNSt3__14pairIKNS_12basic_stringIcNS_11char_traitsIcEENS_9allocatorIcEEEEN8nlohmann16json_abi_v3_11_310basic_jsonINS_3mapENS_6vectorES6_bxydS4_NS9_14adl_serializerENSC_IhNS4_IhEEEEvEEEC1B8ne180100ERKSH_, symObjAddr: 0xA1F8, symBinAddr: 0x10000B0B4, symSize: 0x34 }
  - { offset: 0x29C85, size: 0x8, addend: 0x0, symName: __ZNSt3__14pairIKNS_12basic_stringIcNS_11char_traitsIcEENS_9allocatorIcEEEEN8nlohmann16json_abi_v3_11_310basic_jsonINS_3mapENS_6vectorES6_bxydS4_NS9_14adl_serializerENSC_IhNS4_IhEEEEvEEEC2B8ne180100ERKSH_, symObjAddr: 0xA22C, symBinAddr: 0x10000B0E8, symSize: 0x70 }
  - { offset: 0x29CB9, size: 0x8, addend: 0x0, symName: __ZNKSt3__117__compressed_pairIPNS_11__tree_nodeINS_12__value_typeINS_12basic_stringIcNS_11char_traitsIcEENS_9allocatorIcEEEEN8nlohmann16json_abi_v3_11_310basic_jsonINS_3mapENS_6vectorES8_bxydS6_NSA_14adl_serializerENSD_IhNS6_IhEEEEvEEEEPvEENS_22__tree_node_destructorINS6_ISK_EEEEE5firstB8ne180100Ev, symObjAddr: 0xA29C, symBinAddr: 0x10000B158, symSize: 0x24 }
  - { offset: 0x29CDF, size: 0x8, addend: 0x0, symName: __ZNKSt3__122__compressed_pair_elemIPNS_11__tree_nodeINS_12__value_typeINS_12basic_stringIcNS_11char_traitsIcEENS_9allocatorIcEEEEN8nlohmann16json_abi_v3_11_310basic_jsonINS_3mapENS_6vectorES8_bxydS6_NSA_14adl_serializerENSD_IhNS6_IhEEEEvEEEEPvEELi0ELb0EE5__getB8ne180100Ev, symObjAddr: 0xA2C0, symBinAddr: 0x10000B17C, symSize: 0x14 }
  - { offset: 0x29D05, size: 0x8, addend: 0x0, symName: __ZNSt3__117__compressed_pairIPNS_11__tree_nodeINS_12__value_typeINS_12basic_stringIcNS_11char_traitsIcEENS_9allocatorIcEEEEN8nlohmann16json_abi_v3_11_310basic_jsonINS_3mapENS_6vectorES8_bxydS6_NSA_14adl_serializerENSD_IhNS6_IhEEEEvEEEEPvEENS_22__tree_node_destructorINS6_ISK_EEEEE6secondB8ne180100Ev, symObjAddr: 0xA2D4, symBinAddr: 0x10000B190, symSize: 0x28 }
  - { offset: 0x29D2B, size: 0x8, addend: 0x0, symName: __ZNSt3__122__compressed_pair_elemINS_22__tree_node_destructorINS_9allocatorINS_11__tree_nodeINS_12__value_typeINS_12basic_stringIcNS_11char_traitsIcEENS2_IcEEEEN8nlohmann16json_abi_v3_11_310basic_jsonINS_3mapENS_6vectorES9_bxydS2_NSB_14adl_serializerENSE_IhNS2_IhEEEEvEEEEPvEEEEEELi1ELb0EE5__getB8ne180100Ev, symObjAddr: 0xA2FC, symBinAddr: 0x10000B1B8, symSize: 0x14 }
  - { offset: 0x29D51, size: 0x8, addend: 0x0, symName: __ZNSt3__16__treeINS_12__value_typeINS_12basic_stringIcNS_11char_traitsIcEENS_9allocatorIcEEEEN8nlohmann16json_abi_v3_11_310basic_jsonINS_3mapENS_6vectorES7_bxydS5_NS9_14adl_serializerENSC_IhNS5_IhEEEEvEEEENS_19__map_value_compareIS7_SH_NS_4lessIvEELb1EEENS5_ISH_EEE4sizeB8ne180100Ev, symObjAddr: 0xA58C, symBinAddr: 0x10000B448, symSize: 0x28 }
  - { offset: 0x29D77, size: 0x8, addend: 0x0, symName: __ZNSt3__116__tree_node_baseIPvE12__set_parentB8ne180100EPS2_, symObjAddr: 0xA758, symBinAddr: 0x10000B614, symSize: 0x20 }
  - { offset: 0x29DAC, size: 0x8, addend: 0x0, symName: __ZNSt3__117__compressed_pairImNS_19__map_value_compareINS_12basic_stringIcNS_11char_traitsIcEENS_9allocatorIcEEEENS_12__value_typeIS7_N8nlohmann16json_abi_v3_11_310basic_jsonINS_3mapENS_6vectorES7_bxydS5_NSA_14adl_serializerENSD_IhNS5_IhEEEEvEEEENS_4lessIvEELb1EEEE5firstB8ne180100Ev, symObjAddr: 0xA778, symBinAddr: 0x10000B634, symSize: 0x24 }
  - { offset: 0x29DD2, size: 0x8, addend: 0x0, symName: __ZNSt3__122__compressed_pair_elemImLi0ELb0EE5__getB8ne180100Ev, symObjAddr: 0xA79C, symBinAddr: 0x10000B658, symSize: 0x14 }
  - { offset: 0x29DF8, size: 0x8, addend: 0x0, symName: __ZNSt3__117__compressed_pairIPNS_11__tree_nodeINS_12__value_typeINS_12basic_stringIcNS_11char_traitsIcEENS_9allocatorIcEEEEN8nlohmann16json_abi_v3_11_310basic_jsonINS_3mapENS_6vectorES8_bxydS6_NSA_14adl_serializerENSD_IhNS6_IhEEEEvEEEEPvEENS_22__tree_node_destructorINS6_ISK_EEEEE5firstB8ne180100Ev, symObjAddr: 0xA7B0, symBinAddr: 0x10000B66C, symSize: 0x24 }
  - { offset: 0x29E1E, size: 0x8, addend: 0x0, symName: __ZNSt3__122__compressed_pair_elemIPNS_11__tree_nodeINS_12__value_typeINS_12basic_stringIcNS_11char_traitsIcEENS_9allocatorIcEEEEN8nlohmann16json_abi_v3_11_310basic_jsonINS_3mapENS_6vectorES8_bxydS6_NSA_14adl_serializerENSD_IhNS6_IhEEEEvEEEEPvEELi0ELb0EE5__getB8ne180100Ev, symObjAddr: 0xA7D4, symBinAddr: 0x10000B690, symSize: 0x14 }
  - { offset: 0x29E44, size: 0x8, addend: 0x0, symName: __ZNSt3__110unique_ptrINS_11__tree_nodeINS_12__value_typeINS_12basic_stringIcNS_11char_traitsIcEENS_9allocatorIcEEEEN8nlohmann16json_abi_v3_11_310basic_jsonINS_3mapENS_6vectorES8_bxydS6_NSA_14adl_serializerENSD_IhNS6_IhEEEEvEEEEPvEENS_22__tree_node_destructorINS6_ISK_EEEEED2B8ne180100Ev, symObjAddr: 0xA7E8, symBinAddr: 0x10000B6A4, symSize: 0x30 }
  - { offset: 0x29E6E, size: 0x8, addend: 0x0, symName: __ZNSt3__110unique_ptrINS_11__tree_nodeINS_12__value_typeINS_12basic_stringIcNS_11char_traitsIcEENS_9allocatorIcEEEEN8nlohmann16json_abi_v3_11_310basic_jsonINS_3mapENS_6vectorES8_bxydS6_NSA_14adl_serializerENSD_IhNS6_IhEEEEvEEEEPvEENS_22__tree_node_destructorINS6_ISK_EEEEE5resetB8ne180100EPSK_, symObjAddr: 0xA818, symBinAddr: 0x10000B6D4, symSize: 0x78 }
  - { offset: 0x29EB2, size: 0x8, addend: 0x0, symName: __ZNSt3__122__tree_node_destructorINS_9allocatorINS_11__tree_nodeINS_12__value_typeINS_12basic_stringIcNS_11char_traitsIcEENS1_IcEEEEN8nlohmann16json_abi_v3_11_310basic_jsonINS_3mapENS_6vectorES8_bxydS1_NSA_14adl_serializerENSD_IhNS1_IhEEEEvEEEEPvEEEEEclB8ne180100EPSK_, symObjAddr: 0xA890, symBinAddr: 0x10000B74C, symSize: 0x90 }
  - { offset: 0x29EE7, size: 0x8, addend: 0x0, symName: __ZNSt3__116allocator_traitsINS_9allocatorINS_11__tree_nodeINS_12__value_typeINS_12basic_stringIcNS_11char_traitsIcEENS1_IcEEEEN8nlohmann16json_abi_v3_11_310basic_jsonINS_3mapENS_6vectorES8_bxydS1_NSA_14adl_serializerENSD_IhNS1_IhEEEEvEEEEPvEEEEE7destroyB8ne180100INS_4pairIKS8_SH_EEvvEEvRSL_PT_, symObjAddr: 0xA920, symBinAddr: 0x10000B7DC, symSize: 0x28 }
  - { offset: 0x29F22, size: 0x8, addend: 0x0, symName: __ZNSt3__116allocator_traitsINS_9allocatorINS_11__tree_nodeINS_12__value_typeINS_12basic_stringIcNS_11char_traitsIcEENS1_IcEEEEN8nlohmann16json_abi_v3_11_310basic_jsonINS_3mapENS_6vectorES8_bxydS1_NSA_14adl_serializerENSD_IhNS1_IhEEEEvEEEEPvEEEEE10deallocateB8ne180100ERSL_PSK_m, symObjAddr: 0xA948, symBinAddr: 0x10000B804, symSize: 0x34 }
  - { offset: 0x29F64, size: 0x8, addend: 0x0, symName: __ZNSt3__14pairIKNS_12basic_stringIcNS_11char_traitsIcEENS_9allocatorIcEEEEN8nlohmann16json_abi_v3_11_310basic_jsonINS_3mapENS_6vectorES6_bxydS4_NS9_14adl_serializerENSC_IhNS4_IhEEEEvEEED1Ev, symObjAddr: 0xA9A0, symBinAddr: 0x10000B85C, symSize: 0x2C }
  - { offset: 0x29F90, size: 0x8, addend: 0x0, symName: __ZNSt3__14pairIKNS_12basic_stringIcNS_11char_traitsIcEENS_9allocatorIcEEEEN8nlohmann16json_abi_v3_11_310basic_jsonINS_3mapENS_6vectorES6_bxydS4_NS9_14adl_serializerENSC_IhNS4_IhEEEEvEEED2Ev, symObjAddr: 0xA9CC, symBinAddr: 0x10000B888, symSize: 0x38 }
  - { offset: 0x29FBC, size: 0x8, addend: 0x0, symName: __ZNSt3__19allocatorINS_11__tree_nodeINS_12__value_typeINS_12basic_stringIcNS_11char_traitsIcEENS0_IcEEEEN8nlohmann16json_abi_v3_11_310basic_jsonINS_3mapENS_6vectorES7_bxydS0_NS9_14adl_serializerENSC_IhNS0_IhEEEEvEEEEPvEEE10deallocateB8ne180100EPSJ_m, symObjAddr: 0xAA04, symBinAddr: 0x10000B8C0, symSize: 0x44 }
  - { offset: 0x29FFE, size: 0x8, addend: 0x0, symName: __ZNSt3__115__tree_iteratorINS_12__value_typeINS_12basic_stringIcNS_11char_traitsIcEENS_9allocatorIcEEEEN8nlohmann16json_abi_v3_11_310basic_jsonINS_3mapENS_6vectorES7_bxydS5_NS9_14adl_serializerENSC_IhNS5_IhEEEEvEEEEPNS_11__tree_nodeISH_PvEElEC2B8ne180100ESL_, symObjAddr: 0xAA48, symBinAddr: 0x10000B904, symSize: 0x20 }
  - { offset: 0x2A037, size: 0x8, addend: 0x0, symName: __ZNSt3__14pairINS_15__tree_iteratorINS_12__value_typeINS_12basic_stringIcNS_11char_traitsIcEENS_9allocatorIcEEEEN8nlohmann16json_abi_v3_11_310basic_jsonINS_3mapENS_6vectorES8_bxydS6_NSA_14adl_serializerENSD_IhNS6_IhEEEEvEEEEPNS_11__tree_nodeISI_PvEElEEbEC2B8ne180100ISN_RbLi0EEEOT_OT0_, symObjAddr: 0xAA68, symBinAddr: 0x10000B924, symSize: 0x38 }
  - { offset: 0x2A095, size: 0x8, addend: 0x0, symName: __ZNSt3__120__map_const_iteratorINS_21__tree_const_iteratorINS_12__value_typeINS_12basic_stringIcNS_11char_traitsIcEENS_9allocatorIcEEEEN8nlohmann16json_abi_v3_11_310basic_jsonINS_3mapENS_6vectorES8_bxydS6_NSA_14adl_serializerENSD_IhNS6_IhEEEEvEEEEPNS_11__tree_nodeISI_PvEElEEEC2B8ne180100ESN_, symObjAddr: 0xAAA0, symBinAddr: 0x10000B95C, symSize: 0x20 }
  - { offset: 0x2A0CE, size: 0x8, addend: 0x0, symName: __ZNKSt3__121__tree_const_iteratorINS_12__value_typeINS_12basic_stringIcNS_11char_traitsIcEENS_9allocatorIcEEEEN8nlohmann16json_abi_v3_11_310basic_jsonINS_3mapENS_6vectorES7_bxydS5_NS9_14adl_serializerENSC_IhNS5_IhEEEEvEEEEPNS_11__tree_nodeISH_PvEElEptB8ne180100Ev, symObjAddr: 0xAAC0, symBinAddr: 0x10000B97C, symSize: 0x2C }
  - { offset: 0x2A0F4, size: 0x8, addend: 0x0, symName: __ZNSt3__114pointer_traitsIPKNS_12__value_typeINS_12basic_stringIcNS_11char_traitsIcEENS_9allocatorIcEEEEN8nlohmann16json_abi_v3_11_310basic_jsonINS_3mapENS_6vectorES7_bxydS5_NS9_14adl_serializerENSC_IhNS5_IhEEEEvEEEEE10pointer_toB8ne180100ERSI_, symObjAddr: 0xAAEC, symBinAddr: 0x10000B9A8, symSize: 0x14 }
  - { offset: 0x2A117, size: 0x8, addend: 0x0, symName: __ZNKSt3__16__treeINS_12__value_typeINS_12basic_stringIcNS_11char_traitsIcEENS_9allocatorIcEEEEN8nlohmann16json_abi_v3_11_310basic_jsonINS_3mapENS_6vectorES7_bxydS5_NS9_14adl_serializerENSC_IhNS5_IhEEEEvEEEENS_19__map_value_compareIS7_SH_NS_4lessIvEELb1EEENS5_ISH_EEE5beginB8ne180100Ev, symObjAddr: 0xAB00, symBinAddr: 0x10000B9BC, symSize: 0x34 }
  - { offset: 0x2A13D, size: 0x8, addend: 0x0, symName: __ZNKSt3__16__treeINS_12__value_typeINS_12basic_stringIcNS_11char_traitsIcEENS_9allocatorIcEEEEN8nlohmann16json_abi_v3_11_310basic_jsonINS_3mapENS_6vectorES7_bxydS5_NS9_14adl_serializerENSC_IhNS5_IhEEEEvEEEENS_19__map_value_compareIS7_SH_NS_4lessIvEELb1EEENS5_ISH_EEE12__begin_nodeB8ne180100Ev, symObjAddr: 0xAB34, symBinAddr: 0x10000B9F0, symSize: 0x14 }
  - { offset: 0x2A163, size: 0x8, addend: 0x0, symName: __ZNSt3__121__tree_const_iteratorINS_12__value_typeINS_12basic_stringIcNS_11char_traitsIcEENS_9allocatorIcEEEEN8nlohmann16json_abi_v3_11_310basic_jsonINS_3mapENS_6vectorES7_bxydS5_NS9_14adl_serializerENSC_IhNS5_IhEEEEvEEEEPNS_11__tree_nodeISH_PvEElEC1B8ne180100EPNS_15__tree_end_nodeIPNS_16__tree_node_baseISJ_EEEE, symObjAddr: 0xAB48, symBinAddr: 0x10000BA04, symSize: 0x34 }
  - { offset: 0x2A19C, size: 0x8, addend: 0x0, symName: __ZNSt3__121__tree_const_iteratorINS_12__value_typeINS_12basic_stringIcNS_11char_traitsIcEENS_9allocatorIcEEEEN8nlohmann16json_abi_v3_11_310basic_jsonINS_3mapENS_6vectorES7_bxydS5_NS9_14adl_serializerENSC_IhNS5_IhEEEEvEEEEPNS_11__tree_nodeISH_PvEElEC2B8ne180100EPNS_15__tree_end_nodeIPNS_16__tree_node_baseISJ_EEEE, symObjAddr: 0xAB7C, symBinAddr: 0x10000BA38, symSize: 0x20 }
  - { offset: 0x2A1D5, size: 0x8, addend: 0x0, symName: __ZNKSt3__16__treeINS_12__value_typeINS_12basic_stringIcNS_11char_traitsIcEENS_9allocatorIcEEEEN8nlohmann16json_abi_v3_11_310basic_jsonINS_3mapENS_6vectorES7_bxydS5_NS9_14adl_serializerENSC_IhNS5_IhEEEEvEEEENS_19__map_value_compareIS7_SH_NS_4lessIvEELb1EEENS5_ISH_EEE3endB8ne180100Ev, symObjAddr: 0xAB9C, symBinAddr: 0x10000BA58, symSize: 0x34 }
  - { offset: 0x2A1FB, size: 0x8, addend: 0x0, symName: __ZNSt3__16__treeINS_12__value_typeINS_12basic_stringIcNS_11char_traitsIcEENS_9allocatorIcEEEEN8nlohmann16json_abi_v3_11_310basic_jsonINS_3mapENS_6vectorES7_bxydS5_NS9_14adl_serializerENSC_IhNS5_IhEEEEvEEEENS_19__map_value_compareIS7_SH_NS_4lessIvEELb1EEENS5_ISH_EEED2Ev, symObjAddr: 0xABD0, symBinAddr: 0x10000BA8C, symSize: 0x38 }
  - { offset: 0x2A227, size: 0x8, addend: 0x0, symName: __ZNSt3__16__treeINS_12__value_typeINS_12basic_stringIcNS_11char_traitsIcEENS_9allocatorIcEEEEN8nlohmann16json_abi_v3_11_310basic_jsonINS_3mapENS_6vectorES7_bxydS5_NS9_14adl_serializerENSC_IhNS5_IhEEEEvEEEENS_19__map_value_compareIS7_SH_NS_4lessIvEELb1EEENS5_ISH_EEE7destroyEPNS_11__tree_nodeISH_PvEE, symObjAddr: 0xAC08, symBinAddr: 0x10000BAC4, symSize: 0xA4 }
  - { offset: 0x2A273, size: 0x8, addend: 0x0, symName: __ZNKSt3__117__compressed_pairIPNS_3mapINS_12basic_stringIcNS_11char_traitsIcEENS_9allocatorIcEEEEN8nlohmann16json_abi_v3_11_310basic_jsonIS1_NS_6vectorES7_bxydS5_NS9_14adl_serializerENSB_IhNS5_IhEEEEvEENS_4lessIvEENS5_INS_4pairIKS7_SF_EEEEEEZNSF_6createISM_JRKSM_EEEPT_DpOT0_EUlSN_E_E5firstB8ne180100Ev, symObjAddr: 0xACAC, symBinAddr: 0x10000BB68, symSize: 0x24 }
  - { offset: 0x2A299, size: 0x8, addend: 0x0, symName: __ZNKSt3__122__compressed_pair_elemIPNS_3mapINS_12basic_stringIcNS_11char_traitsIcEENS_9allocatorIcEEEEN8nlohmann16json_abi_v3_11_310basic_jsonIS1_NS_6vectorES7_bxydS5_NS9_14adl_serializerENSB_IhNS5_IhEEEEvEENS_4lessIvEENS5_INS_4pairIKS7_SF_EEEEEELi0ELb0EE5__getB8ne180100Ev, symObjAddr: 0xACD0, symBinAddr: 0x10000BB8C, symSize: 0x14 }
  - { offset: 0x2A2BF, size: 0x8, addend: 0x0, symName: __ZNKSt3__110unique_ptrINS_3mapINS_12basic_stringIcNS_11char_traitsIcEENS_9allocatorIcEEEEN8nlohmann16json_abi_v3_11_310basic_jsonIS1_NS_6vectorES7_bxydS5_NS9_14adl_serializerENSB_IhNS5_IhEEEEvEENS_4lessIvEENS5_INS_4pairIKS7_SF_EEEEEEZNSF_6createISM_JRKSM_EEEPT_DpOT0_EUlPSM_E_EcvbB8ne180100Ev, symObjAddr: 0xACE4, symBinAddr: 0x10000BBA0, symSize: 0x34 }
  - { offset: 0x2A2E5, size: 0x8, addend: 0x0, symName: __ZNSt3__117__compressed_pairIPNS_3mapINS_12basic_stringIcNS_11char_traitsIcEENS_9allocatorIcEEEEN8nlohmann16json_abi_v3_11_310basic_jsonIS1_NS_6vectorES7_bxydS5_NS9_14adl_serializerENSB_IhNS5_IhEEEEvEENS_4lessIvEENS5_INS_4pairIKS7_SF_EEEEEEZNSF_6createISM_JRKSM_EEEPT_DpOT0_EUlSN_E_E5firstB8ne180100Ev, symObjAddr: 0xAD18, symBinAddr: 0x10000BBD4, symSize: 0x24 }
  - { offset: 0x2A30B, size: 0x8, addend: 0x0, symName: __ZNSt3__122__compressed_pair_elemIPNS_3mapINS_12basic_stringIcNS_11char_traitsIcEENS_9allocatorIcEEEEN8nlohmann16json_abi_v3_11_310basic_jsonIS1_NS_6vectorES7_bxydS5_NS9_14adl_serializerENSB_IhNS5_IhEEEEvEENS_4lessIvEENS5_INS_4pairIKS7_SF_EEEEEELi0ELb0EE5__getB8ne180100Ev, symObjAddr: 0xAD3C, symBinAddr: 0x10000BBF8, symSize: 0x14 }
  - { offset: 0x2A331, size: 0x8, addend: 0x0, symName: __ZNSt3__110unique_ptrINS_3mapINS_12basic_stringIcNS_11char_traitsIcEENS_9allocatorIcEEEEN8nlohmann16json_abi_v3_11_310basic_jsonIS1_NS_6vectorES7_bxydS5_NS9_14adl_serializerENSB_IhNS5_IhEEEEvEENS_4lessIvEENS5_INS_4pairIKS7_SF_EEEEEEZNSF_6createISM_JRKSM_EEEPT_DpOT0_EUlPSM_E_ED2B8ne180100Ev, symObjAddr: 0xAD50, symBinAddr: 0x10000BC0C, symSize: 0x30 }
  - { offset: 0x2A35B, size: 0x8, addend: 0x0, symName: __ZNSt3__110unique_ptrINS_3mapINS_12basic_stringIcNS_11char_traitsIcEENS_9allocatorIcEEEEN8nlohmann16json_abi_v3_11_310basic_jsonIS1_NS_6vectorES7_bxydS5_NS9_14adl_serializerENSB_IhNS5_IhEEEEvEENS_4lessIvEENS5_INS_4pairIKS7_SF_EEEEEEZNSF_6createISM_JRKSM_EEEPT_DpOT0_EUlPSM_E_E5resetB8ne180100ESV_, symObjAddr: 0xAD80, symBinAddr: 0x10000BC3C, symSize: 0x80 }
  - { offset: 0x2A39F, size: 0x8, addend: 0x0, symName: __ZNSt3__117__compressed_pairIPNS_3mapINS_12basic_stringIcNS_11char_traitsIcEENS_9allocatorIcEEEEN8nlohmann16json_abi_v3_11_310basic_jsonIS1_NS_6vectorES7_bxydS5_NS9_14adl_serializerENSB_IhNS5_IhEEEEvEENS_4lessIvEENS5_INS_4pairIKS7_SF_EEEEEEZNSF_6createISM_JRKSM_EEEPT_DpOT0_EUlSN_E_E6secondB8ne180100Ev, symObjAddr: 0xAE00, symBinAddr: 0x10000BCBC, symSize: 0x28 }
  - { offset: 0x2A3CB, size: 0x8, addend: 0x0, symName: __ZZN8nlohmann16json_abi_v3_11_310basic_jsonINSt3__13mapENS2_6vectorENS2_12basic_stringIcNS2_11char_traitsIcEENS2_9allocatorIcEEEEbxydS8_NS0_14adl_serializerENS4_IhNS8_IhEEEEvE6createINS3_ISA_SE_NS2_4lessIvEENS8_INS2_4pairIKSA_SE_EEEEEEJRKSM_EEEPT_DpOT0_ENKUlPSM_E_clESU_, symObjAddr: 0xAE28, symBinAddr: 0x10000BCE4, symSize: 0x34 }
  - { offset: 0x2A404, size: 0x8, addend: 0x0, symName: __ZNSt3__122__compressed_pair_elemIZN8nlohmann16json_abi_v3_11_310basic_jsonINS_3mapENS_6vectorENS_12basic_stringIcNS_11char_traitsIcEENS_9allocatorIcEEEEbxydS9_NS2_14adl_serializerENS5_IhNS9_IhEEEEvE6createINS4_ISB_SF_NS_4lessIvEENS9_INS_4pairIKSB_SF_EEEEEEJRKSN_EEEPT_DpOT0_EUlPSN_E_Li1ELb0EE5__getB8ne180100Ev, symObjAddr: 0xAE5C, symBinAddr: 0x10000BD18, symSize: 0x14 }
  - { offset: 0x2A42A, size: 0x8, addend: 0x0, symName: __ZNSt3__116allocator_traitsINS_9allocatorINS_3mapINS_12basic_stringIcNS_11char_traitsIcEENS1_IcEEEEN8nlohmann16json_abi_v3_11_310basic_jsonIS2_NS_6vectorES7_bxydS1_NS9_14adl_serializerENSB_IhNS1_IhEEEEvEENS_4lessIvEENS1_INS_4pairIKS7_SF_EEEEEEEEE10deallocateB8ne180100ERSN_PSM_m, symObjAddr: 0xAE70, symBinAddr: 0x10000BD2C, symSize: 0x34 }
  - { offset: 0x2A46C, size: 0x8, addend: 0x0, symName: __ZNSt3__19allocatorINS_3mapINS_12basic_stringIcNS_11char_traitsIcEENS0_IcEEEEN8nlohmann16json_abi_v3_11_310basic_jsonIS1_NS_6vectorES6_bxydS0_NS8_14adl_serializerENSA_IhNS0_IhEEEEvEENS_4lessIvEENS0_INS_4pairIKS6_SE_EEEEEEE10deallocateB8ne180100EPSL_m, symObjAddr: 0xAEA4, symBinAddr: 0x10000BD60, symSize: 0x44 }
  - { offset: 0x2A4AE, size: 0x8, addend: 0x0, symName: __ZN8nlohmann16json_abi_v3_11_310basic_jsonINSt3__13mapENS2_6vectorENS2_12basic_stringIcNS2_11char_traitsIcEENS2_9allocatorIcEEEEbxydS8_NS0_14adl_serializerENS4_IhNS8_IhEEEEvE10json_valueC2ERKNS4_ISE_NS8_ISE_EEEE, symObjAddr: 0xAEE8, symBinAddr: 0x10000BDA4, symSize: 0x3C }
  - { offset: 0x2A4E7, size: 0x8, addend: 0x0, symName: __ZN8nlohmann16json_abi_v3_11_310basic_jsonINSt3__13mapENS2_6vectorENS2_12basic_stringIcNS2_11char_traitsIcEENS2_9allocatorIcEEEEbxydS8_NS0_14adl_serializerENS4_IhNS8_IhEEEEvE6createINS4_ISE_NS8_ISE_EEEEJRKSH_EEEPT_DpOT0_, symObjAddr: 0xAF24, symBinAddr: 0x10000BDE0, symSize: 0xF4 }
  - { offset: 0x2A581, size: 0x8, addend: 0x0, symName: __ZNSt3__19allocatorINS_6vectorIN8nlohmann16json_abi_v3_11_310basic_jsonINS_3mapES1_NS_12basic_stringIcNS_11char_traitsIcEENS0_IcEEEEbxydS0_NS3_14adl_serializerENS1_IhNS0_IhEEEEvEENS0_ISE_EEEEEC1B8ne180100Ev, symObjAddr: 0xB018, symBinAddr: 0x10000BED4, symSize: 0x2C }
  - { offset: 0x2A5B1, size: 0x8, addend: 0x0, symName: __ZNSt3__116allocator_traitsINS_9allocatorINS_6vectorIN8nlohmann16json_abi_v3_11_310basic_jsonINS_3mapES2_NS_12basic_stringIcNS_11char_traitsIcEENS1_IcEEEEbxydS1_NS4_14adl_serializerENS2_IhNS1_IhEEEEvEENS1_ISF_EEEEEEE8allocateB8ne180100ERSI_m, symObjAddr: 0xB044, symBinAddr: 0x10000BF00, symSize: 0x2C }
  - { offset: 0x2A685, size: 0x8, addend: 0x0, symName: __ZNSt3__110unique_ptrINS_6vectorIN8nlohmann16json_abi_v3_11_310basic_jsonINS_3mapES1_NS_12basic_stringIcNS_11char_traitsIcEENS_9allocatorIcEEEEbxydS9_NS3_14adl_serializerENS1_IhNS9_IhEEEEvEENS9_ISF_EEEEZNSF_6createISH_JRKSH_EEEPT_DpOT0_EUlPSH_E_EC1B8ne180100ILb1EvEESQ_NS_16__dependent_typeINS_27__unique_ptr_deleter_sfinaeISR_EEXT_EE15__lval_ref_typeE, symObjAddr: 0xB070, symBinAddr: 0x10000BF2C, symSize: 0x3C }
  - { offset: 0x2A6D6, size: 0x8, addend: 0x0, symName: __ZNSt3__116allocator_traitsINS_9allocatorINS_6vectorIN8nlohmann16json_abi_v3_11_310basic_jsonINS_3mapES2_NS_12basic_stringIcNS_11char_traitsIcEENS1_IcEEEEbxydS1_NS4_14adl_serializerENS2_IhNS1_IhEEEEvEENS1_ISF_EEEEEEE9constructB8ne180100ISH_JRKSH_EvvEEvRSI_PT_DpOT0_, symObjAddr: 0xB0AC, symBinAddr: 0x10000BF68, symSize: 0x30 }
  - { offset: 0x2A72B, size: 0x8, addend: 0x0, symName: __ZNKSt3__110unique_ptrINS_6vectorIN8nlohmann16json_abi_v3_11_310basic_jsonINS_3mapES1_NS_12basic_stringIcNS_11char_traitsIcEENS_9allocatorIcEEEEbxydS9_NS3_14adl_serializerENS1_IhNS9_IhEEEEvEENS9_ISF_EEEEZNSF_6createISH_JRKSH_EEEPT_DpOT0_EUlPSH_E_E3getB8ne180100Ev, symObjAddr: 0xB0DC, symBinAddr: 0x10000BF98, symSize: 0x28 }
  - { offset: 0x2A751, size: 0x8, addend: 0x0, symName: __ZNSt3__110unique_ptrINS_6vectorIN8nlohmann16json_abi_v3_11_310basic_jsonINS_3mapES1_NS_12basic_stringIcNS_11char_traitsIcEENS_9allocatorIcEEEEbxydS9_NS3_14adl_serializerENS1_IhNS9_IhEEEEvEENS9_ISF_EEEEZNSF_6createISH_JRKSH_EEEPT_DpOT0_EUlPSH_E_E7releaseB8ne180100Ev, symObjAddr: 0xB134, symBinAddr: 0x10000BFF0, symSize: 0x44 }
  - { offset: 0x2A786, size: 0x8, addend: 0x0, symName: __ZNSt3__110unique_ptrINS_6vectorIN8nlohmann16json_abi_v3_11_310basic_jsonINS_3mapES1_NS_12basic_stringIcNS_11char_traitsIcEENS_9allocatorIcEEEEbxydS9_NS3_14adl_serializerENS1_IhNS9_IhEEEEvEENS9_ISF_EEEEZNSF_6createISH_JRKSH_EEEPT_DpOT0_EUlPSH_E_ED1B8ne180100Ev, symObjAddr: 0xB178, symBinAddr: 0x10000C034, symSize: 0x2C }
  - { offset: 0x2A7B0, size: 0x8, addend: 0x0, symName: __ZNSt3__19allocatorINS_6vectorIN8nlohmann16json_abi_v3_11_310basic_jsonINS_3mapES1_NS_12basic_stringIcNS_11char_traitsIcEENS0_IcEEEEbxydS0_NS3_14adl_serializerENS1_IhNS0_IhEEEEvEENS0_ISE_EEEEEC2B8ne180100Ev, symObjAddr: 0xB1A4, symBinAddr: 0x10000C060, symSize: 0x2C }
  - { offset: 0x2A7DA, size: 0x8, addend: 0x0, symName: __ZNSt3__116__non_trivial_ifILb1ENS_9allocatorINS_6vectorIN8nlohmann16json_abi_v3_11_310basic_jsonINS_3mapES2_NS_12basic_stringIcNS_11char_traitsIcEENS1_IcEEEEbxydS1_NS4_14adl_serializerENS2_IhNS1_IhEEEEvEENS1_ISF_EEEEEEEC2B8ne180100Ev, symObjAddr: 0xB1D0, symBinAddr: 0x10000C08C, symSize: 0x14 }
  - { offset: 0x2A804, size: 0x8, addend: 0x0, symName: __ZNSt3__19allocatorINS_6vectorIN8nlohmann16json_abi_v3_11_310basic_jsonINS_3mapES1_NS_12basic_stringIcNS_11char_traitsIcEENS0_IcEEEEbxydS0_NS3_14adl_serializerENS1_IhNS0_IhEEEEvEENS0_ISE_EEEEE8allocateB8ne180100Em, symObjAddr: 0xB1E4, symBinAddr: 0x10000C0A0, symSize: 0x5C }
  - { offset: 0x2A843, size: 0x8, addend: 0x0, symName: __ZNSt3__116allocator_traitsINS_9allocatorINS_6vectorIN8nlohmann16json_abi_v3_11_310basic_jsonINS_3mapES2_NS_12basic_stringIcNS_11char_traitsIcEENS1_IcEEEEbxydS1_NS4_14adl_serializerENS2_IhNS1_IhEEEEvEENS1_ISF_EEEEEEE8max_sizeB8ne180100ISI_vvEEmRKSI_, symObjAddr: 0xB240, symBinAddr: 0x10000C0FC, symSize: 0x28 }
  - { offset: 0x2A86F, size: 0x8, addend: 0x0, symName: __ZNSt3__110unique_ptrINS_6vectorIN8nlohmann16json_abi_v3_11_310basic_jsonINS_3mapES1_NS_12basic_stringIcNS_11char_traitsIcEENS_9allocatorIcEEEEbxydS9_NS3_14adl_serializerENS1_IhNS9_IhEEEEvEENS9_ISF_EEEEZNSF_6createISH_JRKSH_EEEPT_DpOT0_EUlPSH_E_EC2B8ne180100ILb1EvEESQ_NS_16__dependent_typeINS_27__unique_ptr_deleter_sfinaeISR_EEXT_EE15__lval_ref_typeE, symObjAddr: 0xB268, symBinAddr: 0x10000C124, symSize: 0x48 }
  - { offset: 0x2A8C0, size: 0x8, addend: 0x0, symName: __ZNSt3__117__compressed_pairIPNS_6vectorIN8nlohmann16json_abi_v3_11_310basic_jsonINS_3mapES1_NS_12basic_stringIcNS_11char_traitsIcEENS_9allocatorIcEEEEbxydS9_NS3_14adl_serializerENS1_IhNS9_IhEEEEvEENS9_ISF_EEEEZNSF_6createISH_JRKSH_EEEPT_DpOT0_EUlSI_E_EC1B8ne180100IRSI_RKSR_EEOSM_OT0_, symObjAddr: 0xB2B0, symBinAddr: 0x10000C16C, symSize: 0x3C }
  - { offset: 0x2A918, size: 0x8, addend: 0x0, symName: __ZNSt3__117__compressed_pairIPNS_6vectorIN8nlohmann16json_abi_v3_11_310basic_jsonINS_3mapES1_NS_12basic_stringIcNS_11char_traitsIcEENS_9allocatorIcEEEEbxydS9_NS3_14adl_serializerENS1_IhNS9_IhEEEEvEENS9_ISF_EEEEZNSF_6createISH_JRKSH_EEEPT_DpOT0_EUlSI_E_EC2B8ne180100IRSI_RKSR_EEOSM_OT0_, symObjAddr: 0xB2EC, symBinAddr: 0x10000C1A8, symSize: 0x48 }
  - { offset: 0x2A970, size: 0x8, addend: 0x0, symName: __ZNSt3__122__compressed_pair_elemIPNS_6vectorIN8nlohmann16json_abi_v3_11_310basic_jsonINS_3mapES1_NS_12basic_stringIcNS_11char_traitsIcEENS_9allocatorIcEEEEbxydS9_NS3_14adl_serializerENS1_IhNS9_IhEEEEvEENS9_ISF_EEEELi0ELb0EEC2B8ne180100IRSI_vEEOT_, symObjAddr: 0xB334, symBinAddr: 0x10000C1F0, symSize: 0x24 }
  - { offset: 0x2A9B2, size: 0x8, addend: 0x0, symName: __ZNSt3__122__compressed_pair_elemIZN8nlohmann16json_abi_v3_11_310basic_jsonINS_3mapENS_6vectorENS_12basic_stringIcNS_11char_traitsIcEENS_9allocatorIcEEEEbxydS9_NS2_14adl_serializerENS5_IhNS9_IhEEEEvE6createINS5_ISF_NS9_ISF_EEEEJRKSI_EEEPT_DpOT0_EUlPSI_E_Li1ELb0EEC2B8ne180100IRKSR_vEEOSL_, symObjAddr: 0xB358, symBinAddr: 0x10000C214, symSize: 0x24 }
  - { offset: 0x2A9F4, size: 0x8, addend: 0x0, symName: __ZNSt3__16vectorIN8nlohmann16json_abi_v3_11_310basic_jsonINS_3mapES0_NS_12basic_stringIcNS_11char_traitsIcEENS_9allocatorIcEEEEbxydS8_NS2_14adl_serializerENS0_IhNS8_IhEEEEvEENS8_ISE_EEEC1ERKSG_, symObjAddr: 0xB3DC, symBinAddr: 0x10000C298, symSize: 0x34 }
  - { offset: 0x2AA2F, size: 0x8, addend: 0x0, symName: __ZNSt3__16vectorIN8nlohmann16json_abi_v3_11_310basic_jsonINS_3mapES0_NS_12basic_stringIcNS_11char_traitsIcEENS_9allocatorIcEEEEbxydS8_NS2_14adl_serializerENS0_IhNS8_IhEEEEvEENS8_ISE_EEEC2ERKSG_, symObjAddr: 0xB410, symBinAddr: 0x10000C2CC, symSize: 0x94 }
  - { offset: 0x2AA75, size: 0x8, addend: 0x0, symName: __ZNSt3__116allocator_traitsINS_9allocatorIN8nlohmann16json_abi_v3_11_310basic_jsonINS_3mapENS_6vectorENS_12basic_stringIcNS_11char_traitsIcEENS1_IcEEEEbxydS1_NS3_14adl_serializerENS6_IhNS1_IhEEEEvEEEEE37select_on_container_copy_constructionB8ne180100ISG_vvEESG_RKSG_, symObjAddr: 0xB4A4, symBinAddr: 0x10000C360, symSize: 0x10 }
  - { offset: 0x2AAA4, size: 0x8, addend: 0x0, symName: __ZNKSt3__16vectorIN8nlohmann16json_abi_v3_11_310basic_jsonINS_3mapES0_NS_12basic_stringIcNS_11char_traitsIcEENS_9allocatorIcEEEEbxydS8_NS2_14adl_serializerENS0_IhNS8_IhEEEEvEENS8_ISE_EEE7__allocB8ne180100Ev, symObjAddr: 0xB4B4, symBinAddr: 0x10000C370, symSize: 0x28 }
  - { offset: 0x2AAD6, size: 0x8, addend: 0x0, symName: __ZNSt3__117__compressed_pairIPN8nlohmann16json_abi_v3_11_310basic_jsonINS_3mapENS_6vectorENS_12basic_stringIcNS_11char_traitsIcEENS_9allocatorIcEEEEbxydS9_NS2_14adl_serializerENS5_IhNS9_IhEEEEvEENS9_ISF_EEEC1B8ne180100IDnSH_EEOT_OT0_, symObjAddr: 0xB4DC, symBinAddr: 0x10000C398, symSize: 0x3C }
  - { offset: 0x2AB2E, size: 0x8, addend: 0x0, symName: __ZNSt3__16vectorIN8nlohmann16json_abi_v3_11_310basic_jsonINS_3mapES0_NS_12basic_stringIcNS_11char_traitsIcEENS_9allocatorIcEEEEbxydS8_NS2_14adl_serializerENS0_IhNS8_IhEEEEvEENS8_ISE_EEE16__init_with_sizeB8ne180100IPSE_SI_EEvT_T0_m, symObjAddr: 0xB518, symBinAddr: 0x10000C3D4, symSize: 0xB8 }
  - { offset: 0x2ABA2, size: 0x8, addend: 0x0, symName: __ZNKSt3__16vectorIN8nlohmann16json_abi_v3_11_310basic_jsonINS_3mapES0_NS_12basic_stringIcNS_11char_traitsIcEENS_9allocatorIcEEEEbxydS8_NS2_14adl_serializerENS0_IhNS8_IhEEEEvEENS8_ISE_EEE4sizeB8ne180100Ev, symObjAddr: 0xB5D0, symBinAddr: 0x10000C48C, symSize: 0x28 }
  - { offset: 0x2ABC8, size: 0x8, addend: 0x0, symName: __ZNKSt3__117__compressed_pairIPN8nlohmann16json_abi_v3_11_310basic_jsonINS_3mapENS_6vectorENS_12basic_stringIcNS_11char_traitsIcEENS_9allocatorIcEEEEbxydS9_NS2_14adl_serializerENS5_IhNS9_IhEEEEvEENS9_ISF_EEE6secondB8ne180100Ev, symObjAddr: 0xB5F8, symBinAddr: 0x10000C4B4, symSize: 0x24 }
  - { offset: 0x2ABEE, size: 0x8, addend: 0x0, symName: __ZNKSt3__122__compressed_pair_elemINS_9allocatorIN8nlohmann16json_abi_v3_11_310basic_jsonINS_3mapENS_6vectorENS_12basic_stringIcNS_11char_traitsIcEENS1_IcEEEEbxydS1_NS3_14adl_serializerENS6_IhNS1_IhEEEEvEEEELi1ELb1EE5__getB8ne180100Ev, symObjAddr: 0xB61C, symBinAddr: 0x10000C4D8, symSize: 0x14 }
  - { offset: 0x2AC14, size: 0x8, addend: 0x0, symName: __ZNSt3__117__compressed_pairIPN8nlohmann16json_abi_v3_11_310basic_jsonINS_3mapENS_6vectorENS_12basic_stringIcNS_11char_traitsIcEENS_9allocatorIcEEEEbxydS9_NS2_14adl_serializerENS5_IhNS9_IhEEEEvEENS9_ISF_EEEC2B8ne180100IDnSH_EEOT_OT0_, symObjAddr: 0xB630, symBinAddr: 0x10000C4EC, symSize: 0x44 }
  - { offset: 0x2AC6C, size: 0x8, addend: 0x0, symName: __ZNSt3__122__compressed_pair_elemIPN8nlohmann16json_abi_v3_11_310basic_jsonINS_3mapENS_6vectorENS_12basic_stringIcNS_11char_traitsIcEENS_9allocatorIcEEEEbxydS9_NS2_14adl_serializerENS5_IhNS9_IhEEEEvEELi0ELb0EEC2B8ne180100IDnvEEOT_, symObjAddr: 0xB674, symBinAddr: 0x10000C530, symSize: 0x1C }
  - { offset: 0x2ACAE, size: 0x8, addend: 0x0, symName: __ZNSt3__122__compressed_pair_elemINS_9allocatorIN8nlohmann16json_abi_v3_11_310basic_jsonINS_3mapENS_6vectorENS_12basic_stringIcNS_11char_traitsIcEENS1_IcEEEEbxydS1_NS3_14adl_serializerENS6_IhNS1_IhEEEEvEEEELi1ELb1EEC2B8ne180100ISG_vEEOT_, symObjAddr: 0xB690, symBinAddr: 0x10000C54C, symSize: 0x18 }
  - { offset: 0x2ACF0, size: 0x8, addend: 0x0, symName: __ZNSt3__16vectorIN8nlohmann16json_abi_v3_11_310basic_jsonINS_3mapES0_NS_12basic_stringIcNS_11char_traitsIcEENS_9allocatorIcEEEEbxydS8_NS2_14adl_serializerENS0_IhNS8_IhEEEEvEENS8_ISE_EEE16__destroy_vectorC1B8ne180100ERSG_, symObjAddr: 0xB6E8, symBinAddr: 0x10000C5A4, symSize: 0x34 }
  - { offset: 0x2AD29, size: 0x8, addend: 0x0, symName: __ZNSt3__16vectorIN8nlohmann16json_abi_v3_11_310basic_jsonINS_3mapES0_NS_12basic_stringIcNS_11char_traitsIcEENS_9allocatorIcEEEEbxydS8_NS2_14adl_serializerENS0_IhNS8_IhEEEEvEENS8_ISE_EEE11__vallocateB8ne180100Em, symObjAddr: 0xB71C, symBinAddr: 0x10000C5D8, symSize: 0xAC }
  - { offset: 0x2AD6D, size: 0x8, addend: 0x0, symName: __ZNSt3__16vectorIN8nlohmann16json_abi_v3_11_310basic_jsonINS_3mapES0_NS_12basic_stringIcNS_11char_traitsIcEENS_9allocatorIcEEEEbxydS8_NS2_14adl_serializerENS0_IhNS8_IhEEEEvEENS8_ISE_EEE18__construct_at_endIPSE_SI_EEvT_T0_m, symObjAddr: 0xB7C8, symBinAddr: 0x10000C684, symSize: 0x8C }
  - { offset: 0x2ADE3, size: 0x8, addend: 0x0, symName: __ZNSt3__128__exception_guard_exceptionsINS_6vectorIN8nlohmann16json_abi_v3_11_310basic_jsonINS_3mapES1_NS_12basic_stringIcNS_11char_traitsIcEENS_9allocatorIcEEEEbxydS9_NS3_14adl_serializerENS1_IhNS9_IhEEEEvEENS9_ISF_EEE16__destroy_vectorEE10__completeB8ne180100Ev, symObjAddr: 0xB854, symBinAddr: 0x10000C710, symSize: 0x1C }
  - { offset: 0x2AE09, size: 0x8, addend: 0x0, symName: __ZNSt3__128__exception_guard_exceptionsINS_6vectorIN8nlohmann16json_abi_v3_11_310basic_jsonINS_3mapES1_NS_12basic_stringIcNS_11char_traitsIcEENS_9allocatorIcEEEEbxydS9_NS3_14adl_serializerENS1_IhNS9_IhEEEEvEENS9_ISF_EEE16__destroy_vectorEED1B8ne180100Ev, symObjAddr: 0xB870, symBinAddr: 0x10000C72C, symSize: 0x2C }
  - { offset: 0x2AE33, size: 0x8, addend: 0x0, symName: __ZNSt3__128__exception_guard_exceptionsINS_6vectorIN8nlohmann16json_abi_v3_11_310basic_jsonINS_3mapES1_NS_12basic_stringIcNS_11char_traitsIcEENS_9allocatorIcEEEEbxydS9_NS3_14adl_serializerENS1_IhNS9_IhEEEEvEENS9_ISF_EEE16__destroy_vectorEEC1B8ne180100ESI_, symObjAddr: 0xB89C, symBinAddr: 0x10000C758, symSize: 0x34 }
  - { offset: 0x2AE6B, size: 0x8, addend: 0x0, symName: __ZNSt3__128__exception_guard_exceptionsINS_6vectorIN8nlohmann16json_abi_v3_11_310basic_jsonINS_3mapES1_NS_12basic_stringIcNS_11char_traitsIcEENS_9allocatorIcEEEEbxydS9_NS3_14adl_serializerENS1_IhNS9_IhEEEEvEENS9_ISF_EEE16__destroy_vectorEEC2B8ne180100ESI_, symObjAddr: 0xB8D0, symBinAddr: 0x10000C78C, symSize: 0x24 }
  - { offset: 0x2AEA3, size: 0x8, addend: 0x0, symName: __ZNSt3__16vectorIN8nlohmann16json_abi_v3_11_310basic_jsonINS_3mapES0_NS_12basic_stringIcNS_11char_traitsIcEENS_9allocatorIcEEEEbxydS8_NS2_14adl_serializerENS0_IhNS8_IhEEEEvEENS8_ISE_EEE16__destroy_vectorC2B8ne180100ERSG_, symObjAddr: 0xB8F4, symBinAddr: 0x10000C7B0, symSize: 0x20 }
  - { offset: 0x2AEDC, size: 0x8, addend: 0x0, symName: __ZNKSt3__16vectorIN8nlohmann16json_abi_v3_11_310basic_jsonINS_3mapES0_NS_12basic_stringIcNS_11char_traitsIcEENS_9allocatorIcEEEEbxydS8_NS2_14adl_serializerENS0_IhNS8_IhEEEEvEENS8_ISE_EEE8max_sizeEv, symObjAddr: 0xB914, symBinAddr: 0x10000C7D0, symSize: 0x60 }
  - { offset: 0x2AF04, size: 0x8, addend: 0x0, symName: __ZNKSt3__16vectorIN8nlohmann16json_abi_v3_11_310basic_jsonINS_3mapES0_NS_12basic_stringIcNS_11char_traitsIcEENS_9allocatorIcEEEEbxydS8_NS2_14adl_serializerENS0_IhNS8_IhEEEEvEENS8_ISE_EEE20__throw_length_errorB8ne180100Ev, symObjAddr: 0xB974, symBinAddr: 0x10000C830, symSize: 0x1C }
  - { offset: 0x2AF2A, size: 0x8, addend: 0x0, symName: __ZNSt3__16vectorIN8nlohmann16json_abi_v3_11_310basic_jsonINS_3mapES0_NS_12basic_stringIcNS_11char_traitsIcEENS_9allocatorIcEEEEbxydS8_NS2_14adl_serializerENS0_IhNS8_IhEEEEvEENS8_ISE_EEE7__allocB8ne180100Ev, symObjAddr: 0xB9D0, symBinAddr: 0x10000C88C, symSize: 0x28 }
  - { offset: 0x2AF50, size: 0x8, addend: 0x0, symName: __ZNSt3__16vectorIN8nlohmann16json_abi_v3_11_310basic_jsonINS_3mapES0_NS_12basic_stringIcNS_11char_traitsIcEENS_9allocatorIcEEEEbxydS8_NS2_14adl_serializerENS0_IhNS8_IhEEEEvEENS8_ISE_EEE9__end_capB8ne180100Ev, symObjAddr: 0xB9F8, symBinAddr: 0x10000C8B4, symSize: 0x28 }
  - { offset: 0x2AF76, size: 0x8, addend: 0x0, symName: __ZNKSt3__16vectorIN8nlohmann16json_abi_v3_11_310basic_jsonINS_3mapES0_NS_12basic_stringIcNS_11char_traitsIcEENS_9allocatorIcEEEEbxydS8_NS2_14adl_serializerENS0_IhNS8_IhEEEEvEENS8_ISE_EEE14__annotate_newB8ne180100Em, symObjAddr: 0xBA20, symBinAddr: 0x10000C8DC, symSize: 0x14 }
  - { offset: 0x2AFAB, size: 0x8, addend: 0x0, symName: __ZNSt3__116allocator_traitsINS_9allocatorIN8nlohmann16json_abi_v3_11_310basic_jsonINS_3mapENS_6vectorENS_12basic_stringIcNS_11char_traitsIcEENS1_IcEEEEbxydS1_NS3_14adl_serializerENS6_IhNS1_IhEEEEvEEEEE8max_sizeB8ne180100ISG_vvEEmRKSG_, symObjAddr: 0xBA34, symBinAddr: 0x10000C8F0, symSize: 0x28 }
  - { offset: 0x2AFD7, size: 0x8, addend: 0x0, symName: __ZNSt3__114numeric_limitsIlE3maxB8ne180100Ev, symObjAddr: 0xBA5C, symBinAddr: 0x10000C918, symSize: 0x14 }
  - { offset: 0x2AFEB, size: 0x8, addend: 0x0, symName: __ZNSt3__123__libcpp_numeric_limitsIlLb1EE3maxB8ne180100Ev, symObjAddr: 0xBA70, symBinAddr: 0x10000C92C, symSize: 0x8 }
  - { offset: 0x2AFFF, size: 0x8, addend: 0x0, symName: __ZNSt3__19allocatorIN8nlohmann16json_abi_v3_11_310basic_jsonINS_3mapENS_6vectorENS_12basic_stringIcNS_11char_traitsIcEENS0_IcEEEEbxydS0_NS2_14adl_serializerENS5_IhNS0_IhEEEEvEEE8allocateB8ne180100Em, symObjAddr: 0xBA78, symBinAddr: 0x10000C934, symSize: 0x58 }
  - { offset: 0x2B033, size: 0x8, addend: 0x0, symName: __ZNSt3__117__compressed_pairIPN8nlohmann16json_abi_v3_11_310basic_jsonINS_3mapENS_6vectorENS_12basic_stringIcNS_11char_traitsIcEENS_9allocatorIcEEEEbxydS9_NS2_14adl_serializerENS5_IhNS9_IhEEEEvEENS9_ISF_EEE6secondB8ne180100Ev, symObjAddr: 0xBAD0, symBinAddr: 0x10000C98C, symSize: 0x24 }
  - { offset: 0x2B059, size: 0x8, addend: 0x0, symName: __ZNSt3__122__compressed_pair_elemINS_9allocatorIN8nlohmann16json_abi_v3_11_310basic_jsonINS_3mapENS_6vectorENS_12basic_stringIcNS_11char_traitsIcEENS1_IcEEEEbxydS1_NS3_14adl_serializerENS6_IhNS1_IhEEEEvEEEELi1ELb1EE5__getB8ne180100Ev, symObjAddr: 0xBAF4, symBinAddr: 0x10000C9B0, symSize: 0x14 }
  - { offset: 0x2B07F, size: 0x8, addend: 0x0, symName: __ZNSt3__117__compressed_pairIPN8nlohmann16json_abi_v3_11_310basic_jsonINS_3mapENS_6vectorENS_12basic_stringIcNS_11char_traitsIcEENS_9allocatorIcEEEEbxydS9_NS2_14adl_serializerENS5_IhNS9_IhEEEEvEENS9_ISF_EEE5firstB8ne180100Ev, symObjAddr: 0xBB08, symBinAddr: 0x10000C9C4, symSize: 0x24 }
  - { offset: 0x2B0A5, size: 0x8, addend: 0x0, symName: __ZNSt3__122__compressed_pair_elemIPN8nlohmann16json_abi_v3_11_310basic_jsonINS_3mapENS_6vectorENS_12basic_stringIcNS_11char_traitsIcEENS_9allocatorIcEEEEbxydS9_NS2_14adl_serializerENS5_IhNS9_IhEEEEvEELi0ELb0EE5__getB8ne180100Ev, symObjAddr: 0xBB2C, symBinAddr: 0x10000C9E8, symSize: 0x14 }
  - { offset: 0x2B0E7, size: 0x8, addend: 0x0, symName: __ZNSt3__16vectorIN8nlohmann16json_abi_v3_11_310basic_jsonINS_3mapES0_NS_12basic_stringIcNS_11char_traitsIcEENS_9allocatorIcEEEEbxydS8_NS2_14adl_serializerENS0_IhNS8_IhEEEEvEENS8_ISE_EEE21_ConstructTransactionC1B8ne180100ERSG_m, symObjAddr: 0xBB40, symBinAddr: 0x10000C9FC, symSize: 0x3C }
  - { offset: 0x2B12F, size: 0x8, addend: 0x0, symName: __ZNSt3__16vectorIN8nlohmann16json_abi_v3_11_310basic_jsonINS_3mapES0_NS_12basic_stringIcNS_11char_traitsIcEENS_9allocatorIcEEEEbxydS8_NS2_14adl_serializerENS0_IhNS8_IhEEEEvEENS8_ISE_EEE21_ConstructTransactionD1B8ne180100Ev, symObjAddr: 0xBBFC, symBinAddr: 0x10000CAB8, symSize: 0x2C }
  - { offset: 0x2B159, size: 0x8, addend: 0x0, symName: __ZNSt3__16vectorIN8nlohmann16json_abi_v3_11_310basic_jsonINS_3mapES0_NS_12basic_stringIcNS_11char_traitsIcEENS_9allocatorIcEEEEbxydS8_NS2_14adl_serializerENS0_IhNS8_IhEEEEvEENS8_ISE_EEE21_ConstructTransactionC2B8ne180100ERSG_m, symObjAddr: 0xBC28, symBinAddr: 0x10000CAE4, symSize: 0x44 }
  - { offset: 0x2B1BE, size: 0x8, addend: 0x0, symName: __ZNSt3__119__unwrap_range_implIPN8nlohmann16json_abi_v3_11_310basic_jsonINS_3mapENS_6vectorENS_12basic_stringIcNS_11char_traitsIcEENS_9allocatorIcEEEEbxydS9_NS2_14adl_serializerENS5_IhNS9_IhEEEEvEESG_E8__unwrapB8ne180100ESG_SG_, symObjAddr: 0xBDFC, symBinAddr: 0x10000CCB8, symSize: 0x58 }
  - { offset: 0x2B1F5, size: 0x8, addend: 0x0, symName: __ZNSt3__14pairIPN8nlohmann16json_abi_v3_11_310basic_jsonINS_3mapENS_6vectorENS_12basic_stringIcNS_11char_traitsIcEENS_9allocatorIcEEEEbxydS9_NS2_14adl_serializerENS5_IhNS9_IhEEEEvEESG_EC1B8ne180100ISG_SG_Li0EEEOT_OT0_, symObjAddr: 0xBE54, symBinAddr: 0x10000CD10, symSize: 0x3C }
  - { offset: 0x2B253, size: 0x8, addend: 0x0, symName: __ZNSt3__14pairIPN8nlohmann16json_abi_v3_11_310basic_jsonINS_3mapENS_6vectorENS_12basic_stringIcNS_11char_traitsIcEENS_9allocatorIcEEEEbxydS9_NS2_14adl_serializerENS5_IhNS9_IhEEEEvEESG_EC2B8ne180100ISG_SG_Li0EEEOT_OT0_, symObjAddr: 0xBE90, symBinAddr: 0x10000CD4C, symSize: 0x34 }
  - { offset: 0x2B2B1, size: 0x8, addend: 0x0, symName: __ZNSt3__129_AllocatorDestroyRangeReverseINS_9allocatorIN8nlohmann16json_abi_v3_11_310basic_jsonINS_3mapENS_6vectorENS_12basic_stringIcNS_11char_traitsIcEENS1_IcEEEEbxydS1_NS3_14adl_serializerENS6_IhNS1_IhEEEEvEEEEPSF_EC1B8ne180100ERSG_RSH_SK_, symObjAddr: 0xBF10, symBinAddr: 0x10000CDCC, symSize: 0x44 }
  - { offset: 0x2B308, size: 0x8, addend: 0x0, symName: __ZNSt3__116allocator_traitsINS_9allocatorIN8nlohmann16json_abi_v3_11_310basic_jsonINS_3mapENS_6vectorENS_12basic_stringIcNS_11char_traitsIcEENS1_IcEEEEbxydS1_NS3_14adl_serializerENS6_IhNS1_IhEEEEvEEEEE9constructB8ne180100ISF_JRSF_EvvEEvRSG_PT_DpOT0_, symObjAddr: 0xBF54, symBinAddr: 0x10000CE10, symSize: 0x30 }
  - { offset: 0x2B35D, size: 0x8, addend: 0x0, symName: __ZNSt3__128__exception_guard_exceptionsINS_29_AllocatorDestroyRangeReverseINS_9allocatorIN8nlohmann16json_abi_v3_11_310basic_jsonINS_3mapENS_6vectorENS_12basic_stringIcNS_11char_traitsIcEENS2_IcEEEEbxydS2_NS4_14adl_serializerENS7_IhNS2_IhEEEEvEEEEPSG_EEE10__completeB8ne180100Ev, symObjAddr: 0xBF98, symBinAddr: 0x10000CE54, symSize: 0x1C }
  - { offset: 0x2B383, size: 0x8, addend: 0x0, symName: __ZNSt3__128__exception_guard_exceptionsINS_29_AllocatorDestroyRangeReverseINS_9allocatorIN8nlohmann16json_abi_v3_11_310basic_jsonINS_3mapENS_6vectorENS_12basic_stringIcNS_11char_traitsIcEENS2_IcEEEEbxydS2_NS4_14adl_serializerENS7_IhNS2_IhEEEEvEEEEPSG_EEED1B8ne180100Ev, symObjAddr: 0xBFB4, symBinAddr: 0x10000CE70, symSize: 0x2C }
  - { offset: 0x2B3AD, size: 0x8, addend: 0x0, symName: __ZNSt3__128__exception_guard_exceptionsINS_29_AllocatorDestroyRangeReverseINS_9allocatorIN8nlohmann16json_abi_v3_11_310basic_jsonINS_3mapENS_6vectorENS_12basic_stringIcNS_11char_traitsIcEENS2_IcEEEEbxydS2_NS4_14adl_serializerENS7_IhNS2_IhEEEEvEEEEPSG_EEEC1B8ne180100ESJ_, symObjAddr: 0xBFE0, symBinAddr: 0x10000CE9C, symSize: 0x34 }
  - { offset: 0x2B3E6, size: 0x8, addend: 0x0, symName: __ZNSt3__128__exception_guard_exceptionsINS_29_AllocatorDestroyRangeReverseINS_9allocatorIN8nlohmann16json_abi_v3_11_310basic_jsonINS_3mapENS_6vectorENS_12basic_stringIcNS_11char_traitsIcEENS2_IcEEEEbxydS2_NS4_14adl_serializerENS7_IhNS2_IhEEEEvEEEEPSG_EEEC2B8ne180100ESJ_, symObjAddr: 0xC014, symBinAddr: 0x10000CED0, symSize: 0x30 }
  - { offset: 0x2B41F, size: 0x8, addend: 0x0, symName: __ZNSt3__129_AllocatorDestroyRangeReverseINS_9allocatorIN8nlohmann16json_abi_v3_11_310basic_jsonINS_3mapENS_6vectorENS_12basic_stringIcNS_11char_traitsIcEENS1_IcEEEEbxydS1_NS3_14adl_serializerENS6_IhNS1_IhEEEEvEEEEPSF_EC2B8ne180100ERSG_RSH_SK_, symObjAddr: 0xC044, symBinAddr: 0x10000CF00, symSize: 0x38 }
  - { offset: 0x2B476, size: 0x8, addend: 0x0, symName: __ZNSt3__128__exception_guard_exceptionsINS_29_AllocatorDestroyRangeReverseINS_9allocatorIN8nlohmann16json_abi_v3_11_310basic_jsonINS_3mapENS_6vectorENS_12basic_stringIcNS_11char_traitsIcEENS2_IcEEEEbxydS2_NS4_14adl_serializerENS7_IhNS2_IhEEEEvEEEEPSG_EEED2B8ne180100Ev, symObjAddr: 0xC0DC, symBinAddr: 0x10000CF98, symSize: 0x50 }
  - { offset: 0x2B4A0, size: 0x8, addend: 0x0, symName: __ZNKSt3__129_AllocatorDestroyRangeReverseINS_9allocatorIN8nlohmann16json_abi_v3_11_310basic_jsonINS_3mapENS_6vectorENS_12basic_stringIcNS_11char_traitsIcEENS1_IcEEEEbxydS1_NS3_14adl_serializerENS6_IhNS1_IhEEEEvEEEEPSF_EclB8ne180100Ev, symObjAddr: 0xC12C, symBinAddr: 0x10000CFE8, symSize: 0x68 }
  - { offset: 0x2B4C6, size: 0x8, addend: 0x0, symName: __ZNSt3__116reverse_iteratorIPN8nlohmann16json_abi_v3_11_310basic_jsonINS_3mapENS_6vectorENS_12basic_stringIcNS_11char_traitsIcEENS_9allocatorIcEEEEbxydS9_NS2_14adl_serializerENS5_IhNS9_IhEEEEvEEEC1B8ne180100ESG_, symObjAddr: 0xC204, symBinAddr: 0x10000D0C0, symSize: 0x34 }
  - { offset: 0x2B4FE, size: 0x8, addend: 0x0, symName: __ZNSt3__116allocator_traitsINS_9allocatorIN8nlohmann16json_abi_v3_11_310basic_jsonINS_3mapENS_6vectorENS_12basic_stringIcNS_11char_traitsIcEENS1_IcEEEEbxydS1_NS3_14adl_serializerENS6_IhNS1_IhEEEEvEEEEE7destroyB8ne180100ISF_vvEEvRSG_PT_, symObjAddr: 0xC280, symBinAddr: 0x10000D13C, symSize: 0x28 }
  - { offset: 0x2B539, size: 0x8, addend: 0x0, symName: __ZNSt3__116reverse_iteratorIPN8nlohmann16json_abi_v3_11_310basic_jsonINS_3mapENS_6vectorENS_12basic_stringIcNS_11char_traitsIcEENS_9allocatorIcEEEEbxydS9_NS2_14adl_serializerENS5_IhNS9_IhEEEEvEEEppB8ne180100Ev, symObjAddr: 0xC2CC, symBinAddr: 0x10000D188, symSize: 0x20 }
  - { offset: 0x2B55F, size: 0x8, addend: 0x0, symName: __ZNKSt3__116reverse_iteratorIPN8nlohmann16json_abi_v3_11_310basic_jsonINS_3mapENS_6vectorENS_12basic_stringIcNS_11char_traitsIcEENS_9allocatorIcEEEEbxydS9_NS2_14adl_serializerENS5_IhNS9_IhEEEEvEEE4baseB8ne180100Ev, symObjAddr: 0xC2EC, symBinAddr: 0x10000D1A8, symSize: 0x18 }
  - { offset: 0x2B58B, size: 0x8, addend: 0x0, symName: __ZNSt3__119__to_address_helperINS_16reverse_iteratorIPN8nlohmann16json_abi_v3_11_310basic_jsonINS_3mapENS_6vectorENS_12basic_stringIcNS_11char_traitsIcEENS_9allocatorIcEEEEbxydSA_NS3_14adl_serializerENS6_IhNSA_IhEEEEvEEEEvE6__callB8ne180100ERKSI_, symObjAddr: 0xC328, symBinAddr: 0x10000D1E4, symSize: 0x38 }
  - { offset: 0x2B5AE, size: 0x8, addend: 0x0, symName: __ZNKSt3__116reverse_iteratorIPN8nlohmann16json_abi_v3_11_310basic_jsonINS_3mapENS_6vectorENS_12basic_stringIcNS_11char_traitsIcEENS_9allocatorIcEEEEbxydS9_NS2_14adl_serializerENS5_IhNS9_IhEEEEvEEEptB8ne180100Ev, symObjAddr: 0xC360, symBinAddr: 0x10000D21C, symSize: 0x2C }
  - { offset: 0x2B5D4, size: 0x8, addend: 0x0, symName: __ZNSt3__116reverse_iteratorIPN8nlohmann16json_abi_v3_11_310basic_jsonINS_3mapENS_6vectorENS_12basic_stringIcNS_11char_traitsIcEENS_9allocatorIcEEEEbxydS9_NS2_14adl_serializerENS5_IhNS9_IhEEEEvEEEC2B8ne180100ESG_, symObjAddr: 0xC428, symBinAddr: 0x10000D2E4, symSize: 0x28 }
  - { offset: 0x2B60C, size: 0x8, addend: 0x0, symName: __ZNSt3__118__unwrap_iter_implIPN8nlohmann16json_abi_v3_11_310basic_jsonINS_3mapENS_6vectorENS_12basic_stringIcNS_11char_traitsIcEENS_9allocatorIcEEEEbxydS9_NS2_14adl_serializerENS5_IhNS9_IhEEEEvEELb1EE8__unwrapB8ne180100ESG_, symObjAddr: 0xC450, symBinAddr: 0x10000D30C, symSize: 0x24 }
  - { offset: 0x2B62F, size: 0x8, addend: 0x0, symName: __ZNSt3__118__unwrap_iter_implIPN8nlohmann16json_abi_v3_11_310basic_jsonINS_3mapENS_6vectorENS_12basic_stringIcNS_11char_traitsIcEENS_9allocatorIcEEEEbxydS9_NS2_14adl_serializerENS5_IhNS9_IhEEEEvEELb1EE8__rewrapB8ne180100ESG_SG_, symObjAddr: 0xC474, symBinAddr: 0x10000D330, symSize: 0x50 }
  - { offset: 0x2B660, size: 0x8, addend: 0x0, symName: __ZNSt3__16vectorIN8nlohmann16json_abi_v3_11_310basic_jsonINS_3mapES0_NS_12basic_stringIcNS_11char_traitsIcEENS_9allocatorIcEEEEbxydS8_NS2_14adl_serializerENS0_IhNS8_IhEEEEvEENS8_ISE_EEE21_ConstructTransactionD2B8ne180100Ev, symObjAddr: 0xC4C4, symBinAddr: 0x10000D380, symSize: 0x20 }
  - { offset: 0x2B68A, size: 0x8, addend: 0x0, symName: __ZNSt3__128__exception_guard_exceptionsINS_6vectorIN8nlohmann16json_abi_v3_11_310basic_jsonINS_3mapES1_NS_12basic_stringIcNS_11char_traitsIcEENS_9allocatorIcEEEEbxydS9_NS3_14adl_serializerENS1_IhNS9_IhEEEEvEENS9_ISF_EEE16__destroy_vectorEED2B8ne180100Ev, symObjAddr: 0xC4E4, symBinAddr: 0x10000D3A0, symSize: 0x50 }
  - { offset: 0x2B6B4, size: 0x8, addend: 0x0, symName: __ZNSt3__16vectorIN8nlohmann16json_abi_v3_11_310basic_jsonINS_3mapES0_NS_12basic_stringIcNS_11char_traitsIcEENS_9allocatorIcEEEEbxydS8_NS2_14adl_serializerENS0_IhNS8_IhEEEEvEENS8_ISE_EEE16__destroy_vectorclB8ne180100Ev, symObjAddr: 0xC534, symBinAddr: 0x10000D3F0, symSize: 0x90 }
  - { offset: 0x2B6DA, size: 0x8, addend: 0x0, symName: __ZNSt3__16vectorIN8nlohmann16json_abi_v3_11_310basic_jsonINS_3mapES0_NS_12basic_stringIcNS_11char_traitsIcEENS_9allocatorIcEEEEbxydS8_NS2_14adl_serializerENS0_IhNS8_IhEEEEvEENS8_ISE_EEE7__clearB8ne180100Ev, symObjAddr: 0xC5C4, symBinAddr: 0x10000D480, symSize: 0x28 }
  - { offset: 0x2B700, size: 0x8, addend: 0x0, symName: __ZNKSt3__16vectorIN8nlohmann16json_abi_v3_11_310basic_jsonINS_3mapES0_NS_12basic_stringIcNS_11char_traitsIcEENS_9allocatorIcEEEEbxydS8_NS2_14adl_serializerENS0_IhNS8_IhEEEEvEENS8_ISE_EEE17__annotate_deleteB8ne180100Ev, symObjAddr: 0xC5EC, symBinAddr: 0x10000D4A8, symSize: 0x10 }
  - { offset: 0x2B726, size: 0x8, addend: 0x0, symName: __ZNSt3__116allocator_traitsINS_9allocatorIN8nlohmann16json_abi_v3_11_310basic_jsonINS_3mapENS_6vectorENS_12basic_stringIcNS_11char_traitsIcEENS1_IcEEEEbxydS1_NS3_14adl_serializerENS6_IhNS1_IhEEEEvEEEEE10deallocateB8ne180100ERSG_PSF_m, symObjAddr: 0xC5FC, symBinAddr: 0x10000D4B8, symSize: 0x34 }
  - { offset: 0x2B768, size: 0x8, addend: 0x0, symName: __ZNKSt3__16vectorIN8nlohmann16json_abi_v3_11_310basic_jsonINS_3mapES0_NS_12basic_stringIcNS_11char_traitsIcEENS_9allocatorIcEEEEbxydS8_NS2_14adl_serializerENS0_IhNS8_IhEEEEvEENS8_ISE_EEE8capacityB8ne180100Ev, symObjAddr: 0xC630, symBinAddr: 0x10000D4EC, symSize: 0x40 }
  - { offset: 0x2B78E, size: 0x8, addend: 0x0, symName: __ZNSt3__16vectorIN8nlohmann16json_abi_v3_11_310basic_jsonINS_3mapES0_NS_12basic_stringIcNS_11char_traitsIcEENS_9allocatorIcEEEEbxydS8_NS2_14adl_serializerENS0_IhNS8_IhEEEEvEENS8_ISE_EEE22__base_destruct_at_endB8ne180100EPSE_, symObjAddr: 0xC670, symBinAddr: 0x10000D52C, symSize: 0x8C }
  - { offset: 0x2B7D2, size: 0x8, addend: 0x0, symName: __ZNSt3__19allocatorIN8nlohmann16json_abi_v3_11_310basic_jsonINS_3mapENS_6vectorENS_12basic_stringIcNS_11char_traitsIcEENS0_IcEEEEbxydS0_NS2_14adl_serializerENS5_IhNS0_IhEEEEvEEE10deallocateB8ne180100EPSE_m, symObjAddr: 0xC6FC, symBinAddr: 0x10000D5B8, symSize: 0x40 }
  - { offset: 0x2B814, size: 0x8, addend: 0x0, symName: __ZNKSt3__16vectorIN8nlohmann16json_abi_v3_11_310basic_jsonINS_3mapES0_NS_12basic_stringIcNS_11char_traitsIcEENS_9allocatorIcEEEEbxydS8_NS2_14adl_serializerENS0_IhNS8_IhEEEEvEENS8_ISE_EEE9__end_capB8ne180100Ev, symObjAddr: 0xC73C, symBinAddr: 0x10000D5F8, symSize: 0x28 }
  - { offset: 0x2B83A, size: 0x8, addend: 0x0, symName: __ZNKSt3__117__compressed_pairIPN8nlohmann16json_abi_v3_11_310basic_jsonINS_3mapENS_6vectorENS_12basic_stringIcNS_11char_traitsIcEENS_9allocatorIcEEEEbxydS9_NS2_14adl_serializerENS5_IhNS9_IhEEEEvEENS9_ISF_EEE5firstB8ne180100Ev, symObjAddr: 0xC764, symBinAddr: 0x10000D620, symSize: 0x24 }
  - { offset: 0x2B860, size: 0x8, addend: 0x0, symName: __ZNKSt3__122__compressed_pair_elemIPN8nlohmann16json_abi_v3_11_310basic_jsonINS_3mapENS_6vectorENS_12basic_stringIcNS_11char_traitsIcEENS_9allocatorIcEEEEbxydS9_NS2_14adl_serializerENS5_IhNS9_IhEEEEvEELi0ELb0EE5__getB8ne180100Ev, symObjAddr: 0xC788, symBinAddr: 0x10000D644, symSize: 0x14 }
  - { offset: 0x2B886, size: 0x8, addend: 0x0, symName: __ZNKSt3__117__compressed_pairIPNS_6vectorIN8nlohmann16json_abi_v3_11_310basic_jsonINS_3mapES1_NS_12basic_stringIcNS_11char_traitsIcEENS_9allocatorIcEEEEbxydS9_NS3_14adl_serializerENS1_IhNS9_IhEEEEvEENS9_ISF_EEEEZNSF_6createISH_JRKSH_EEEPT_DpOT0_EUlSI_E_E5firstB8ne180100Ev, symObjAddr: 0xC79C, symBinAddr: 0x10000D658, symSize: 0x24 }
  - { offset: 0x2B8AC, size: 0x8, addend: 0x0, symName: __ZNKSt3__122__compressed_pair_elemIPNS_6vectorIN8nlohmann16json_abi_v3_11_310basic_jsonINS_3mapES1_NS_12basic_stringIcNS_11char_traitsIcEENS_9allocatorIcEEEEbxydS9_NS3_14adl_serializerENS1_IhNS9_IhEEEEvEENS9_ISF_EEEELi0ELb0EE5__getB8ne180100Ev, symObjAddr: 0xC7C0, symBinAddr: 0x10000D67C, symSize: 0x14 }
  - { offset: 0x2B8D2, size: 0x8, addend: 0x0, symName: __ZNKSt3__110unique_ptrINS_6vectorIN8nlohmann16json_abi_v3_11_310basic_jsonINS_3mapES1_NS_12basic_stringIcNS_11char_traitsIcEENS_9allocatorIcEEEEbxydS9_NS3_14adl_serializerENS1_IhNS9_IhEEEEvEENS9_ISF_EEEEZNSF_6createISH_JRKSH_EEEPT_DpOT0_EUlPSH_E_EcvbB8ne180100Ev, symObjAddr: 0xC7D4, symBinAddr: 0x10000D690, symSize: 0x34 }
  - { offset: 0x2B8F8, size: 0x8, addend: 0x0, symName: __ZNSt3__117__compressed_pairIPNS_6vectorIN8nlohmann16json_abi_v3_11_310basic_jsonINS_3mapES1_NS_12basic_stringIcNS_11char_traitsIcEENS_9allocatorIcEEEEbxydS9_NS3_14adl_serializerENS1_IhNS9_IhEEEEvEENS9_ISF_EEEEZNSF_6createISH_JRKSH_EEEPT_DpOT0_EUlSI_E_E5firstB8ne180100Ev, symObjAddr: 0xC808, symBinAddr: 0x10000D6C4, symSize: 0x24 }
  - { offset: 0x2B91E, size: 0x8, addend: 0x0, symName: __ZNSt3__122__compressed_pair_elemIPNS_6vectorIN8nlohmann16json_abi_v3_11_310basic_jsonINS_3mapES1_NS_12basic_stringIcNS_11char_traitsIcEENS_9allocatorIcEEEEbxydS9_NS3_14adl_serializerENS1_IhNS9_IhEEEEvEENS9_ISF_EEEELi0ELb0EE5__getB8ne180100Ev, symObjAddr: 0xC82C, symBinAddr: 0x10000D6E8, symSize: 0x14 }
  - { offset: 0x2B944, size: 0x8, addend: 0x0, symName: __ZNSt3__110unique_ptrINS_6vectorIN8nlohmann16json_abi_v3_11_310basic_jsonINS_3mapES1_NS_12basic_stringIcNS_11char_traitsIcEENS_9allocatorIcEEEEbxydS9_NS3_14adl_serializerENS1_IhNS9_IhEEEEvEENS9_ISF_EEEEZNSF_6createISH_JRKSH_EEEPT_DpOT0_EUlPSH_E_ED2B8ne180100Ev, symObjAddr: 0xC840, symBinAddr: 0x10000D6FC, symSize: 0x30 }
  - { offset: 0x2B96E, size: 0x8, addend: 0x0, symName: __ZNSt3__110unique_ptrINS_6vectorIN8nlohmann16json_abi_v3_11_310basic_jsonINS_3mapES1_NS_12basic_stringIcNS_11char_traitsIcEENS_9allocatorIcEEEEbxydS9_NS3_14adl_serializerENS1_IhNS9_IhEEEEvEENS9_ISF_EEEEZNSF_6createISH_JRKSH_EEEPT_DpOT0_EUlPSH_E_E5resetB8ne180100ESQ_, symObjAddr: 0xC870, symBinAddr: 0x10000D72C, symSize: 0x80 }
  - { offset: 0x2B9B2, size: 0x8, addend: 0x0, symName: __ZNSt3__117__compressed_pairIPNS_6vectorIN8nlohmann16json_abi_v3_11_310basic_jsonINS_3mapES1_NS_12basic_stringIcNS_11char_traitsIcEENS_9allocatorIcEEEEbxydS9_NS3_14adl_serializerENS1_IhNS9_IhEEEEvEENS9_ISF_EEEEZNSF_6createISH_JRKSH_EEEPT_DpOT0_EUlSI_E_E6secondB8ne180100Ev, symObjAddr: 0xC8F0, symBinAddr: 0x10000D7AC, symSize: 0x28 }
  - { offset: 0x2B9DE, size: 0x8, addend: 0x0, symName: __ZZN8nlohmann16json_abi_v3_11_310basic_jsonINSt3__13mapENS2_6vectorENS2_12basic_stringIcNS2_11char_traitsIcEENS2_9allocatorIcEEEEbxydS8_NS0_14adl_serializerENS4_IhNS8_IhEEEEvE6createINS4_ISE_NS8_ISE_EEEEJRKSH_EEEPT_DpOT0_ENKUlPSH_E_clESP_, symObjAddr: 0xC918, symBinAddr: 0x10000D7D4, symSize: 0x34 }
  - { offset: 0x2BA17, size: 0x8, addend: 0x0, symName: __ZNSt3__122__compressed_pair_elemIZN8nlohmann16json_abi_v3_11_310basic_jsonINS_3mapENS_6vectorENS_12basic_stringIcNS_11char_traitsIcEENS_9allocatorIcEEEEbxydS9_NS2_14adl_serializerENS5_IhNS9_IhEEEEvE6createINS5_ISF_NS9_ISF_EEEEJRKSI_EEEPT_DpOT0_EUlPSI_E_Li1ELb0EE5__getB8ne180100Ev, symObjAddr: 0xC94C, symBinAddr: 0x10000D808, symSize: 0x14 }
  - { offset: 0x2BA3D, size: 0x8, addend: 0x0, symName: __ZNSt3__116allocator_traitsINS_9allocatorINS_6vectorIN8nlohmann16json_abi_v3_11_310basic_jsonINS_3mapES2_NS_12basic_stringIcNS_11char_traitsIcEENS1_IcEEEEbxydS1_NS4_14adl_serializerENS2_IhNS1_IhEEEEvEENS1_ISF_EEEEEEE10deallocateB8ne180100ERSI_PSH_m, symObjAddr: 0xC960, symBinAddr: 0x10000D81C, symSize: 0x34 }
  - { offset: 0x2BA7F, size: 0x8, addend: 0x0, symName: __ZNSt3__19allocatorINS_6vectorIN8nlohmann16json_abi_v3_11_310basic_jsonINS_3mapES1_NS_12basic_stringIcNS_11char_traitsIcEENS0_IcEEEEbxydS0_NS3_14adl_serializerENS1_IhNS0_IhEEEEvEENS0_ISE_EEEEE10deallocateB8ne180100EPSG_m, symObjAddr: 0xC994, symBinAddr: 0x10000D850, symSize: 0x44 }
  - { offset: 0x2BAC1, size: 0x8, addend: 0x0, symName: __ZN8nlohmann16json_abi_v3_11_310basic_jsonINSt3__13mapENS2_6vectorENS2_12basic_stringIcNS2_11char_traitsIcEENS2_9allocatorIcEEEEbxydS8_NS0_14adl_serializerENS4_IhNS8_IhEEEEvE10json_valueC2ERKSA_, symObjAddr: 0xC9D8, symBinAddr: 0x10000D894, symSize: 0x3C }
  - { offset: 0x2BAFA, size: 0x8, addend: 0x0, symName: __ZN8nlohmann16json_abi_v3_11_310basic_jsonINSt3__13mapENS2_6vectorENS2_12basic_stringIcNS2_11char_traitsIcEENS2_9allocatorIcEEEEbxydS8_NS0_14adl_serializerENS4_IhNS8_IhEEEEvE6createISA_JRKSA_EEEPT_DpOT0_, symObjAddr: 0xCA14, symBinAddr: 0x10000D8D0, symSize: 0xF4 }
  - { offset: 0x2BB88, size: 0x8, addend: 0x0, symName: __ZNSt3__19allocatorINS_12basic_stringIcNS_11char_traitsIcEENS0_IcEEEEEC1B8ne180100Ev, symObjAddr: 0xCB08, symBinAddr: 0x10000D9C4, symSize: 0x2C }
  - { offset: 0x2BBB2, size: 0x8, addend: 0x0, symName: __ZNSt3__116allocator_traitsINS_9allocatorINS_12basic_stringIcNS_11char_traitsIcEENS1_IcEEEEEEE8allocateB8ne180100ERS7_m, symObjAddr: 0xCB34, symBinAddr: 0x10000D9F0, symSize: 0x2C }
  - { offset: 0x2BC58, size: 0x8, addend: 0x0, symName: __ZNSt3__110unique_ptrINS_12basic_stringIcNS_11char_traitsIcEENS_9allocatorIcEEEEZN8nlohmann16json_abi_v3_11_310basic_jsonINS_3mapENS_6vectorES6_bxydS4_NS8_14adl_serializerENSB_IhNS4_IhEEEEvE6createIS6_JRKS6_EEEPT_DpOT0_EUlPS6_E_EC1B8ne180100ILb1EvEESO_NS_16__dependent_typeINS_27__unique_ptr_deleter_sfinaeISP_EEXT_EE15__lval_ref_typeE, symObjAddr: 0xCB60, symBinAddr: 0x10000DA1C, symSize: 0x3C }
  - { offset: 0x2BCA9, size: 0x8, addend: 0x0, symName: __ZNSt3__116allocator_traitsINS_9allocatorINS_12basic_stringIcNS_11char_traitsIcEENS1_IcEEEEEEE9constructB8ne180100IS6_JRKS6_EvvEEvRS7_PT_DpOT0_, symObjAddr: 0xCB9C, symBinAddr: 0x10000DA58, symSize: 0x30 }
  - { offset: 0x2BCFE, size: 0x8, addend: 0x0, symName: __ZNKSt3__110unique_ptrINS_12basic_stringIcNS_11char_traitsIcEENS_9allocatorIcEEEEZN8nlohmann16json_abi_v3_11_310basic_jsonINS_3mapENS_6vectorES6_bxydS4_NS8_14adl_serializerENSB_IhNS4_IhEEEEvE6createIS6_JRKS6_EEEPT_DpOT0_EUlPS6_E_E3getB8ne180100Ev, symObjAddr: 0xCBCC, symBinAddr: 0x10000DA88, symSize: 0x28 }
  - { offset: 0x2BD24, size: 0x8, addend: 0x0, symName: __ZNSt3__110unique_ptrINS_12basic_stringIcNS_11char_traitsIcEENS_9allocatorIcEEEEZN8nlohmann16json_abi_v3_11_310basic_jsonINS_3mapENS_6vectorES6_bxydS4_NS8_14adl_serializerENSB_IhNS4_IhEEEEvE6createIS6_JRKS6_EEEPT_DpOT0_EUlPS6_E_E7releaseB8ne180100Ev, symObjAddr: 0xCC24, symBinAddr: 0x10000DAE0, symSize: 0x44 }
  - { offset: 0x2BD59, size: 0x8, addend: 0x0, symName: __ZNSt3__110unique_ptrINS_12basic_stringIcNS_11char_traitsIcEENS_9allocatorIcEEEEZN8nlohmann16json_abi_v3_11_310basic_jsonINS_3mapENS_6vectorES6_bxydS4_NS8_14adl_serializerENSB_IhNS4_IhEEEEvE6createIS6_JRKS6_EEEPT_DpOT0_EUlPS6_E_ED1B8ne180100Ev, symObjAddr: 0xCC68, symBinAddr: 0x10000DB24, symSize: 0x2C }
  - { offset: 0x2BD83, size: 0x8, addend: 0x0, symName: __ZNSt3__19allocatorINS_12basic_stringIcNS_11char_traitsIcEENS0_IcEEEEEC2B8ne180100Ev, symObjAddr: 0xCC94, symBinAddr: 0x10000DB50, symSize: 0x2C }
  - { offset: 0x2BDAD, size: 0x8, addend: 0x0, symName: __ZNSt3__116__non_trivial_ifILb1ENS_9allocatorINS_12basic_stringIcNS_11char_traitsIcEENS1_IcEEEEEEEC2B8ne180100Ev, symObjAddr: 0xCCC0, symBinAddr: 0x10000DB7C, symSize: 0x14 }
  - { offset: 0x2BDD7, size: 0x8, addend: 0x0, symName: __ZNSt3__19allocatorINS_12basic_stringIcNS_11char_traitsIcEENS0_IcEEEEE8allocateB8ne180100Em, symObjAddr: 0xCCD4, symBinAddr: 0x10000DB90, symSize: 0x5C }
  - { offset: 0x2BE16, size: 0x8, addend: 0x0, symName: __ZNSt3__116allocator_traitsINS_9allocatorINS_12basic_stringIcNS_11char_traitsIcEENS1_IcEEEEEEE8max_sizeB8ne180100IS7_vvEEmRKS7_, symObjAddr: 0xCD30, symBinAddr: 0x10000DBEC, symSize: 0x28 }
  - { offset: 0x2BE42, size: 0x8, addend: 0x0, symName: __ZNSt3__110unique_ptrINS_12basic_stringIcNS_11char_traitsIcEENS_9allocatorIcEEEEZN8nlohmann16json_abi_v3_11_310basic_jsonINS_3mapENS_6vectorES6_bxydS4_NS8_14adl_serializerENSB_IhNS4_IhEEEEvE6createIS6_JRKS6_EEEPT_DpOT0_EUlPS6_E_EC2B8ne180100ILb1EvEESO_NS_16__dependent_typeINS_27__unique_ptr_deleter_sfinaeISP_EEXT_EE15__lval_ref_typeE, symObjAddr: 0xCD58, symBinAddr: 0x10000DC14, symSize: 0x48 }
  - { offset: 0x2BE99, size: 0x8, addend: 0x0, symName: __ZNSt3__117__compressed_pairIPNS_12basic_stringIcNS_11char_traitsIcEENS_9allocatorIcEEEEZN8nlohmann16json_abi_v3_11_310basic_jsonINS_3mapENS_6vectorES6_bxydS4_NS9_14adl_serializerENSC_IhNS4_IhEEEEvE6createIS6_JRKS6_EEEPT_DpOT0_EUlS7_E_EC1B8ne180100IRS7_RKSP_EEOSK_OT0_, symObjAddr: 0xCDA0, symBinAddr: 0x10000DC5C, symSize: 0x3C }
  - { offset: 0x2BEF1, size: 0x8, addend: 0x0, symName: __ZNSt3__117__compressed_pairIPNS_12basic_stringIcNS_11char_traitsIcEENS_9allocatorIcEEEEZN8nlohmann16json_abi_v3_11_310basic_jsonINS_3mapENS_6vectorES6_bxydS4_NS9_14adl_serializerENSC_IhNS4_IhEEEEvE6createIS6_JRKS6_EEEPT_DpOT0_EUlS7_E_EC2B8ne180100IRS7_RKSP_EEOSK_OT0_, symObjAddr: 0xCDDC, symBinAddr: 0x10000DC98, symSize: 0x48 }
  - { offset: 0x2BF49, size: 0x8, addend: 0x0, symName: __ZNSt3__122__compressed_pair_elemIPNS_12basic_stringIcNS_11char_traitsIcEENS_9allocatorIcEEEELi0ELb0EEC2B8ne180100IRS7_vEEOT_, symObjAddr: 0xCE24, symBinAddr: 0x10000DCE0, symSize: 0x24 }
  - { offset: 0x2BF8B, size: 0x8, addend: 0x0, symName: __ZNSt3__122__compressed_pair_elemIZN8nlohmann16json_abi_v3_11_310basic_jsonINS_3mapENS_6vectorENS_12basic_stringIcNS_11char_traitsIcEENS_9allocatorIcEEEEbxydS9_NS2_14adl_serializerENS5_IhNS9_IhEEEEvE6createISB_JRKSB_EEEPT_DpOT0_EUlPSB_E_Li1ELb0EEC2B8ne180100IRKSP_vEEOSJ_, symObjAddr: 0xCE48, symBinAddr: 0x10000DD04, symSize: 0x24 }
  - { offset: 0x2BFCD, size: 0x8, addend: 0x0, symName: __ZNKSt3__117__compressed_pairIPNS_12basic_stringIcNS_11char_traitsIcEENS_9allocatorIcEEEEZN8nlohmann16json_abi_v3_11_310basic_jsonINS_3mapENS_6vectorES6_bxydS4_NS9_14adl_serializerENSC_IhNS4_IhEEEEvE6createIS6_JRKS6_EEEPT_DpOT0_EUlS7_E_E5firstB8ne180100Ev, symObjAddr: 0xCECC, symBinAddr: 0x10000DD88, symSize: 0x24 }
  - { offset: 0x2BFF3, size: 0x8, addend: 0x0, symName: __ZNKSt3__122__compressed_pair_elemIPNS_12basic_stringIcNS_11char_traitsIcEENS_9allocatorIcEEEELi0ELb0EE5__getB8ne180100Ev, symObjAddr: 0xCEF0, symBinAddr: 0x10000DDAC, symSize: 0x14 }
  - { offset: 0x2C019, size: 0x8, addend: 0x0, symName: __ZNKSt3__110unique_ptrINS_12basic_stringIcNS_11char_traitsIcEENS_9allocatorIcEEEEZN8nlohmann16json_abi_v3_11_310basic_jsonINS_3mapENS_6vectorES6_bxydS4_NS8_14adl_serializerENSB_IhNS4_IhEEEEvE6createIS6_JRKS6_EEEPT_DpOT0_EUlPS6_E_EcvbB8ne180100Ev, symObjAddr: 0xCF04, symBinAddr: 0x10000DDC0, symSize: 0x34 }
  - { offset: 0x2C03F, size: 0x8, addend: 0x0, symName: __ZNSt3__117__compressed_pairIPNS_12basic_stringIcNS_11char_traitsIcEENS_9allocatorIcEEEEZN8nlohmann16json_abi_v3_11_310basic_jsonINS_3mapENS_6vectorES6_bxydS4_NS9_14adl_serializerENSC_IhNS4_IhEEEEvE6createIS6_JRKS6_EEEPT_DpOT0_EUlS7_E_E5firstB8ne180100Ev, symObjAddr: 0xCF38, symBinAddr: 0x10000DDF4, symSize: 0x24 }
  - { offset: 0x2C065, size: 0x8, addend: 0x0, symName: __ZNSt3__122__compressed_pair_elemIPNS_12basic_stringIcNS_11char_traitsIcEENS_9allocatorIcEEEELi0ELb0EE5__getB8ne180100Ev, symObjAddr: 0xCF5C, symBinAddr: 0x10000DE18, symSize: 0x14 }
  - { offset: 0x2C08B, size: 0x8, addend: 0x0, symName: __ZNSt3__110unique_ptrINS_12basic_stringIcNS_11char_traitsIcEENS_9allocatorIcEEEEZN8nlohmann16json_abi_v3_11_310basic_jsonINS_3mapENS_6vectorES6_bxydS4_NS8_14adl_serializerENSB_IhNS4_IhEEEEvE6createIS6_JRKS6_EEEPT_DpOT0_EUlPS6_E_ED2B8ne180100Ev, symObjAddr: 0xCF70, symBinAddr: 0x10000DE2C, symSize: 0x30 }
  - { offset: 0x2C0B5, size: 0x8, addend: 0x0, symName: __ZNSt3__110unique_ptrINS_12basic_stringIcNS_11char_traitsIcEENS_9allocatorIcEEEEZN8nlohmann16json_abi_v3_11_310basic_jsonINS_3mapENS_6vectorES6_bxydS4_NS8_14adl_serializerENSB_IhNS4_IhEEEEvE6createIS6_JRKS6_EEEPT_DpOT0_EUlPS6_E_E5resetB8ne180100ESO_, symObjAddr: 0xCFA0, symBinAddr: 0x10000DE5C, symSize: 0x80 }
  - { offset: 0x2C0F9, size: 0x8, addend: 0x0, symName: __ZNSt3__117__compressed_pairIPNS_12basic_stringIcNS_11char_traitsIcEENS_9allocatorIcEEEEZN8nlohmann16json_abi_v3_11_310basic_jsonINS_3mapENS_6vectorES6_bxydS4_NS9_14adl_serializerENSC_IhNS4_IhEEEEvE6createIS6_JRKS6_EEEPT_DpOT0_EUlS7_E_E6secondB8ne180100Ev, symObjAddr: 0xD020, symBinAddr: 0x10000DEDC, symSize: 0x28 }
  - { offset: 0x2C125, size: 0x8, addend: 0x0, symName: __ZZN8nlohmann16json_abi_v3_11_310basic_jsonINSt3__13mapENS2_6vectorENS2_12basic_stringIcNS2_11char_traitsIcEENS2_9allocatorIcEEEEbxydS8_NS0_14adl_serializerENS4_IhNS8_IhEEEEvE6createISA_JRKSA_EEEPT_DpOT0_ENKUlPSA_E_clESN_, symObjAddr: 0xD048, symBinAddr: 0x10000DF04, symSize: 0x34 }
  - { offset: 0x2C15E, size: 0x8, addend: 0x0, symName: __ZNSt3__122__compressed_pair_elemIZN8nlohmann16json_abi_v3_11_310basic_jsonINS_3mapENS_6vectorENS_12basic_stringIcNS_11char_traitsIcEENS_9allocatorIcEEEEbxydS9_NS2_14adl_serializerENS5_IhNS9_IhEEEEvE6createISB_JRKSB_EEEPT_DpOT0_EUlPSB_E_Li1ELb0EE5__getB8ne180100Ev, symObjAddr: 0xD07C, symBinAddr: 0x10000DF38, symSize: 0x14 }
  - { offset: 0x2C184, size: 0x8, addend: 0x0, symName: __ZNSt3__116allocator_traitsINS_9allocatorINS_12basic_stringIcNS_11char_traitsIcEENS1_IcEEEEEEE10deallocateB8ne180100ERS7_PS6_m, symObjAddr: 0xD090, symBinAddr: 0x10000DF4C, symSize: 0x34 }
  - { offset: 0x2C1C6, size: 0x8, addend: 0x0, symName: __ZNSt3__19allocatorINS_12basic_stringIcNS_11char_traitsIcEENS0_IcEEEEE10deallocateB8ne180100EPS5_m, symObjAddr: 0xD0C4, symBinAddr: 0x10000DF80, symSize: 0x44 }
  - { offset: 0x2C208, size: 0x8, addend: 0x0, symName: __ZN8nlohmann16json_abi_v3_11_310basic_jsonINSt3__13mapENS2_6vectorENS2_12basic_stringIcNS2_11char_traitsIcEENS2_9allocatorIcEEEEbxydS8_NS0_14adl_serializerENS4_IhNS8_IhEEEEvE10json_valueC2Eb, symObjAddr: 0xD108, symBinAddr: 0x10000DFC4, symSize: 0x2C }
  - { offset: 0x2C241, size: 0x8, addend: 0x0, symName: __ZN8nlohmann16json_abi_v3_11_310basic_jsonINSt3__13mapENS2_6vectorENS2_12basic_stringIcNS2_11char_traitsIcEENS2_9allocatorIcEEEEbxydS8_NS0_14adl_serializerENS4_IhNS8_IhEEEEvE10json_valueC2Ex, symObjAddr: 0xD134, symBinAddr: 0x10000DFF0, symSize: 0x20 }
  - { offset: 0x2C27A, size: 0x8, addend: 0x0, symName: __ZN8nlohmann16json_abi_v3_11_310basic_jsonINSt3__13mapENS2_6vectorENS2_12basic_stringIcNS2_11char_traitsIcEENS2_9allocatorIcEEEEbxydS8_NS0_14adl_serializerENS4_IhNS8_IhEEEEvE10json_valueC2Ey, symObjAddr: 0xD154, symBinAddr: 0x10000E010, symSize: 0x20 }
  - { offset: 0x2C2B3, size: 0x8, addend: 0x0, symName: __ZN8nlohmann16json_abi_v3_11_310basic_jsonINSt3__13mapENS2_6vectorENS2_12basic_stringIcNS2_11char_traitsIcEENS2_9allocatorIcEEEEbxydS8_NS0_14adl_serializerENS4_IhNS8_IhEEEEvE10json_valueC2Ed, symObjAddr: 0xD174, symBinAddr: 0x10000E030, symSize: 0x20 }
  - { offset: 0x2C2EC, size: 0x8, addend: 0x0, symName: __ZN8nlohmann16json_abi_v3_11_310basic_jsonINSt3__13mapENS2_6vectorENS2_12basic_stringIcNS2_11char_traitsIcEENS2_9allocatorIcEEEEbxydS8_NS0_14adl_serializerENS4_IhNS8_IhEEEEvE10json_valueC2ERKNS0_27byte_container_with_subtypeISD_EE, symObjAddr: 0xD194, symBinAddr: 0x10000E050, symSize: 0x3C }
  - { offset: 0x2C325, size: 0x8, addend: 0x0, symName: __ZN8nlohmann16json_abi_v3_11_310basic_jsonINSt3__13mapENS2_6vectorENS2_12basic_stringIcNS2_11char_traitsIcEENS2_9allocatorIcEEEEbxydS8_NS0_14adl_serializerENS4_IhNS8_IhEEEEvE6createINS0_27byte_container_with_subtypeISD_EEJRKSH_EEEPT_DpOT0_, symObjAddr: 0xD1D0, symBinAddr: 0x10000E08C, symSize: 0xF4 }
  - { offset: 0x2C3BF, size: 0x8, addend: 0x0, symName: __ZNSt3__19allocatorIN8nlohmann16json_abi_v3_11_327byte_container_with_subtypeINS_6vectorIhNS0_IhEEEEEEEC1B8ne180100Ev, symObjAddr: 0xD2C4, symBinAddr: 0x10000E180, symSize: 0x2C }
  - { offset: 0x2C3EF, size: 0x8, addend: 0x0, symName: __ZNSt3__116allocator_traitsINS_9allocatorIN8nlohmann16json_abi_v3_11_327byte_container_with_subtypeINS_6vectorIhNS1_IhEEEEEEEEE8allocateB8ne180100ERS9_m, symObjAddr: 0xD2F0, symBinAddr: 0x10000E1AC, symSize: 0x2C }
  - { offset: 0x2C4C9, size: 0x8, addend: 0x0, symName: __ZNSt3__110unique_ptrIN8nlohmann16json_abi_v3_11_327byte_container_with_subtypeINS_6vectorIhNS_9allocatorIhEEEEEEZNS2_10basic_jsonINS_3mapES4_NS_12basic_stringIcNS_11char_traitsIcEENS5_IcEEEEbxydS5_NS2_14adl_serializerES7_vE6createIS8_JRKS8_EEEPT_DpOT0_EUlPS8_E_EC1B8ne180100ILb1EvEESQ_NS_16__dependent_typeINS_27__unique_ptr_deleter_sfinaeISR_EEXT_EE15__lval_ref_typeE, symObjAddr: 0xD31C, symBinAddr: 0x10000E1D8, symSize: 0x3C }
  - { offset: 0x2C51A, size: 0x8, addend: 0x0, symName: __ZNSt3__116allocator_traitsINS_9allocatorIN8nlohmann16json_abi_v3_11_327byte_container_with_subtypeINS_6vectorIhNS1_IhEEEEEEEEE9constructB8ne180100IS8_JRKS8_EvvEEvRS9_PT_DpOT0_, symObjAddr: 0xD358, symBinAddr: 0x10000E214, symSize: 0x30 }
  - { offset: 0x2C56F, size: 0x8, addend: 0x0, symName: __ZNKSt3__110unique_ptrIN8nlohmann16json_abi_v3_11_327byte_container_with_subtypeINS_6vectorIhNS_9allocatorIhEEEEEEZNS2_10basic_jsonINS_3mapES4_NS_12basic_stringIcNS_11char_traitsIcEENS5_IcEEEEbxydS5_NS2_14adl_serializerES7_vE6createIS8_JRKS8_EEEPT_DpOT0_EUlPS8_E_E3getB8ne180100Ev, symObjAddr: 0xD388, symBinAddr: 0x10000E244, symSize: 0x28 }
  - { offset: 0x2C595, size: 0x8, addend: 0x0, symName: __ZNSt3__110unique_ptrIN8nlohmann16json_abi_v3_11_327byte_container_with_subtypeINS_6vectorIhNS_9allocatorIhEEEEEEZNS2_10basic_jsonINS_3mapES4_NS_12basic_stringIcNS_11char_traitsIcEENS5_IcEEEEbxydS5_NS2_14adl_serializerES7_vE6createIS8_JRKS8_EEEPT_DpOT0_EUlPS8_E_E7releaseB8ne180100Ev, symObjAddr: 0xD3E0, symBinAddr: 0x10000E29C, symSize: 0x44 }
  - { offset: 0x2C5CA, size: 0x8, addend: 0x0, symName: __ZNSt3__110unique_ptrIN8nlohmann16json_abi_v3_11_327byte_container_with_subtypeINS_6vectorIhNS_9allocatorIhEEEEEEZNS2_10basic_jsonINS_3mapES4_NS_12basic_stringIcNS_11char_traitsIcEENS5_IcEEEEbxydS5_NS2_14adl_serializerES7_vE6createIS8_JRKS8_EEEPT_DpOT0_EUlPS8_E_ED1B8ne180100Ev, symObjAddr: 0xD424, symBinAddr: 0x10000E2E0, symSize: 0x2C }
  - { offset: 0x2C5F4, size: 0x8, addend: 0x0, symName: __ZNSt3__19allocatorIN8nlohmann16json_abi_v3_11_327byte_container_with_subtypeINS_6vectorIhNS0_IhEEEEEEEC2B8ne180100Ev, symObjAddr: 0xD450, symBinAddr: 0x10000E30C, symSize: 0x2C }
  - { offset: 0x2C61E, size: 0x8, addend: 0x0, symName: __ZNSt3__116__non_trivial_ifILb1ENS_9allocatorIN8nlohmann16json_abi_v3_11_327byte_container_with_subtypeINS_6vectorIhNS1_IhEEEEEEEEEC2B8ne180100Ev, symObjAddr: 0xD47C, symBinAddr: 0x10000E338, symSize: 0x14 }
  - { offset: 0x2C648, size: 0x8, addend: 0x0, symName: __ZNSt3__19allocatorIN8nlohmann16json_abi_v3_11_327byte_container_with_subtypeINS_6vectorIhNS0_IhEEEEEEE8allocateB8ne180100Em, symObjAddr: 0xD490, symBinAddr: 0x10000E34C, symSize: 0x5C }
  - { offset: 0x2C687, size: 0x8, addend: 0x0, symName: __ZNSt3__116allocator_traitsINS_9allocatorIN8nlohmann16json_abi_v3_11_327byte_container_with_subtypeINS_6vectorIhNS1_IhEEEEEEEEE8max_sizeB8ne180100IS9_vvEEmRKS9_, symObjAddr: 0xD4EC, symBinAddr: 0x10000E3A8, symSize: 0x28 }
  - { offset: 0x2C6B3, size: 0x8, addend: 0x0, symName: __ZNSt3__110unique_ptrIN8nlohmann16json_abi_v3_11_327byte_container_with_subtypeINS_6vectorIhNS_9allocatorIhEEEEEEZNS2_10basic_jsonINS_3mapES4_NS_12basic_stringIcNS_11char_traitsIcEENS5_IcEEEEbxydS5_NS2_14adl_serializerES7_vE6createIS8_JRKS8_EEEPT_DpOT0_EUlPS8_E_EC2B8ne180100ILb1EvEESQ_NS_16__dependent_typeINS_27__unique_ptr_deleter_sfinaeISR_EEXT_EE15__lval_ref_typeE, symObjAddr: 0xD514, symBinAddr: 0x10000E3D0, symSize: 0x48 }
  - { offset: 0x2C704, size: 0x8, addend: 0x0, symName: __ZNSt3__117__compressed_pairIPN8nlohmann16json_abi_v3_11_327byte_container_with_subtypeINS_6vectorIhNS_9allocatorIhEEEEEEZNS2_10basic_jsonINS_3mapES4_NS_12basic_stringIcNS_11char_traitsIcEENS5_IcEEEEbxydS5_NS2_14adl_serializerES7_vE6createIS8_JRKS8_EEEPT_DpOT0_EUlS9_E_EC1B8ne180100IRS9_RKSR_EEOSM_OT0_, symObjAddr: 0xD55C, symBinAddr: 0x10000E418, symSize: 0x3C }
  - { offset: 0x2C75C, size: 0x8, addend: 0x0, symName: __ZNSt3__117__compressed_pairIPN8nlohmann16json_abi_v3_11_327byte_container_with_subtypeINS_6vectorIhNS_9allocatorIhEEEEEEZNS2_10basic_jsonINS_3mapES4_NS_12basic_stringIcNS_11char_traitsIcEENS5_IcEEEEbxydS5_NS2_14adl_serializerES7_vE6createIS8_JRKS8_EEEPT_DpOT0_EUlS9_E_EC2B8ne180100IRS9_RKSR_EEOSM_OT0_, symObjAddr: 0xD598, symBinAddr: 0x10000E454, symSize: 0x48 }
  - { offset: 0x2C7B4, size: 0x8, addend: 0x0, symName: __ZNSt3__122__compressed_pair_elemIPN8nlohmann16json_abi_v3_11_327byte_container_with_subtypeINS_6vectorIhNS_9allocatorIhEEEEEELi0ELb0EEC2B8ne180100IRS9_vEEOT_, symObjAddr: 0xD5E0, symBinAddr: 0x10000E49C, symSize: 0x24 }
  - { offset: 0x2C7F6, size: 0x8, addend: 0x0, symName: __ZNSt3__122__compressed_pair_elemIZN8nlohmann16json_abi_v3_11_310basic_jsonINS_3mapENS_6vectorENS_12basic_stringIcNS_11char_traitsIcEENS_9allocatorIcEEEEbxydS9_NS2_14adl_serializerENS5_IhNS9_IhEEEEvE6createINS2_27byte_container_with_subtypeISE_EEJRKSI_EEEPT_DpOT0_EUlPSI_E_Li1ELb0EEC2B8ne180100IRKSR_vEEOSL_, symObjAddr: 0xD604, symBinAddr: 0x10000E4C0, symSize: 0x24 }
  - { offset: 0x2C838, size: 0x8, addend: 0x0, symName: __ZN8nlohmann16json_abi_v3_11_327byte_container_with_subtypeINSt3__16vectorIhNS2_9allocatorIhEEEEEC1ERKS7_, symObjAddr: 0xD688, symBinAddr: 0x10000E544, symSize: 0x34 }
  - { offset: 0x2C86D, size: 0x8, addend: 0x0, symName: __ZN8nlohmann16json_abi_v3_11_327byte_container_with_subtypeINSt3__16vectorIhNS2_9allocatorIhEEEEEC2ERKS7_, symObjAddr: 0xD6BC, symBinAddr: 0x10000E578, symSize: 0x48 }
  - { offset: 0x2C8A2, size: 0x8, addend: 0x0, symName: __ZNSt3__16vectorIhNS_9allocatorIhEEEC2ERKS3_, symObjAddr: 0xD704, symBinAddr: 0x10000E5C0, symSize: 0x94 }
  - { offset: 0x2C8E8, size: 0x8, addend: 0x0, symName: __ZNSt3__116allocator_traitsINS_9allocatorIhEEE37select_on_container_copy_constructionB8ne180100IS2_vvEES2_RKS2_, symObjAddr: 0xD798, symBinAddr: 0x10000E654, symSize: 0x10 }
  - { offset: 0x2C917, size: 0x8, addend: 0x0, symName: __ZNKSt3__16vectorIhNS_9allocatorIhEEE7__allocB8ne180100Ev, symObjAddr: 0xD7A8, symBinAddr: 0x10000E664, symSize: 0x28 }
  - { offset: 0x2C943, size: 0x8, addend: 0x0, symName: __ZNSt3__117__compressed_pairIPhNS_9allocatorIhEEEC1B8ne180100IDnS3_EEOT_OT0_, symObjAddr: 0xD7D0, symBinAddr: 0x10000E68C, symSize: 0x3C }
  - { offset: 0x2C99B, size: 0x8, addend: 0x0, symName: __ZNSt3__16vectorIhNS_9allocatorIhEEE16__init_with_sizeB8ne180100IPhS5_EEvT_T0_m, symObjAddr: 0xD80C, symBinAddr: 0x10000E6C8, symSize: 0xB8 }
  - { offset: 0x2CA0F, size: 0x8, addend: 0x0, symName: __ZNKSt3__16vectorIhNS_9allocatorIhEEE4sizeB8ne180100Ev, symObjAddr: 0xD8C4, symBinAddr: 0x10000E780, symSize: 0x20 }
  - { offset: 0x2CA35, size: 0x8, addend: 0x0, symName: __ZNKSt3__117__compressed_pairIPhNS_9allocatorIhEEE6secondB8ne180100Ev, symObjAddr: 0xD8E4, symBinAddr: 0x10000E7A0, symSize: 0x24 }
  - { offset: 0x2CA5B, size: 0x8, addend: 0x0, symName: __ZNKSt3__122__compressed_pair_elemINS_9allocatorIhEELi1ELb1EE5__getB8ne180100Ev, symObjAddr: 0xD908, symBinAddr: 0x10000E7C4, symSize: 0x14 }
  - { offset: 0x2CA81, size: 0x8, addend: 0x0, symName: __ZNSt3__117__compressed_pairIPhNS_9allocatorIhEEEC2B8ne180100IDnS3_EEOT_OT0_, symObjAddr: 0xD91C, symBinAddr: 0x10000E7D8, symSize: 0x44 }
  - { offset: 0x2CAD9, size: 0x8, addend: 0x0, symName: __ZNSt3__122__compressed_pair_elemIPhLi0ELb0EEC2B8ne180100IDnvEEOT_, symObjAddr: 0xD960, symBinAddr: 0x10000E81C, symSize: 0x1C }
  - { offset: 0x2CB1B, size: 0x8, addend: 0x0, symName: __ZNSt3__122__compressed_pair_elemINS_9allocatorIhEELi1ELb1EEC2B8ne180100IS2_vEEOT_, symObjAddr: 0xD97C, symBinAddr: 0x10000E838, symSize: 0x18 }
  - { offset: 0x2CB5D, size: 0x8, addend: 0x0, symName: __ZNSt3__16vectorIhNS_9allocatorIhEEE16__destroy_vectorC1B8ne180100ERS3_, symObjAddr: 0xD9D4, symBinAddr: 0x10000E890, symSize: 0x34 }
  - { offset: 0x2CB96, size: 0x8, addend: 0x0, symName: __ZNSt3__16vectorIhNS_9allocatorIhEEE11__vallocateB8ne180100Em, symObjAddr: 0xDA08, symBinAddr: 0x10000E8C4, symSize: 0xAC }
  - { offset: 0x2CBDA, size: 0x8, addend: 0x0, symName: __ZNSt3__16vectorIhNS_9allocatorIhEEE18__construct_at_endIPhS5_EEvT_T0_m, symObjAddr: 0xDAB4, symBinAddr: 0x10000E970, symSize: 0x8C }
  - { offset: 0x2CC50, size: 0x8, addend: 0x0, symName: __ZNSt3__128__exception_guard_exceptionsINS_6vectorIhNS_9allocatorIhEEE16__destroy_vectorEE10__completeB8ne180100Ev, symObjAddr: 0xDB40, symBinAddr: 0x10000E9FC, symSize: 0x1C }
  - { offset: 0x2CC76, size: 0x8, addend: 0x0, symName: __ZNSt3__128__exception_guard_exceptionsINS_6vectorIhNS_9allocatorIhEEE16__destroy_vectorEED1B8ne180100Ev, symObjAddr: 0xDB5C, symBinAddr: 0x10000EA18, symSize: 0x2C }
  - { offset: 0x2CCA0, size: 0x8, addend: 0x0, symName: __ZNSt3__128__exception_guard_exceptionsINS_6vectorIhNS_9allocatorIhEEE16__destroy_vectorEEC1B8ne180100ES5_, symObjAddr: 0xDB88, symBinAddr: 0x10000EA44, symSize: 0x34 }
  - { offset: 0x2CCD8, size: 0x8, addend: 0x0, symName: __ZNSt3__128__exception_guard_exceptionsINS_6vectorIhNS_9allocatorIhEEE16__destroy_vectorEEC2B8ne180100ES5_, symObjAddr: 0xDBBC, symBinAddr: 0x10000EA78, symSize: 0x24 }
  - { offset: 0x2CD10, size: 0x8, addend: 0x0, symName: __ZNSt3__16vectorIhNS_9allocatorIhEEE16__destroy_vectorC2B8ne180100ERS3_, symObjAddr: 0xDBE0, symBinAddr: 0x10000EA9C, symSize: 0x20 }
  - { offset: 0x2CD49, size: 0x8, addend: 0x0, symName: __ZNKSt3__16vectorIhNS_9allocatorIhEEE8max_sizeEv, symObjAddr: 0xDC00, symBinAddr: 0x10000EABC, symSize: 0x60 }
  - { offset: 0x2CD71, size: 0x8, addend: 0x0, symName: __ZNKSt3__16vectorIhNS_9allocatorIhEEE20__throw_length_errorB8ne180100Ev, symObjAddr: 0xDC60, symBinAddr: 0x10000EB1C, symSize: 0x1C }
  - { offset: 0x2CD97, size: 0x8, addend: 0x0, symName: __ZNSt3__16vectorIhNS_9allocatorIhEEE7__allocB8ne180100Ev, symObjAddr: 0xDCBC, symBinAddr: 0x10000EB78, symSize: 0x28 }
  - { offset: 0x2CDBD, size: 0x8, addend: 0x0, symName: __ZNSt3__16vectorIhNS_9allocatorIhEEE9__end_capB8ne180100Ev, symObjAddr: 0xDCE4, symBinAddr: 0x10000EBA0, symSize: 0x28 }
  - { offset: 0x2CDE3, size: 0x8, addend: 0x0, symName: __ZNKSt3__16vectorIhNS_9allocatorIhEEE14__annotate_newB8ne180100Em, symObjAddr: 0xDD0C, symBinAddr: 0x10000EBC8, symSize: 0x14 }
  - { offset: 0x2CE18, size: 0x8, addend: 0x0, symName: __ZNSt3__116allocator_traitsINS_9allocatorIhEEE8max_sizeB8ne180100IS2_vvEEmRKS2_, symObjAddr: 0xDD20, symBinAddr: 0x10000EBDC, symSize: 0x28 }
  - { offset: 0x2CE44, size: 0x8, addend: 0x0, symName: __ZNSt3__19allocatorIhE8allocateB8ne180100Em, symObjAddr: 0xDD48, symBinAddr: 0x10000EC04, symSize: 0x58 }
  - { offset: 0x2CE78, size: 0x8, addend: 0x0, symName: __ZNSt3__117__compressed_pairIPhNS_9allocatorIhEEE6secondB8ne180100Ev, symObjAddr: 0xDDA0, symBinAddr: 0x10000EC5C, symSize: 0x24 }
  - { offset: 0x2CE9E, size: 0x8, addend: 0x0, symName: __ZNSt3__122__compressed_pair_elemINS_9allocatorIhEELi1ELb1EE5__getB8ne180100Ev, symObjAddr: 0xDDC4, symBinAddr: 0x10000EC80, symSize: 0x14 }
  - { offset: 0x2CEC4, size: 0x8, addend: 0x0, symName: __ZNSt3__117__compressed_pairIPhNS_9allocatorIhEEE5firstB8ne180100Ev, symObjAddr: 0xDDD8, symBinAddr: 0x10000EC94, symSize: 0x24 }
  - { offset: 0x2CEEA, size: 0x8, addend: 0x0, symName: __ZNSt3__122__compressed_pair_elemIPhLi0ELb0EE5__getB8ne180100Ev, symObjAddr: 0xDDFC, symBinAddr: 0x10000ECB8, symSize: 0x14 }
  - { offset: 0x2CF2C, size: 0x8, addend: 0x0, symName: __ZNSt3__16vectorIhNS_9allocatorIhEEE21_ConstructTransactionC1B8ne180100ERS3_m, symObjAddr: 0xDE10, symBinAddr: 0x10000ECCC, symSize: 0x3C }
  - { offset: 0x2CF74, size: 0x8, addend: 0x0, symName: __ZNSt3__16vectorIhNS_9allocatorIhEEE21_ConstructTransactionD1B8ne180100Ev, symObjAddr: 0xDECC, symBinAddr: 0x10000ED88, symSize: 0x2C }
  - { offset: 0x2CF9E, size: 0x8, addend: 0x0, symName: __ZNSt3__16vectorIhNS_9allocatorIhEEE21_ConstructTransactionC2B8ne180100ERS3_m, symObjAddr: 0xDEF8, symBinAddr: 0x10000EDB4, symSize: 0x44 }
  - { offset: 0x2D003, size: 0x8, addend: 0x0, symName: __ZNSt3__119__unwrap_range_implIPhS1_E8__unwrapB8ne180100ES1_S1_, symObjAddr: 0xE010, symBinAddr: 0x10000EECC, symSize: 0x58 }
  - { offset: 0x2D03A, size: 0x8, addend: 0x0, symName: __ZNSt3__14pairIPhS1_EC1B8ne180100IS1_S1_Li0EEEOT_OT0_, symObjAddr: 0xE068, symBinAddr: 0x10000EF24, symSize: 0x3C }
  - { offset: 0x2D098, size: 0x8, addend: 0x0, symName: __ZNSt3__14pairIPhS1_EC2B8ne180100IS1_S1_Li0EEEOT_OT0_, symObjAddr: 0xE0A4, symBinAddr: 0x10000EF60, symSize: 0x34 }
  - { offset: 0x2D0F6, size: 0x8, addend: 0x0, symName: __ZNKSt3__114__copy_trivialclB8ne180100IhhLi0EEENS_4pairIPT_PT0_EES4_S4_S6_, symObjAddr: 0xE254, symBinAddr: 0x10000F110, symSize: 0x48 }
  - { offset: 0x2D15E, size: 0x8, addend: 0x0, symName: __ZNSt3__14pairIPhS1_EC1B8ne180100IRS1_S1_Li0EEEOT_OT0_, symObjAddr: 0xE414, symBinAddr: 0x10000F2D0, symSize: 0x3C }
  - { offset: 0x2D1BC, size: 0x8, addend: 0x0, symName: __ZNSt3__14pairIPhS1_EC2B8ne180100IRS1_S1_Li0EEEOT_OT0_, symObjAddr: 0xE450, symBinAddr: 0x10000F30C, symSize: 0x34 }
  - { offset: 0x2D21A, size: 0x8, addend: 0x0, symName: __ZNSt3__119__unwrap_range_implIPhS1_E8__rewrapB8ne180100ES1_S1_, symObjAddr: 0xE484, symBinAddr: 0x10000F340, symSize: 0x2C }
  - { offset: 0x2D24B, size: 0x8, addend: 0x0, symName: __ZNSt3__118__unwrap_iter_implIPhLb1EE8__unwrapB8ne180100ES1_, symObjAddr: 0xE4B0, symBinAddr: 0x10000F36C, symSize: 0x24 }
  - { offset: 0x2D26E, size: 0x8, addend: 0x0, symName: __ZNSt3__118__unwrap_iter_implIPhLb1EE8__rewrapB8ne180100ES1_S1_, symObjAddr: 0xE4E8, symBinAddr: 0x10000F3A4, symSize: 0x48 }
  - { offset: 0x2D29F, size: 0x8, addend: 0x0, symName: __ZNSt3__16vectorIhNS_9allocatorIhEEE21_ConstructTransactionD2B8ne180100Ev, symObjAddr: 0xE530, symBinAddr: 0x10000F3EC, symSize: 0x20 }
  - { offset: 0x2D2C9, size: 0x8, addend: 0x0, symName: __ZNSt3__128__exception_guard_exceptionsINS_6vectorIhNS_9allocatorIhEEE16__destroy_vectorEED2B8ne180100Ev, symObjAddr: 0xE550, symBinAddr: 0x10000F40C, symSize: 0x50 }
  - { offset: 0x2D2F3, size: 0x8, addend: 0x0, symName: __ZNSt3__16vectorIhNS_9allocatorIhEEE16__destroy_vectorclB8ne180100Ev, symObjAddr: 0xE5A0, symBinAddr: 0x10000F45C, symSize: 0x90 }
  - { offset: 0x2D319, size: 0x8, addend: 0x0, symName: __ZNSt3__16vectorIhNS_9allocatorIhEEE7__clearB8ne180100Ev, symObjAddr: 0xE630, symBinAddr: 0x10000F4EC, symSize: 0x28 }
  - { offset: 0x2D33F, size: 0x8, addend: 0x0, symName: __ZNKSt3__16vectorIhNS_9allocatorIhEEE17__annotate_deleteB8ne180100Ev, symObjAddr: 0xE658, symBinAddr: 0x10000F514, symSize: 0x10 }
  - { offset: 0x2D365, size: 0x8, addend: 0x0, symName: __ZNSt3__116allocator_traitsINS_9allocatorIhEEE10deallocateB8ne180100ERS2_Phm, symObjAddr: 0xE668, symBinAddr: 0x10000F524, symSize: 0x34 }
  - { offset: 0x2D3A7, size: 0x8, addend: 0x0, symName: __ZNKSt3__16vectorIhNS_9allocatorIhEEE8capacityB8ne180100Ev, symObjAddr: 0xE69C, symBinAddr: 0x10000F558, symSize: 0x38 }
  - { offset: 0x2D3CD, size: 0x8, addend: 0x0, symName: __ZNSt3__16vectorIhNS_9allocatorIhEEE22__base_destruct_at_endB8ne180100EPh, symObjAddr: 0xE6D4, symBinAddr: 0x10000F590, symSize: 0x8C }
  - { offset: 0x2D411, size: 0x8, addend: 0x0, symName: __ZNSt3__116allocator_traitsINS_9allocatorIhEEE7destroyB8ne180100IhvvEEvRS2_PT_, symObjAddr: 0xE760, symBinAddr: 0x10000F61C, symSize: 0x28 }
  - { offset: 0x2D44C, size: 0x8, addend: 0x0, symName: __ZNSt3__19allocatorIhE10deallocateB8ne180100EPhm, symObjAddr: 0xE798, symBinAddr: 0x10000F654, symSize: 0x40 }
  - { offset: 0x2D48E, size: 0x8, addend: 0x0, symName: __ZNKSt3__16vectorIhNS_9allocatorIhEEE9__end_capB8ne180100Ev, symObjAddr: 0xE7D8, symBinAddr: 0x10000F694, symSize: 0x28 }
  - { offset: 0x2D4B4, size: 0x8, addend: 0x0, symName: __ZNKSt3__117__compressed_pairIPhNS_9allocatorIhEEE5firstB8ne180100Ev, symObjAddr: 0xE800, symBinAddr: 0x10000F6BC, symSize: 0x24 }
  - { offset: 0x2D4DA, size: 0x8, addend: 0x0, symName: __ZNKSt3__122__compressed_pair_elemIPhLi0ELb0EE5__getB8ne180100Ev, symObjAddr: 0xE824, symBinAddr: 0x10000F6E0, symSize: 0x14 }
  - { offset: 0x2D500, size: 0x8, addend: 0x0, symName: __ZNKSt3__117__compressed_pairIPN8nlohmann16json_abi_v3_11_327byte_container_with_subtypeINS_6vectorIhNS_9allocatorIhEEEEEEZNS2_10basic_jsonINS_3mapES4_NS_12basic_stringIcNS_11char_traitsIcEENS5_IcEEEEbxydS5_NS2_14adl_serializerES7_vE6createIS8_JRKS8_EEEPT_DpOT0_EUlS9_E_E5firstB8ne180100Ev, symObjAddr: 0xE838, symBinAddr: 0x10000F6F4, symSize: 0x24 }
  - { offset: 0x2D526, size: 0x8, addend: 0x0, symName: __ZNKSt3__122__compressed_pair_elemIPN8nlohmann16json_abi_v3_11_327byte_container_with_subtypeINS_6vectorIhNS_9allocatorIhEEEEEELi0ELb0EE5__getB8ne180100Ev, symObjAddr: 0xE85C, symBinAddr: 0x10000F718, symSize: 0x14 }
  - { offset: 0x2D54C, size: 0x8, addend: 0x0, symName: __ZNKSt3__110unique_ptrIN8nlohmann16json_abi_v3_11_327byte_container_with_subtypeINS_6vectorIhNS_9allocatorIhEEEEEEZNS2_10basic_jsonINS_3mapES4_NS_12basic_stringIcNS_11char_traitsIcEENS5_IcEEEEbxydS5_NS2_14adl_serializerES7_vE6createIS8_JRKS8_EEEPT_DpOT0_EUlPS8_E_EcvbB8ne180100Ev, symObjAddr: 0xE870, symBinAddr: 0x10000F72C, symSize: 0x34 }
  - { offset: 0x2D572, size: 0x8, addend: 0x0, symName: __ZNSt3__117__compressed_pairIPN8nlohmann16json_abi_v3_11_327byte_container_with_subtypeINS_6vectorIhNS_9allocatorIhEEEEEEZNS2_10basic_jsonINS_3mapES4_NS_12basic_stringIcNS_11char_traitsIcEENS5_IcEEEEbxydS5_NS2_14adl_serializerES7_vE6createIS8_JRKS8_EEEPT_DpOT0_EUlS9_E_E5firstB8ne180100Ev, symObjAddr: 0xE8A4, symBinAddr: 0x10000F760, symSize: 0x24 }
  - { offset: 0x2D598, size: 0x8, addend: 0x0, symName: __ZNSt3__122__compressed_pair_elemIPN8nlohmann16json_abi_v3_11_327byte_container_with_subtypeINS_6vectorIhNS_9allocatorIhEEEEEELi0ELb0EE5__getB8ne180100Ev, symObjAddr: 0xE8C8, symBinAddr: 0x10000F784, symSize: 0x14 }
  - { offset: 0x2D5BE, size: 0x8, addend: 0x0, symName: __ZNSt3__110unique_ptrIN8nlohmann16json_abi_v3_11_327byte_container_with_subtypeINS_6vectorIhNS_9allocatorIhEEEEEEZNS2_10basic_jsonINS_3mapES4_NS_12basic_stringIcNS_11char_traitsIcEENS5_IcEEEEbxydS5_NS2_14adl_serializerES7_vE6createIS8_JRKS8_EEEPT_DpOT0_EUlPS8_E_ED2B8ne180100Ev, symObjAddr: 0xE8DC, symBinAddr: 0x10000F798, symSize: 0x30 }
  - { offset: 0x2D5E8, size: 0x8, addend: 0x0, symName: __ZNSt3__110unique_ptrIN8nlohmann16json_abi_v3_11_327byte_container_with_subtypeINS_6vectorIhNS_9allocatorIhEEEEEEZNS2_10basic_jsonINS_3mapES4_NS_12basic_stringIcNS_11char_traitsIcEENS5_IcEEEEbxydS5_NS2_14adl_serializerES7_vE6createIS8_JRKS8_EEEPT_DpOT0_EUlPS8_E_E5resetB8ne180100ESQ_, symObjAddr: 0xE90C, symBinAddr: 0x10000F7C8, symSize: 0x80 }
  - { offset: 0x2D62C, size: 0x8, addend: 0x0, symName: __ZNSt3__117__compressed_pairIPN8nlohmann16json_abi_v3_11_327byte_container_with_subtypeINS_6vectorIhNS_9allocatorIhEEEEEEZNS2_10basic_jsonINS_3mapES4_NS_12basic_stringIcNS_11char_traitsIcEENS5_IcEEEEbxydS5_NS2_14adl_serializerES7_vE6createIS8_JRKS8_EEEPT_DpOT0_EUlS9_E_E6secondB8ne180100Ev, symObjAddr: 0xE98C, symBinAddr: 0x10000F848, symSize: 0x28 }
  - { offset: 0x2D658, size: 0x8, addend: 0x0, symName: __ZZN8nlohmann16json_abi_v3_11_310basic_jsonINSt3__13mapENS2_6vectorENS2_12basic_stringIcNS2_11char_traitsIcEENS2_9allocatorIcEEEEbxydS8_NS0_14adl_serializerENS4_IhNS8_IhEEEEvE6createINS0_27byte_container_with_subtypeISD_EEJRKSH_EEEPT_DpOT0_ENKUlPSH_E_clESP_, symObjAddr: 0xE9B4, symBinAddr: 0x10000F870, symSize: 0x34 }
  - { offset: 0x2D691, size: 0x8, addend: 0x0, symName: __ZNSt3__122__compressed_pair_elemIZN8nlohmann16json_abi_v3_11_310basic_jsonINS_3mapENS_6vectorENS_12basic_stringIcNS_11char_traitsIcEENS_9allocatorIcEEEEbxydS9_NS2_14adl_serializerENS5_IhNS9_IhEEEEvE6createINS2_27byte_container_with_subtypeISE_EEJRKSI_EEEPT_DpOT0_EUlPSI_E_Li1ELb0EE5__getB8ne180100Ev, symObjAddr: 0xE9E8, symBinAddr: 0x10000F8A4, symSize: 0x14 }
  - { offset: 0x2D6B7, size: 0x8, addend: 0x0, symName: __ZNSt3__116allocator_traitsINS_9allocatorIN8nlohmann16json_abi_v3_11_327byte_container_with_subtypeINS_6vectorIhNS1_IhEEEEEEEEE10deallocateB8ne180100ERS9_PS8_m, symObjAddr: 0xE9FC, symBinAddr: 0x10000F8B8, symSize: 0x34 }
  - { offset: 0x2D6F9, size: 0x8, addend: 0x0, symName: __ZNSt3__19allocatorIN8nlohmann16json_abi_v3_11_327byte_container_with_subtypeINS_6vectorIhNS0_IhEEEEEEE10deallocateB8ne180100EPS7_m, symObjAddr: 0xEA30, symBinAddr: 0x10000F8EC, symSize: 0x44 }
  - { offset: 0x2D73B, size: 0x8, addend: 0x0, symName: __ZN8nlohmann16json_abi_v3_11_310basic_jsonINSt3__13mapENS2_6vectorENS2_12basic_stringIcNS2_11char_traitsIcEENS2_9allocatorIcEEEEbxydS8_NS0_14adl_serializerENS4_IhNS8_IhEEEEvE4dataD2Ev, symObjAddr: 0xEA74, symBinAddr: 0x10000F930, symSize: 0x3C }
  - { offset: 0x2D765, size: 0x8, addend: 0x0, symName: __ZN8nlohmann16json_abi_v3_11_310basic_jsonINSt3__13mapENS2_6vectorENS2_12basic_stringIcNS2_11char_traitsIcEENS2_9allocatorIcEEEEbxydS8_NS0_14adl_serializerENS4_IhNS8_IhEEEEvE10json_value7destroyENS0_6detail7value_tE, symObjAddr: 0xEAB0, symBinAddr: 0x10000F96C, symSize: 0x518 }
  - { offset: 0x2D8F1, size: 0x8, addend: 0x0, symName: __ZNSt3__16vectorIN8nlohmann16json_abi_v3_11_310basic_jsonINS_3mapES0_NS_12basic_stringIcNS_11char_traitsIcEENS_9allocatorIcEEEEbxydS8_NS2_14adl_serializerENS0_IhNS8_IhEEEEvEENS8_ISE_EEEC1B8ne180100Ev, symObjAddr: 0xEFF0, symBinAddr: 0x10000FEAC, symSize: 0x2C }
  - { offset: 0x2D91B, size: 0x8, addend: 0x0, symName: __ZNSt3__16vectorIN8nlohmann16json_abi_v3_11_310basic_jsonINS_3mapES0_NS_12basic_stringIcNS_11char_traitsIcEENS_9allocatorIcEEEEbxydS8_NS2_14adl_serializerENS0_IhNS8_IhEEEEvEENS8_ISE_EEE7reserveEm, symObjAddr: 0xF01C, symBinAddr: 0x10000FED8, symSize: 0xE8 }
  - { offset: 0x2D977, size: 0x8, addend: 0x0, symName: __ZNKSt3__13mapINS_12basic_stringIcNS_11char_traitsIcEENS_9allocatorIcEEEEN8nlohmann16json_abi_v3_11_310basic_jsonIS0_NS_6vectorES6_bxydS4_NS8_14adl_serializerENSA_IhNS4_IhEEEEvEENS_4lessIvEENS4_INS_4pairIKS6_SE_EEEEE4sizeB8ne180100Ev, symObjAddr: 0xF190, symBinAddr: 0x10001004C, symSize: 0x28 }
  - { offset: 0x2D99D, size: 0x8, addend: 0x0, symName: __ZNKSt3__114__map_iteratorINS_15__tree_iteratorINS_12__value_typeINS_12basic_stringIcNS_11char_traitsIcEENS_9allocatorIcEEEEN8nlohmann16json_abi_v3_11_310basic_jsonINS_3mapENS_6vectorES8_bxydS6_NSA_14adl_serializerENSD_IhNS6_IhEEEEvEEEEPNS_11__tree_nodeISI_PvEElEEEdeB8ne180100Ev, symObjAddr: 0xF1B8, symBinAddr: 0x100010074, symSize: 0x28 }
  - { offset: 0x2D9C3, size: 0x8, addend: 0x0, symName: __ZNSt3__16vectorIN8nlohmann16json_abi_v3_11_310basic_jsonINS_3mapES0_NS_12basic_stringIcNS_11char_traitsIcEENS_9allocatorIcEEEEbxydS8_NS2_14adl_serializerENS0_IhNS8_IhEEEEvEENS8_ISE_EEE9push_backB8ne180100EOSE_, symObjAddr: 0xF1E0, symBinAddr: 0x10001009C, symSize: 0x90 }
  - { offset: 0x2DA09, size: 0x8, addend: 0x0, symName: __ZNSt3__114__map_iteratorINS_15__tree_iteratorINS_12__value_typeINS_12basic_stringIcNS_11char_traitsIcEENS_9allocatorIcEEEEN8nlohmann16json_abi_v3_11_310basic_jsonINS_3mapENS_6vectorES8_bxydS6_NSA_14adl_serializerENSD_IhNS6_IhEEEEvEEEEPNS_11__tree_nodeISI_PvEElEEEppB8ne180100Ev, symObjAddr: 0xF270, symBinAddr: 0x10001012C, symSize: 0x2C }
  - { offset: 0x2DA2F, size: 0x8, addend: 0x0, symName: __ZNKSt3__16vectorIN8nlohmann16json_abi_v3_11_310basic_jsonINS_3mapES0_NS_12basic_stringIcNS_11char_traitsIcEENS_9allocatorIcEEEEbxydS8_NS2_14adl_serializerENS0_IhNS8_IhEEEEvEENS8_ISE_EEE5emptyB8ne180100Ev, symObjAddr: 0xF29C, symBinAddr: 0x100010158, symSize: 0x28 }
  - { offset: 0x2DA55, size: 0x8, addend: 0x0, symName: __ZNSt3__16vectorIN8nlohmann16json_abi_v3_11_310basic_jsonINS_3mapES0_NS_12basic_stringIcNS_11char_traitsIcEENS_9allocatorIcEEEEbxydS8_NS2_14adl_serializerENS0_IhNS8_IhEEEEvEENS8_ISE_EEE4backB8ne180100Ev, symObjAddr: 0xF2C4, symBinAddr: 0x100010180, symSize: 0x1C }
  - { offset: 0x2DA7B, size: 0x8, addend: 0x0, symName: __ZN8nlohmann16json_abi_v3_11_310basic_jsonINSt3__13mapENS2_6vectorENS2_12basic_stringIcNS2_11char_traitsIcEENS2_9allocatorIcEEEEbxydS8_NS0_14adl_serializerENS4_IhNS8_IhEEEEvEC1EOSE_, symObjAddr: 0xF2E0, symBinAddr: 0x10001019C, symSize: 0x34 }
  - { offset: 0x2DAB4, size: 0x8, addend: 0x0, symName: __ZNSt3__16vectorIN8nlohmann16json_abi_v3_11_310basic_jsonINS_3mapES0_NS_12basic_stringIcNS_11char_traitsIcEENS_9allocatorIcEEEEbxydS8_NS2_14adl_serializerENS0_IhNS8_IhEEEEvEENS8_ISE_EEE8pop_backEv, symObjAddr: 0xF314, symBinAddr: 0x1000101D0, symSize: 0x2C }
  - { offset: 0x2DADC, size: 0x8, addend: 0x0, symName: __ZNK8nlohmann16json_abi_v3_11_310basic_jsonINSt3__13mapENS2_6vectorENS2_12basic_stringIcNS2_11char_traitsIcEENS2_9allocatorIcEEEEbxydS8_NS0_14adl_serializerENS4_IhNS8_IhEEEEvE8is_arrayEv, symObjAddr: 0xF340, symBinAddr: 0x1000101FC, symSize: 0x24 }
  - { offset: 0x2DB02, size: 0x8, addend: 0x0, symName: __ZNSt3__16vectorIN8nlohmann16json_abi_v3_11_310basic_jsonINS_3mapES0_NS_12basic_stringIcNS_11char_traitsIcEENS_9allocatorIcEEEEbxydS8_NS2_14adl_serializerENS0_IhNS8_IhEEEEvEENS8_ISE_EEE5clearB8ne180100Ev, symObjAddr: 0xF364, symBinAddr: 0x100010220, symSize: 0x44 }
  - { offset: 0x2DB37, size: 0x8, addend: 0x0, symName: __ZNSt3__13mapINS_12basic_stringIcNS_11char_traitsIcEENS_9allocatorIcEEEEN8nlohmann16json_abi_v3_11_310basic_jsonIS0_NS_6vectorES6_bxydS4_NS8_14adl_serializerENSA_IhNS4_IhEEEEvEENS_4lessIvEENS4_INS_4pairIKS6_SE_EEEEE5clearB8ne180100Ev, symObjAddr: 0xF3A8, symBinAddr: 0x100010264, symSize: 0x24 }
  - { offset: 0x2DB5D, size: 0x8, addend: 0x0, symName: __ZNSt3__16vectorIN8nlohmann16json_abi_v3_11_310basic_jsonINS_3mapES0_NS_12basic_stringIcNS_11char_traitsIcEENS_9allocatorIcEEEEbxydS8_NS2_14adl_serializerENS0_IhNS8_IhEEEEvEENS8_ISE_EEED1B8ne180100Ev, symObjAddr: 0xF3CC, symBinAddr: 0x100010288, symSize: 0x2C }
  - { offset: 0x2DB87, size: 0x8, addend: 0x0, symName: __ZNSt3__116allocator_traitsINS_9allocatorINS_3mapINS_12basic_stringIcNS_11char_traitsIcEENS1_IcEEEEN8nlohmann16json_abi_v3_11_310basic_jsonIS2_NS_6vectorES7_bxydS1_NS9_14adl_serializerENSB_IhNS1_IhEEEEvEENS_4lessIvEENS1_INS_4pairIKS7_SF_EEEEEEEEE7destroyB8ne180100ISM_vvEEvRSN_PT_, symObjAddr: 0xF3F8, symBinAddr: 0x1000102B4, symSize: 0x28 }
  - { offset: 0x2DBC2, size: 0x8, addend: 0x0, symName: __ZNSt3__116allocator_traitsINS_9allocatorINS_6vectorIN8nlohmann16json_abi_v3_11_310basic_jsonINS_3mapES2_NS_12basic_stringIcNS_11char_traitsIcEENS1_IcEEEEbxydS1_NS4_14adl_serializerENS2_IhNS1_IhEEEEvEENS1_ISF_EEEEEEE7destroyB8ne180100ISH_vvEEvRSI_PT_, symObjAddr: 0xF420, symBinAddr: 0x1000102DC, symSize: 0x28 }
  - { offset: 0x2DBFD, size: 0x8, addend: 0x0, symName: __ZNSt3__116allocator_traitsINS_9allocatorINS_12basic_stringIcNS_11char_traitsIcEENS1_IcEEEEEEE7destroyB8ne180100IS6_vvEEvRS7_PT_, symObjAddr: 0xF448, symBinAddr: 0x100010304, symSize: 0x28 }
  - { offset: 0x2DC38, size: 0x8, addend: 0x0, symName: __ZNSt3__116allocator_traitsINS_9allocatorIN8nlohmann16json_abi_v3_11_327byte_container_with_subtypeINS_6vectorIhNS1_IhEEEEEEEEE7destroyB8ne180100IS8_vvEEvRS9_PT_, symObjAddr: 0xF470, symBinAddr: 0x10001032C, symSize: 0x28 }
  - { offset: 0x2DC73, size: 0x8, addend: 0x0, symName: __ZNSt3__16vectorIN8nlohmann16json_abi_v3_11_310basic_jsonINS_3mapES0_NS_12basic_stringIcNS_11char_traitsIcEENS_9allocatorIcEEEEbxydS8_NS2_14adl_serializerENS0_IhNS8_IhEEEEvEENS8_ISE_EEEC2B8ne180100Ev, symObjAddr: 0xF498, symBinAddr: 0x100010354, symSize: 0x4C }
  - { offset: 0x2DC9D, size: 0x8, addend: 0x0, symName: __ZNSt3__117__compressed_pairIPN8nlohmann16json_abi_v3_11_310basic_jsonINS_3mapENS_6vectorENS_12basic_stringIcNS_11char_traitsIcEENS_9allocatorIcEEEEbxydS9_NS2_14adl_serializerENS5_IhNS9_IhEEEEvEENS9_ISF_EEEC1B8ne180100IDnNS_18__default_init_tagEEEOT_OT0_, symObjAddr: 0xF4E4, symBinAddr: 0x1000103A0, symSize: 0x3C }
  - { offset: 0x2DCF5, size: 0x8, addend: 0x0, symName: __ZNSt3__117__compressed_pairIPN8nlohmann16json_abi_v3_11_310basic_jsonINS_3mapENS_6vectorENS_12basic_stringIcNS_11char_traitsIcEENS_9allocatorIcEEEEbxydS9_NS2_14adl_serializerENS5_IhNS9_IhEEEEvEENS9_ISF_EEEC2B8ne180100IDnNS_18__default_init_tagEEEOT_OT0_, symObjAddr: 0xF520, symBinAddr: 0x1000103DC, symSize: 0x40 }
  - { offset: 0x2DD4D, size: 0x8, addend: 0x0, symName: __ZNSt3__122__compressed_pair_elemINS_9allocatorIN8nlohmann16json_abi_v3_11_310basic_jsonINS_3mapENS_6vectorENS_12basic_stringIcNS_11char_traitsIcEENS1_IcEEEEbxydS1_NS3_14adl_serializerENS6_IhNS1_IhEEEEvEEEELi1ELb1EEC2B8ne180100ENS_18__default_init_tagE, symObjAddr: 0xF560, symBinAddr: 0x10001041C, symSize: 0x2C }
  - { offset: 0x2DD81, size: 0x8, addend: 0x0, symName: __ZNSt3__19allocatorIN8nlohmann16json_abi_v3_11_310basic_jsonINS_3mapENS_6vectorENS_12basic_stringIcNS_11char_traitsIcEENS0_IcEEEEbxydS0_NS2_14adl_serializerENS5_IhNS0_IhEEEEvEEEC2B8ne180100Ev, symObjAddr: 0xF58C, symBinAddr: 0x100010448, symSize: 0x2C }
  - { offset: 0x2DDAB, size: 0x8, addend: 0x0, symName: __ZNSt3__116__non_trivial_ifILb1ENS_9allocatorIN8nlohmann16json_abi_v3_11_310basic_jsonINS_3mapENS_6vectorENS_12basic_stringIcNS_11char_traitsIcEENS1_IcEEEEbxydS1_NS3_14adl_serializerENS6_IhNS1_IhEEEEvEEEEEC2B8ne180100Ev, symObjAddr: 0xF5B8, symBinAddr: 0x100010474, symSize: 0x14 }
  - { offset: 0x2DDD5, size: 0x8, addend: 0x0, symName: __ZNSt3__114__split_bufferIN8nlohmann16json_abi_v3_11_310basic_jsonINS_3mapENS_6vectorENS_12basic_stringIcNS_11char_traitsIcEENS_9allocatorIcEEEEbxydS9_NS2_14adl_serializerENS5_IhNS9_IhEEEEvEERNS9_ISF_EEEC1EmmSH_, symObjAddr: 0xF5CC, symBinAddr: 0x100010488, symSize: 0x44 }
  - { offset: 0x2DE2B, size: 0x8, addend: 0x0, symName: __ZNSt3__114__split_bufferIN8nlohmann16json_abi_v3_11_310basic_jsonINS_3mapENS_6vectorENS_12basic_stringIcNS_11char_traitsIcEENS_9allocatorIcEEEEbxydS9_NS2_14adl_serializerENS5_IhNS9_IhEEEEvEERNS9_ISF_EEED1Ev, symObjAddr: 0xF720, symBinAddr: 0x1000105DC, symSize: 0x2C }
  - { offset: 0x2DE57, size: 0x8, addend: 0x0, symName: __ZNSt3__114__split_bufferIN8nlohmann16json_abi_v3_11_310basic_jsonINS_3mapENS_6vectorENS_12basic_stringIcNS_11char_traitsIcEENS_9allocatorIcEEEEbxydS9_NS2_14adl_serializerENS5_IhNS9_IhEEEEvEERNS9_ISF_EEEC2EmmSH_, symObjAddr: 0xF74C, symBinAddr: 0x100010608, symSize: 0xD4 }
  - { offset: 0x2DECB, size: 0x8, addend: 0x0, symName: __ZNSt3__117__compressed_pairIPN8nlohmann16json_abi_v3_11_310basic_jsonINS_3mapENS_6vectorENS_12basic_stringIcNS_11char_traitsIcEENS_9allocatorIcEEEEbxydS9_NS2_14adl_serializerENS5_IhNS9_IhEEEEvEERNS9_ISF_EEEC1B8ne180100IDnSI_EEOT_OT0_, symObjAddr: 0xF820, symBinAddr: 0x1000106DC, symSize: 0x3C }
  - { offset: 0x2DF23, size: 0x8, addend: 0x0, symName: __ZNSt3__114__split_bufferIN8nlohmann16json_abi_v3_11_310basic_jsonINS_3mapENS_6vectorENS_12basic_stringIcNS_11char_traitsIcEENS_9allocatorIcEEEEbxydS9_NS2_14adl_serializerENS5_IhNS9_IhEEEEvEERNS9_ISF_EEE7__allocB8ne180100Ev, symObjAddr: 0xF85C, symBinAddr: 0x100010718, symSize: 0x28 }
  - { offset: 0x2DF49, size: 0x8, addend: 0x0, symName: __ZNSt3__114__split_bufferIN8nlohmann16json_abi_v3_11_310basic_jsonINS_3mapENS_6vectorENS_12basic_stringIcNS_11char_traitsIcEENS_9allocatorIcEEEEbxydS9_NS2_14adl_serializerENS5_IhNS9_IhEEEEvEERNS9_ISF_EEE9__end_capB8ne180100Ev, symObjAddr: 0xF884, symBinAddr: 0x100010740, symSize: 0x28 }
  - { offset: 0x2DF6F, size: 0x8, addend: 0x0, symName: __ZNSt3__117__compressed_pairIPN8nlohmann16json_abi_v3_11_310basic_jsonINS_3mapENS_6vectorENS_12basic_stringIcNS_11char_traitsIcEENS_9allocatorIcEEEEbxydS9_NS2_14adl_serializerENS5_IhNS9_IhEEEEvEERNS9_ISF_EEEC2B8ne180100IDnSI_EEOT_OT0_, symObjAddr: 0xF8AC, symBinAddr: 0x100010768, symSize: 0x48 }
  - { offset: 0x2DFC7, size: 0x8, addend: 0x0, symName: __ZNSt3__122__compressed_pair_elemIRNS_9allocatorIN8nlohmann16json_abi_v3_11_310basic_jsonINS_3mapENS_6vectorENS_12basic_stringIcNS_11char_traitsIcEENS1_IcEEEEbxydS1_NS3_14adl_serializerENS6_IhNS1_IhEEEEvEEEELi1ELb0EEC2B8ne180100ISH_vEEOT_, symObjAddr: 0xF8F4, symBinAddr: 0x1000107B0, symSize: 0x20 }
  - { offset: 0x2E009, size: 0x8, addend: 0x0, symName: __ZNSt3__117__compressed_pairIPN8nlohmann16json_abi_v3_11_310basic_jsonINS_3mapENS_6vectorENS_12basic_stringIcNS_11char_traitsIcEENS_9allocatorIcEEEEbxydS9_NS2_14adl_serializerENS5_IhNS9_IhEEEEvEERNS9_ISF_EEE6secondB8ne180100Ev, symObjAddr: 0xF914, symBinAddr: 0x1000107D0, symSize: 0x28 }
  - { offset: 0x2E02F, size: 0x8, addend: 0x0, symName: __ZNSt3__122__compressed_pair_elemIRNS_9allocatorIN8nlohmann16json_abi_v3_11_310basic_jsonINS_3mapENS_6vectorENS_12basic_stringIcNS_11char_traitsIcEENS1_IcEEEEbxydS1_NS3_14adl_serializerENS6_IhNS1_IhEEEEvEEEELi1ELb0EE5__getB8ne180100Ev, symObjAddr: 0xF93C, symBinAddr: 0x1000107F8, symSize: 0x18 }
  - { offset: 0x2E055, size: 0x8, addend: 0x0, symName: __ZNSt3__117__compressed_pairIPN8nlohmann16json_abi_v3_11_310basic_jsonINS_3mapENS_6vectorENS_12basic_stringIcNS_11char_traitsIcEENS_9allocatorIcEEEEbxydS9_NS2_14adl_serializerENS5_IhNS9_IhEEEEvEERNS9_ISF_EEE5firstB8ne180100Ev, symObjAddr: 0xF954, symBinAddr: 0x100010810, symSize: 0x24 }
  - { offset: 0x2E07B, size: 0x8, addend: 0x0, symName: __ZNSt3__129_AllocatorDestroyRangeReverseINS_9allocatorIN8nlohmann16json_abi_v3_11_310basic_jsonINS_3mapENS_6vectorENS_12basic_stringIcNS_11char_traitsIcEENS1_IcEEEEbxydS1_NS3_14adl_serializerENS6_IhNS1_IhEEEEvEEEENS_16reverse_iteratorIPSF_EEEC1B8ne180100ERSG_RSJ_SM_, symObjAddr: 0xFB24, symBinAddr: 0x1000109E0, symSize: 0x44 }
  - { offset: 0x2E0D2, size: 0x8, addend: 0x0, symName: __ZNSt3__116allocator_traitsINS_9allocatorIN8nlohmann16json_abi_v3_11_310basic_jsonINS_3mapENS_6vectorENS_12basic_stringIcNS_11char_traitsIcEENS1_IcEEEEbxydS1_NS3_14adl_serializerENS6_IhNS1_IhEEEEvEEEEE9constructB8ne180100ISF_JSF_EvvEEvRSG_PT_DpOT0_, symObjAddr: 0xFB68, symBinAddr: 0x100010A24, symSize: 0x30 }
  - { offset: 0x2E127, size: 0x8, addend: 0x0, symName: __ZNKSt3__116reverse_iteratorIPN8nlohmann16json_abi_v3_11_310basic_jsonINS_3mapENS_6vectorENS_12basic_stringIcNS_11char_traitsIcEENS_9allocatorIcEEEEbxydS9_NS2_14adl_serializerENS5_IhNS9_IhEEEEvEEEdeB8ne180100Ev, symObjAddr: 0xFB98, symBinAddr: 0x100010A54, symSize: 0x28 }
  - { offset: 0x2E15B, size: 0x8, addend: 0x0, symName: __ZNSt3__128__exception_guard_exceptionsINS_29_AllocatorDestroyRangeReverseINS_9allocatorIN8nlohmann16json_abi_v3_11_310basic_jsonINS_3mapENS_6vectorENS_12basic_stringIcNS_11char_traitsIcEENS2_IcEEEEbxydS2_NS4_14adl_serializerENS7_IhNS2_IhEEEEvEEEENS_16reverse_iteratorIPSG_EEEEE10__completeB8ne180100Ev, symObjAddr: 0xFBC0, symBinAddr: 0x100010A7C, symSize: 0x1C }
  - { offset: 0x2E181, size: 0x8, addend: 0x0, symName: __ZNSt3__128__exception_guard_exceptionsINS_29_AllocatorDestroyRangeReverseINS_9allocatorIN8nlohmann16json_abi_v3_11_310basic_jsonINS_3mapENS_6vectorENS_12basic_stringIcNS_11char_traitsIcEENS2_IcEEEEbxydS2_NS4_14adl_serializerENS7_IhNS2_IhEEEEvEEEENS_16reverse_iteratorIPSG_EEEEED1B8ne180100Ev, symObjAddr: 0xFBDC, symBinAddr: 0x100010A98, symSize: 0x2C }
  - { offset: 0x2E1AB, size: 0x8, addend: 0x0, symName: __ZNSt3__128__exception_guard_exceptionsINS_29_AllocatorDestroyRangeReverseINS_9allocatorIN8nlohmann16json_abi_v3_11_310basic_jsonINS_3mapENS_6vectorENS_12basic_stringIcNS_11char_traitsIcEENS2_IcEEEEbxydS2_NS4_14adl_serializerENS7_IhNS2_IhEEEEvEEEENS_16reverse_iteratorIPSG_EEEEEC1B8ne180100ESL_, symObjAddr: 0xFC08, symBinAddr: 0x100010AC4, symSize: 0x34 }
  - { offset: 0x2E1E4, size: 0x8, addend: 0x0, symName: __ZNSt3__128__exception_guard_exceptionsINS_29_AllocatorDestroyRangeReverseINS_9allocatorIN8nlohmann16json_abi_v3_11_310basic_jsonINS_3mapENS_6vectorENS_12basic_stringIcNS_11char_traitsIcEENS2_IcEEEEbxydS2_NS4_14adl_serializerENS7_IhNS2_IhEEEEvEEEENS_16reverse_iteratorIPSG_EEEEEC2B8ne180100ESL_, symObjAddr: 0xFC3C, symBinAddr: 0x100010AF8, symSize: 0x30 }
  - { offset: 0x2E21D, size: 0x8, addend: 0x0, symName: __ZNSt3__129_AllocatorDestroyRangeReverseINS_9allocatorIN8nlohmann16json_abi_v3_11_310basic_jsonINS_3mapENS_6vectorENS_12basic_stringIcNS_11char_traitsIcEENS1_IcEEEEbxydS1_NS3_14adl_serializerENS6_IhNS1_IhEEEEvEEEENS_16reverse_iteratorIPSF_EEEC2B8ne180100ERSG_RSJ_SM_, symObjAddr: 0xFC6C, symBinAddr: 0x100010B28, symSize: 0x38 }
  - { offset: 0x2E274, size: 0x8, addend: 0x0, symName: __ZNSt3__128__exception_guard_exceptionsINS_29_AllocatorDestroyRangeReverseINS_9allocatorIN8nlohmann16json_abi_v3_11_310basic_jsonINS_3mapENS_6vectorENS_12basic_stringIcNS_11char_traitsIcEENS2_IcEEEEbxydS2_NS4_14adl_serializerENS7_IhNS2_IhEEEEvEEEENS_16reverse_iteratorIPSG_EEEEED2B8ne180100Ev, symObjAddr: 0xFD04, symBinAddr: 0x100010BC0, symSize: 0x50 }
  - { offset: 0x2E29E, size: 0x8, addend: 0x0, symName: __ZNKSt3__129_AllocatorDestroyRangeReverseINS_9allocatorIN8nlohmann16json_abi_v3_11_310basic_jsonINS_3mapENS_6vectorENS_12basic_stringIcNS_11char_traitsIcEENS1_IcEEEEbxydS1_NS3_14adl_serializerENS6_IhNS1_IhEEEEvEEEENS_16reverse_iteratorIPSF_EEEclB8ne180100Ev, symObjAddr: 0xFD54, symBinAddr: 0x100010C10, symSize: 0xB4 }
  - { offset: 0x2E2C5, size: 0x8, addend: 0x0, symName: __ZNSt3__116reverse_iteratorINS0_IPN8nlohmann16json_abi_v3_11_310basic_jsonINS_3mapENS_6vectorENS_12basic_stringIcNS_11char_traitsIcEENS_9allocatorIcEEEEbxydS9_NS2_14adl_serializerENS5_IhNS9_IhEEEEvEEEEEC1B8ne180100ESH_, symObjAddr: 0xFE78, symBinAddr: 0x100010D34, symSize: 0x3C }
  - { offset: 0x2E2FD, size: 0x8, addend: 0x0, symName: __ZNSt3__116reverse_iteratorINS0_IPN8nlohmann16json_abi_v3_11_310basic_jsonINS_3mapENS_6vectorENS_12basic_stringIcNS_11char_traitsIcEENS_9allocatorIcEEEEbxydS9_NS2_14adl_serializerENS5_IhNS9_IhEEEEvEEEEEppB8ne180100Ev, symObjAddr: 0xFF38, symBinAddr: 0x100010DF4, symSize: 0x30 }
  - { offset: 0x2E323, size: 0x8, addend: 0x0, symName: __ZNKSt3__116reverse_iteratorINS0_IPN8nlohmann16json_abi_v3_11_310basic_jsonINS_3mapENS_6vectorENS_12basic_stringIcNS_11char_traitsIcEENS_9allocatorIcEEEEbxydS9_NS2_14adl_serializerENS5_IhNS9_IhEEEEvEEEEE4baseB8ne180100Ev, symObjAddr: 0xFF68, symBinAddr: 0x100010E24, symSize: 0x24 }
  - { offset: 0x2E34F, size: 0x8, addend: 0x0, symName: __ZNSt3__119__to_address_helperINS_16reverse_iteratorINS1_IPN8nlohmann16json_abi_v3_11_310basic_jsonINS_3mapENS_6vectorENS_12basic_stringIcNS_11char_traitsIcEENS_9allocatorIcEEEEbxydSA_NS3_14adl_serializerENS6_IhNSA_IhEEEEvEEEEEEvE6__callB8ne180100ERKSJ_, symObjAddr: 0xFF8C, symBinAddr: 0x100010E48, symSize: 0x38 }
  - { offset: 0x2E372, size: 0x8, addend: 0x0, symName: __ZNKSt3__116reverse_iteratorINS0_IPN8nlohmann16json_abi_v3_11_310basic_jsonINS_3mapENS_6vectorENS_12basic_stringIcNS_11char_traitsIcEENS_9allocatorIcEEEEbxydS9_NS2_14adl_serializerENS5_IhNS9_IhEEEEvEEEEEptB8ne180100Ev, symObjAddr: 0xFFC4, symBinAddr: 0x100010E80, symSize: 0x4C }
  - { offset: 0x2E398, size: 0x8, addend: 0x0, symName: __ZNSt3__116reverse_iteratorIPN8nlohmann16json_abi_v3_11_310basic_jsonINS_3mapENS_6vectorENS_12basic_stringIcNS_11char_traitsIcEENS_9allocatorIcEEEEbxydS9_NS2_14adl_serializerENS5_IhNS9_IhEEEEvEEEpLB8ne180100El, symObjAddr: 0x100C0, symBinAddr: 0x100010F7C, symSize: 0x30 }
  - { offset: 0x2E3CC, size: 0x8, addend: 0x0, symName: __ZNSt3__116reverse_iteratorIPN8nlohmann16json_abi_v3_11_310basic_jsonINS_3mapENS_6vectorENS_12basic_stringIcNS_11char_traitsIcEENS_9allocatorIcEEEEbxydS9_NS2_14adl_serializerENS5_IhNS9_IhEEEEvEEEmmB8ne180100Ev, symObjAddr: 0x100F0, symBinAddr: 0x100010FAC, symSize: 0x20 }
  - { offset: 0x2E3F2, size: 0x8, addend: 0x0, symName: __ZNSt3__116reverse_iteratorINS0_IPN8nlohmann16json_abi_v3_11_310basic_jsonINS_3mapENS_6vectorENS_12basic_stringIcNS_11char_traitsIcEENS_9allocatorIcEEEEbxydS9_NS2_14adl_serializerENS5_IhNS9_IhEEEEvEEEEEC2B8ne180100ESH_, symObjAddr: 0x10110, symBinAddr: 0x100010FCC, symSize: 0x2C }
  - { offset: 0x2E42A, size: 0x8, addend: 0x0, symName: __ZNSt3__114__split_bufferIN8nlohmann16json_abi_v3_11_310basic_jsonINS_3mapENS_6vectorENS_12basic_stringIcNS_11char_traitsIcEENS_9allocatorIcEEEEbxydS9_NS2_14adl_serializerENS5_IhNS9_IhEEEEvEERNS9_ISF_EEED2Ev, symObjAddr: 0x1013C, symBinAddr: 0x100010FF8, symSize: 0x8C }
  - { offset: 0x2E456, size: 0x8, addend: 0x0, symName: __ZNSt3__114__split_bufferIN8nlohmann16json_abi_v3_11_310basic_jsonINS_3mapENS_6vectorENS_12basic_stringIcNS_11char_traitsIcEENS_9allocatorIcEEEEbxydS9_NS2_14adl_serializerENS5_IhNS9_IhEEEEvEERNS9_ISF_EEE5clearB8ne180100Ev, symObjAddr: 0x101C8, symBinAddr: 0x100011084, symSize: 0x28 }
  - { offset: 0x2E47C, size: 0x8, addend: 0x0, symName: __ZNKSt3__114__split_bufferIN8nlohmann16json_abi_v3_11_310basic_jsonINS_3mapENS_6vectorENS_12basic_stringIcNS_11char_traitsIcEENS_9allocatorIcEEEEbxydS9_NS2_14adl_serializerENS5_IhNS9_IhEEEEvEERNS9_ISF_EEE8capacityB8ne180100Ev, symObjAddr: 0x101F0, symBinAddr: 0x1000110AC, symSize: 0x40 }
  - { offset: 0x2E4A2, size: 0x8, addend: 0x0, symName: __ZNSt3__114__split_bufferIN8nlohmann16json_abi_v3_11_310basic_jsonINS_3mapENS_6vectorENS_12basic_stringIcNS_11char_traitsIcEENS_9allocatorIcEEEEbxydS9_NS2_14adl_serializerENS5_IhNS9_IhEEEEvEERNS9_ISF_EEE17__destruct_at_endB8ne180100EPSF_, symObjAddr: 0x10230, symBinAddr: 0x1000110EC, symSize: 0x2C }
  - { offset: 0x2E4D6, size: 0x8, addend: 0x0, symName: __ZNSt3__114__split_bufferIN8nlohmann16json_abi_v3_11_310basic_jsonINS_3mapENS_6vectorENS_12basic_stringIcNS_11char_traitsIcEENS_9allocatorIcEEEEbxydS9_NS2_14adl_serializerENS5_IhNS9_IhEEEEvEERNS9_ISF_EEE17__destruct_at_endB8ne180100EPSF_NS_17integral_constantIbLb0EEE, symObjAddr: 0x1025C, symBinAddr: 0x100011118, symSize: 0x80 }
  - { offset: 0x2E516, size: 0x8, addend: 0x0, symName: __ZNKSt3__114__split_bufferIN8nlohmann16json_abi_v3_11_310basic_jsonINS_3mapENS_6vectorENS_12basic_stringIcNS_11char_traitsIcEENS_9allocatorIcEEEEbxydS9_NS2_14adl_serializerENS5_IhNS9_IhEEEEvEERNS9_ISF_EEE9__end_capB8ne180100Ev, symObjAddr: 0x102DC, symBinAddr: 0x100011198, symSize: 0x28 }
  - { offset: 0x2E53C, size: 0x8, addend: 0x0, symName: __ZNKSt3__117__compressed_pairIPN8nlohmann16json_abi_v3_11_310basic_jsonINS_3mapENS_6vectorENS_12basic_stringIcNS_11char_traitsIcEENS_9allocatorIcEEEEbxydS9_NS2_14adl_serializerENS5_IhNS9_IhEEEEvEERNS9_ISF_EEE5firstB8ne180100Ev, symObjAddr: 0x10304, symBinAddr: 0x1000111C0, symSize: 0x24 }
  - { offset: 0x2E58A, size: 0x8, addend: 0x0, symName: __ZNKSt3__111__move_loopINS_17_ClassicAlgPolicyEEclB8ne180100IPN8nlohmann16json_abi_v3_11_310basic_jsonINS_3mapENS_6vectorENS_12basic_stringIcNS_11char_traitsIcEENS_9allocatorIcEEEEbxydSC_NS5_14adl_serializerENS8_IhNSC_IhEEEEvEESJ_NS_20back_insert_iteratorINS8_ISI_NSC_ISI_EEEEEEEENS_4pairIT_T1_EESP_T0_SQ_, symObjAddr: 0x10514, symBinAddr: 0x1000113D0, symSize: 0x98 }
  - { offset: 0x2E5F5, size: 0x8, addend: 0x0, symName: __ZNSt3__119__unwrap_range_implINS_11__wrap_iterIPN8nlohmann16json_abi_v3_11_310basic_jsonINS_3mapENS_6vectorENS_12basic_stringIcNS_11char_traitsIcEENS_9allocatorIcEEEEbxydSA_NS3_14adl_serializerENS6_IhNSA_IhEEEEvEEEESI_E8__unwrapB8ne180100ESI_SI_, symObjAddr: 0x106A8, symBinAddr: 0x100011564, symSize: 0x68 }
  - { offset: 0x2E626, size: 0x8, addend: 0x0, symName: __ZNSt3__118__unwrap_iter_implINS_11__wrap_iterIPN8nlohmann16json_abi_v3_11_310basic_jsonINS_3mapENS_6vectorENS_12basic_stringIcNS_11char_traitsIcEENS_9allocatorIcEEEEbxydSA_NS3_14adl_serializerENS6_IhNSA_IhEEEEvEEEELb1EE8__unwrapB8ne180100ESI_, symObjAddr: 0x1073C, symBinAddr: 0x1000115F8, symSize: 0x28 }
  - { offset: 0x2E655, size: 0x8, addend: 0x0, symName: __ZNSt3__119__to_address_helperINS_11__wrap_iterIPN8nlohmann16json_abi_v3_11_310basic_jsonINS_3mapENS_6vectorENS_12basic_stringIcNS_11char_traitsIcEENS_9allocatorIcEEEEbxydSA_NS3_14adl_serializerENS6_IhNSA_IhEEEEvEEEEvE6__callB8ne180100ERKSI_, symObjAddr: 0x10788, symBinAddr: 0x100011644, symSize: 0x30 }
  - { offset: 0x2E678, size: 0x8, addend: 0x0, symName: __ZNSt3__114pointer_traitsINS_11__wrap_iterIPN8nlohmann16json_abi_v3_11_310basic_jsonINS_3mapENS_6vectorENS_12basic_stringIcNS_11char_traitsIcEENS_9allocatorIcEEEEbxydSA_NS3_14adl_serializerENS6_IhNSA_IhEEEEvEEEEE10to_addressB8ne180100ESI_, symObjAddr: 0x107B8, symBinAddr: 0x100011674, symSize: 0x2C }
  - { offset: 0x2E6A1, size: 0x8, addend: 0x0, symName: __ZNSt3__18_IterOpsINS_17_ClassicAlgPolicyEE11__iter_moveB8ne180100IRPN8nlohmann16json_abi_v3_11_310basic_jsonINS_3mapENS_6vectorENS_12basic_stringIcNS_11char_traitsIcEENS_9allocatorIcEEEEbxydSC_NS5_14adl_serializerENS8_IhNSC_IhEEEEvEELi0EEEDTclsr3stdE4movedeclsr3stdE7declvalIRT_EEEEOSL_, symObjAddr: 0x107E4, symBinAddr: 0x1000116A0, symSize: 0x28 }
  - { offset: 0x2E6D3, size: 0x8, addend: 0x0, symName: __ZNSt3__120back_insert_iteratorINS_6vectorIN8nlohmann16json_abi_v3_11_310basic_jsonINS_3mapES1_NS_12basic_stringIcNS_11char_traitsIcEENS_9allocatorIcEEEEbxydS9_NS3_14adl_serializerENS1_IhNS9_IhEEEEvEENS9_ISF_EEEEEdeB8ne180100Ev, symObjAddr: 0x1080C, symBinAddr: 0x1000116C8, symSize: 0x14 }
  - { offset: 0x2E6F9, size: 0x8, addend: 0x0, symName: __ZNSt3__120back_insert_iteratorINS_6vectorIN8nlohmann16json_abi_v3_11_310basic_jsonINS_3mapES1_NS_12basic_stringIcNS_11char_traitsIcEENS_9allocatorIcEEEEbxydS9_NS3_14adl_serializerENS1_IhNS9_IhEEEEvEENS9_ISF_EEEEEaSB8ne180100EOSF_, symObjAddr: 0x10820, symBinAddr: 0x1000116DC, symSize: 0x38 }
  - { offset: 0x2E72D, size: 0x8, addend: 0x0, symName: __ZNSt3__120back_insert_iteratorINS_6vectorIN8nlohmann16json_abi_v3_11_310basic_jsonINS_3mapES1_NS_12basic_stringIcNS_11char_traitsIcEENS_9allocatorIcEEEEbxydS9_NS3_14adl_serializerENS1_IhNS9_IhEEEEvEENS9_ISF_EEEEEppB8ne180100Ev, symObjAddr: 0x10858, symBinAddr: 0x100011714, symSize: 0x14 }
  - { offset: 0x2E753, size: 0x8, addend: 0x0, symName: __ZNSt3__18_IterOpsINS_17_ClassicAlgPolicyEE25__validate_iter_referenceB8ne180100IRPN8nlohmann16json_abi_v3_11_310basic_jsonINS_3mapENS_6vectorENS_12basic_stringIcNS_11char_traitsIcEENS_9allocatorIcEEEEbxydSC_NS5_14adl_serializerENS8_IhNSC_IhEEEEvEEEEvv, symObjAddr: 0x108A4, symBinAddr: 0x100011760, symSize: 0x4 }
  - { offset: 0x2E777, size: 0x8, addend: 0x0, symName: __ZNSt3__14pairIPN8nlohmann16json_abi_v3_11_310basic_jsonINS_3mapENS_6vectorENS_12basic_stringIcNS_11char_traitsIcEENS_9allocatorIcEEEEbxydS9_NS2_14adl_serializerENS5_IhNS9_IhEEEEvEENS_20back_insert_iteratorINS5_ISF_NS9_ISF_EEEEEEEC1B8ne180100ISG_SK_Li0EEEOT_OT0_, symObjAddr: 0x108A8, symBinAddr: 0x100011764, symSize: 0x3C }
  - { offset: 0x2E7D5, size: 0x8, addend: 0x0, symName: __ZNSt3__14pairIPN8nlohmann16json_abi_v3_11_310basic_jsonINS_3mapENS_6vectorENS_12basic_stringIcNS_11char_traitsIcEENS_9allocatorIcEEEEbxydS9_NS2_14adl_serializerENS5_IhNS9_IhEEEEvEENS_20back_insert_iteratorINS5_ISF_NS9_ISF_EEEEEEEC2B8ne180100ISG_SK_Li0EEEOT_OT0_, symObjAddr: 0x108E4, symBinAddr: 0x1000117A0, symSize: 0x34 }
  - { offset: 0x2E833, size: 0x8, addend: 0x0, symName: __ZNSt3__118__unwrap_iter_implINS_20back_insert_iteratorINS_6vectorIN8nlohmann16json_abi_v3_11_310basic_jsonINS_3mapES2_NS_12basic_stringIcNS_11char_traitsIcEENS_9allocatorIcEEEEbxydSA_NS4_14adl_serializerENS2_IhNSA_IhEEEEvEENSA_ISG_EEEEEELb0EE8__unwrapB8ne180100ESJ_, symObjAddr: 0x10918, symBinAddr: 0x1000117D4, symSize: 0x1C }
  - { offset: 0x2E879, size: 0x8, addend: 0x0, symName: __ZNSt3__14pairINS_11__wrap_iterIPN8nlohmann16json_abi_v3_11_310basic_jsonINS_3mapENS_6vectorENS_12basic_stringIcNS_11char_traitsIcEENS_9allocatorIcEEEEbxydSA_NS3_14adl_serializerENS6_IhNSA_IhEEEEvEEEENS_20back_insert_iteratorINS6_ISG_NSA_ISG_EEEEEEEC1B8ne180100ISI_SM_Li0EEEOT_OT0_, symObjAddr: 0x10934, symBinAddr: 0x1000117F0, symSize: 0x3C }
  - { offset: 0x2E8D7, size: 0x8, addend: 0x0, symName: __ZNSt3__14pairINS_11__wrap_iterIPN8nlohmann16json_abi_v3_11_310basic_jsonINS_3mapENS_6vectorENS_12basic_stringIcNS_11char_traitsIcEENS_9allocatorIcEEEEbxydSA_NS3_14adl_serializerENS6_IhNSA_IhEEEEvEEEENS_20back_insert_iteratorINS6_ISG_NSA_ISG_EEEEEEEC2B8ne180100ISI_SM_Li0EEEOT_OT0_, symObjAddr: 0x10970, symBinAddr: 0x10001182C, symSize: 0x34 }
  - { offset: 0x2E935, size: 0x8, addend: 0x0, symName: __ZNSt3__119__unwrap_range_implINS_11__wrap_iterIPN8nlohmann16json_abi_v3_11_310basic_jsonINS_3mapENS_6vectorENS_12basic_stringIcNS_11char_traitsIcEENS_9allocatorIcEEEEbxydSA_NS3_14adl_serializerENS6_IhNSA_IhEEEEvEEEESI_E8__rewrapB8ne180100ESI_SH_, symObjAddr: 0x109A4, symBinAddr: 0x100011860, symSize: 0x3C }
  - { offset: 0x2E966, size: 0x8, addend: 0x0, symName: __ZNSt3__118__unwrap_iter_implINS_11__wrap_iterIPN8nlohmann16json_abi_v3_11_310basic_jsonINS_3mapENS_6vectorENS_12basic_stringIcNS_11char_traitsIcEENS_9allocatorIcEEEEbxydSA_NS3_14adl_serializerENS6_IhNSA_IhEEEEvEEEELb1EE8__rewrapB8ne180100ESI_SH_, symObjAddr: 0x10A2C, symBinAddr: 0x1000118E8, symSize: 0x5C }
  - { offset: 0x2E997, size: 0x8, addend: 0x0, symName: __ZNKSt3__111__wrap_iterIPN8nlohmann16json_abi_v3_11_310basic_jsonINS_3mapENS_6vectorENS_12basic_stringIcNS_11char_traitsIcEENS_9allocatorIcEEEEbxydS9_NS2_14adl_serializerENS5_IhNS9_IhEEEEvEEEplB8ne180100El, symObjAddr: 0x10A88, symBinAddr: 0x100011944, symSize: 0x3C }
  - { offset: 0x2E9D9, size: 0x8, addend: 0x0, symName: __ZNSt3__111__wrap_iterIPN8nlohmann16json_abi_v3_11_310basic_jsonINS_3mapENS_6vectorENS_12basic_stringIcNS_11char_traitsIcEENS_9allocatorIcEEEEbxydS9_NS2_14adl_serializerENS5_IhNS9_IhEEEEvEEEpLB8ne180100El, symObjAddr: 0x10AC4, symBinAddr: 0x100011980, symSize: 0x28 }
  - { offset: 0x2EA0D, size: 0x8, addend: 0x0, symName: __ZNSt3__118__unwrap_iter_implINS_20back_insert_iteratorINS_6vectorIN8nlohmann16json_abi_v3_11_310basic_jsonINS_3mapES2_NS_12basic_stringIcNS_11char_traitsIcEENS_9allocatorIcEEEEbxydSA_NS4_14adl_serializerENS2_IhNSA_IhEEEEvEENSA_ISG_EEEEEELb0EE8__rewrapB8ne180100ESJ_SJ_, symObjAddr: 0x10AEC, symBinAddr: 0x1000119A8, symSize: 0x20 }
  - { offset: 0x2EA3A, size: 0x8, addend: 0x0, symName: __ZNSt3__120back_insert_iteratorINS_6vectorIN8nlohmann16json_abi_v3_11_310basic_jsonINS_3mapES1_NS_12basic_stringIcNS_11char_traitsIcEENS_9allocatorIcEEEEbxydS9_NS3_14adl_serializerENS1_IhNS9_IhEEEEvEENS9_ISF_EEEEEC1B8ne180100ERSH_, symObjAddr: 0x10B0C, symBinAddr: 0x1000119C8, symSize: 0x34 }
  - { offset: 0x2EA72, size: 0x8, addend: 0x0, symName: __ZNSt3__120back_insert_iteratorINS_6vectorIN8nlohmann16json_abi_v3_11_310basic_jsonINS_3mapES1_NS_12basic_stringIcNS_11char_traitsIcEENS_9allocatorIcEEEEbxydS9_NS3_14adl_serializerENS1_IhNS9_IhEEEEvEENS9_ISF_EEEEEC2B8ne180100ERSH_, symObjAddr: 0x10B40, symBinAddr: 0x1000119FC, symSize: 0x20 }
  - { offset: 0x2EAAA, size: 0x8, addend: 0x0, symName: __ZNKSt3__16__treeINS_12__value_typeINS_12basic_stringIcNS_11char_traitsIcEENS_9allocatorIcEEEEN8nlohmann16json_abi_v3_11_310basic_jsonINS_3mapENS_6vectorES7_bxydS5_NS9_14adl_serializerENSC_IhNS5_IhEEEEvEEEENS_19__map_value_compareIS7_SH_NS_4lessIvEELb1EEENS5_ISH_EEE4sizeB8ne180100Ev, symObjAddr: 0x10B60, symBinAddr: 0x100011A1C, symSize: 0x28 }
  - { offset: 0x2EAD0, size: 0x8, addend: 0x0, symName: __ZNKSt3__117__compressed_pairImNS_19__map_value_compareINS_12basic_stringIcNS_11char_traitsIcEENS_9allocatorIcEEEENS_12__value_typeIS7_N8nlohmann16json_abi_v3_11_310basic_jsonINS_3mapENS_6vectorES7_bxydS5_NSA_14adl_serializerENSD_IhNS5_IhEEEEvEEEENS_4lessIvEELb1EEEE5firstB8ne180100Ev, symObjAddr: 0x10B88, symBinAddr: 0x100011A44, symSize: 0x24 }
  - { offset: 0x2EAF6, size: 0x8, addend: 0x0, symName: __ZNKSt3__122__compressed_pair_elemImLi0ELb0EE5__getB8ne180100Ev, symObjAddr: 0x10BAC, symBinAddr: 0x100011A68, symSize: 0x14 }
  - { offset: 0x2EB1C, size: 0x8, addend: 0x0, symName: __ZNSt3__16vectorIN8nlohmann16json_abi_v3_11_310basic_jsonINS_3mapES0_NS_12basic_stringIcNS_11char_traitsIcEENS_9allocatorIcEEEEbxydS8_NS2_14adl_serializerENS0_IhNS8_IhEEEEvEENS8_ISE_EEE22__construct_one_at_endB8ne180100IJSE_EEEvDpOT_, symObjAddr: 0x10BC0, symBinAddr: 0x100011A7C, symSize: 0x90 }
  - { offset: 0x2EB6B, size: 0x8, addend: 0x0, symName: __ZNSt3__16vectorIN8nlohmann16json_abi_v3_11_310basic_jsonINS_3mapES0_NS_12basic_stringIcNS_11char_traitsIcEENS_9allocatorIcEEEEbxydS8_NS2_14adl_serializerENS0_IhNS8_IhEEEEvEENS8_ISE_EEE21__push_back_slow_pathISE_EEPSE_OT_, symObjAddr: 0x10C50, symBinAddr: 0x100011B0C, symSize: 0xE8 }
  - { offset: 0x2EBC9, size: 0x8, addend: 0x0, symName: __ZNKSt3__16vectorIN8nlohmann16json_abi_v3_11_310basic_jsonINS_3mapES0_NS_12basic_stringIcNS_11char_traitsIcEENS_9allocatorIcEEEEbxydS8_NS2_14adl_serializerENS0_IhNS8_IhEEEEvEENS8_ISE_EEE11__recommendB8ne180100Em, symObjAddr: 0x10D38, symBinAddr: 0x100011BF4, symSize: 0xB4 }
  - { offset: 0x2EC1E, size: 0x8, addend: 0x0, symName: __ZNSt3__115__tree_iteratorINS_12__value_typeINS_12basic_stringIcNS_11char_traitsIcEENS_9allocatorIcEEEEN8nlohmann16json_abi_v3_11_310basic_jsonINS_3mapENS_6vectorES7_bxydS5_NS9_14adl_serializerENSC_IhNS5_IhEEEEvEEEEPNS_11__tree_nodeISH_PvEElEppB8ne180100Ev, symObjAddr: 0x10E6C, symBinAddr: 0x100011D28, symSize: 0x38 }
  - { offset: 0x2EC44, size: 0x8, addend: 0x0, symName: __ZN8nlohmann16json_abi_v3_11_310basic_jsonINSt3__13mapENS2_6vectorENS2_12basic_stringIcNS2_11char_traitsIcEENS2_9allocatorIcEEEEbxydS8_NS0_14adl_serializerENS4_IhNS8_IhEEEEvEC2EOSE_, symObjAddr: 0x10EA4, symBinAddr: 0x100011D60, symSize: 0x80 }
  - { offset: 0x2EC7D, size: 0x8, addend: 0x0, symName: __ZNSt3__16vectorIN8nlohmann16json_abi_v3_11_310basic_jsonINS_3mapES0_NS_12basic_stringIcNS_11char_traitsIcEENS_9allocatorIcEEEEbxydS8_NS2_14adl_serializerENS0_IhNS8_IhEEEEvEENS8_ISE_EEE17__destruct_at_endB8ne180100EPSE_, symObjAddr: 0x10F24, symBinAddr: 0x100011DE0, symSize: 0x4C }
  - { offset: 0x2ECC1, size: 0x8, addend: 0x0, symName: __ZNKSt3__16vectorIN8nlohmann16json_abi_v3_11_310basic_jsonINS_3mapES0_NS_12basic_stringIcNS_11char_traitsIcEENS_9allocatorIcEEEEbxydS8_NS2_14adl_serializerENS0_IhNS8_IhEEEEvEENS8_ISE_EEE17__annotate_shrinkB8ne180100Em, symObjAddr: 0x10F70, symBinAddr: 0x100011E2C, symSize: 0x14 }
  - { offset: 0x2ECF6, size: 0x8, addend: 0x0, symName: __ZNSt3__16__treeINS_12__value_typeINS_12basic_stringIcNS_11char_traitsIcEENS_9allocatorIcEEEEN8nlohmann16json_abi_v3_11_310basic_jsonINS_3mapENS_6vectorES7_bxydS5_NS9_14adl_serializerENSC_IhNS5_IhEEEEvEEEENS_19__map_value_compareIS7_SH_NS_4lessIvEELb1EEENS5_ISH_EEE5clearEv, symObjAddr: 0x10F84, symBinAddr: 0x100011E40, symSize: 0x74 }
  - { offset: 0x2ED1E, size: 0x8, addend: 0x0, symName: __ZNSt3__16vectorIN8nlohmann16json_abi_v3_11_310basic_jsonINS_3mapES0_NS_12basic_stringIcNS_11char_traitsIcEENS_9allocatorIcEEEEbxydS8_NS2_14adl_serializerENS0_IhNS8_IhEEEEvEENS8_ISE_EEED2B8ne180100Ev, symObjAddr: 0x10FF8, symBinAddr: 0x100011EB4, symSize: 0x40 }
  - { offset: 0x2ED48, size: 0x8, addend: 0x0, symName: __ZNSt3__13mapINS_12basic_stringIcNS_11char_traitsIcEENS_9allocatorIcEEEEN8nlohmann16json_abi_v3_11_310basic_jsonIS0_NS_6vectorES6_bxydS4_NS8_14adl_serializerENSA_IhNS4_IhEEEEvEENS_4lessIvEENS4_INS_4pairIKS6_SE_EEEEED1B8ne180100Ev, symObjAddr: 0x1105C, symBinAddr: 0x100011F18, symSize: 0x2C }
  - { offset: 0x2ED72, size: 0x8, addend: 0x0, symName: __ZNSt3__13mapINS_12basic_stringIcNS_11char_traitsIcEENS_9allocatorIcEEEEN8nlohmann16json_abi_v3_11_310basic_jsonIS0_NS_6vectorES6_bxydS4_NS8_14adl_serializerENSA_IhNS4_IhEEEEvEENS_4lessIvEENS4_INS_4pairIKS6_SE_EEEEED2B8ne180100Ev, symObjAddr: 0x11088, symBinAddr: 0x100011F44, symSize: 0x2C }
  - { offset: 0x2ED9C, size: 0x8, addend: 0x0, symName: __ZN8nlohmann16json_abi_v3_11_327byte_container_with_subtypeINSt3__16vectorIhNS2_9allocatorIhEEEEED1Ev, symObjAddr: 0x11120, symBinAddr: 0x100011FDC, symSize: 0x2C }
  - { offset: 0x2EDC8, size: 0x8, addend: 0x0, symName: __ZN8nlohmann16json_abi_v3_11_327byte_container_with_subtypeINSt3__16vectorIhNS2_9allocatorIhEEEEED2Ev, symObjAddr: 0x1114C, symBinAddr: 0x100012008, symSize: 0x2C }
  - { offset: 0x2EDF4, size: 0x8, addend: 0x0, symName: __ZNSt3__16vectorIhNS_9allocatorIhEEED2B8ne180100Ev, symObjAddr: 0x11178, symBinAddr: 0x100012034, symSize: 0x40 }
  - { offset: 0x2EE1E, size: 0x8, addend: 0x0, symName: __ZN8nlohmann16json_abi_v3_11_310basic_jsonINSt3__13mapENS2_6vectorENS2_12basic_stringIcNS2_11char_traitsIcEENS2_9allocatorIcEEEEbxydS8_NS0_14adl_serializerENS4_IhNS8_IhEEEEvEixESA_, symObjAddr: 0x111B8, symBinAddr: 0x100012074, symSize: 0x18C }
  - { offset: 0x2EE72, size: 0x8, addend: 0x0, symName: __ZNK8nlohmann16json_abi_v3_11_310basic_jsonINSt3__13mapENS2_6vectorENS2_12basic_stringIcNS2_11char_traitsIcEENS2_9allocatorIcEEEEbxydS8_NS0_14adl_serializerENS4_IhNS8_IhEEEEvE7is_nullEv, symObjAddr: 0x11344, symBinAddr: 0x100012200, symSize: 0x24 }
  - { offset: 0x2EE98, size: 0x8, addend: 0x0, symName: __ZN8nlohmann16json_abi_v3_11_310basic_jsonINSt3__13mapENS2_6vectorENS2_12basic_stringIcNS2_11char_traitsIcEENS2_9allocatorIcEEEEbxydS8_NS0_14adl_serializerENS4_IhNS8_IhEEEEvE6createINS3_ISA_SE_NS2_4lessIvEENS8_INS2_4pairIKSA_SE_EEEEEEJEEEPT_DpOT0_, symObjAddr: 0x11368, symBinAddr: 0x100012224, symSize: 0xEC }
  - { offset: 0x2EF17, size: 0x8, addend: 0x0, symName: __ZNSt3__13mapINS_12basic_stringIcNS_11char_traitsIcEENS_9allocatorIcEEEEN8nlohmann16json_abi_v3_11_310basic_jsonIS0_NS_6vectorES6_bxydS4_NS8_14adl_serializerENSA_IhNS4_IhEEEEvEENS_4lessIvEENS4_INS_4pairIKS6_SE_EEEEE7emplaceB8ne180100IJS6_DnEEENSH_INS_14__map_iteratorINS_15__tree_iteratorINS_12__value_typeIS6_SE_EEPNS_11__tree_nodeISQ_PvEElEEEEbEEDpOT_, symObjAddr: 0x11454, symBinAddr: 0x100012310, symSize: 0x54 }
  - { offset: 0x2EF6B, size: 0x8, addend: 0x0, symName: __ZN8nlohmann16json_abi_v3_11_310basic_jsonINSt3__13mapENS2_6vectorENS2_12basic_stringIcNS2_11char_traitsIcEENS2_9allocatorIcEEEEbxydS8_NS0_14adl_serializerENS4_IhNS8_IhEEEEvE10set_parentERSE_m, symObjAddr: 0x114A8, symBinAddr: 0x100012364, symSize: 0x1C }
  - { offset: 0x2EFB5, size: 0x8, addend: 0x0, symName: __ZN8nlohmann16json_abi_v3_11_36detail10type_error6createIPNS0_10basic_jsonINSt3__13mapENS5_6vectorENS5_12basic_stringIcNS5_11char_traitsIcEENS5_9allocatorIcEEEEbxydSB_NS0_14adl_serializerENS7_IhNSB_IhEEEEvEELi0EEES2_iRKSD_T_, symObjAddr: 0x114C4, symBinAddr: 0x100012380, symSize: 0x130 }
  - { offset: 0x2F011, size: 0x8, addend: 0x0, symName: __ZNK8nlohmann16json_abi_v3_11_310basic_jsonINSt3__13mapENS2_6vectorENS2_12basic_stringIcNS2_11char_traitsIcEENS2_9allocatorIcEEEEbxydS8_NS0_14adl_serializerENS4_IhNS8_IhEEEEvE9type_nameEv, symObjAddr: 0x116C0, symBinAddr: 0x10001257C, symSize: 0xD8 }
  - { offset: 0x2F037, size: 0x8, addend: 0x0, symName: __ZN8nlohmann16json_abi_v3_11_36detail10type_errorD1Ev, symObjAddr: 0x117C0, symBinAddr: 0x10001267C, symSize: 0x2C }
  - { offset: 0x2F0D6, size: 0x8, addend: 0x0, symName: __ZNSt3__110unique_ptrINS_3mapINS_12basic_stringIcNS_11char_traitsIcEENS_9allocatorIcEEEEN8nlohmann16json_abi_v3_11_310basic_jsonIS1_NS_6vectorES7_bxydS5_NS9_14adl_serializerENSB_IhNS5_IhEEEEvEENS_4lessIvEENS5_INS_4pairIKS7_SF_EEEEEEZNSF_6createISM_JEEEPT_DpOT0_EUlPSM_E_EC1B8ne180100ILb1EvEEST_NS_16__dependent_typeINS_27__unique_ptr_deleter_sfinaeISU_EEXT_EE15__lval_ref_typeE, symObjAddr: 0x117EC, symBinAddr: 0x1000126A8, symSize: 0x3C }
  - { offset: 0x2F127, size: 0x8, addend: 0x0, symName: __ZNSt3__116allocator_traitsINS_9allocatorINS_3mapINS_12basic_stringIcNS_11char_traitsIcEENS1_IcEEEEN8nlohmann16json_abi_v3_11_310basic_jsonIS2_NS_6vectorES7_bxydS1_NS9_14adl_serializerENSB_IhNS1_IhEEEEvEENS_4lessIvEENS1_INS_4pairIKS7_SF_EEEEEEEEE9constructB8ne180100ISM_JEvvEEvRSN_PT_DpOT0_, symObjAddr: 0x11828, symBinAddr: 0x1000126E4, symSize: 0x28 }
  - { offset: 0x2F167, size: 0x8, addend: 0x0, symName: __ZNKSt3__110unique_ptrINS_3mapINS_12basic_stringIcNS_11char_traitsIcEENS_9allocatorIcEEEEN8nlohmann16json_abi_v3_11_310basic_jsonIS1_NS_6vectorES7_bxydS5_NS9_14adl_serializerENSB_IhNS5_IhEEEEvEENS_4lessIvEENS5_INS_4pairIKS7_SF_EEEEEEZNSF_6createISM_JEEEPT_DpOT0_EUlPSM_E_E3getB8ne180100Ev, symObjAddr: 0x11850, symBinAddr: 0x10001270C, symSize: 0x28 }
  - { offset: 0x2F18D, size: 0x8, addend: 0x0, symName: __ZNSt3__110unique_ptrINS_3mapINS_12basic_stringIcNS_11char_traitsIcEENS_9allocatorIcEEEEN8nlohmann16json_abi_v3_11_310basic_jsonIS1_NS_6vectorES7_bxydS5_NS9_14adl_serializerENSB_IhNS5_IhEEEEvEENS_4lessIvEENS5_INS_4pairIKS7_SF_EEEEEEZNSF_6createISM_JEEEPT_DpOT0_EUlPSM_E_E7releaseB8ne180100Ev, symObjAddr: 0x118A8, symBinAddr: 0x100012764, symSize: 0x44 }
  - { offset: 0x2F1C2, size: 0x8, addend: 0x0, symName: __ZNSt3__110unique_ptrINS_3mapINS_12basic_stringIcNS_11char_traitsIcEENS_9allocatorIcEEEEN8nlohmann16json_abi_v3_11_310basic_jsonIS1_NS_6vectorES7_bxydS5_NS9_14adl_serializerENSB_IhNS5_IhEEEEvEENS_4lessIvEENS5_INS_4pairIKS7_SF_EEEEEEZNSF_6createISM_JEEEPT_DpOT0_EUlPSM_E_ED1B8ne180100Ev, symObjAddr: 0x118EC, symBinAddr: 0x1000127A8, symSize: 0x2C }
  - { offset: 0x2F1EC, size: 0x8, addend: 0x0, symName: __ZNSt3__110unique_ptrINS_3mapINS_12basic_stringIcNS_11char_traitsIcEENS_9allocatorIcEEEEN8nlohmann16json_abi_v3_11_310basic_jsonIS1_NS_6vectorES7_bxydS5_NS9_14adl_serializerENSB_IhNS5_IhEEEEvEENS_4lessIvEENS5_INS_4pairIKS7_SF_EEEEEEZNSF_6createISM_JEEEPT_DpOT0_EUlPSM_E_EC2B8ne180100ILb1EvEEST_NS_16__dependent_typeINS_27__unique_ptr_deleter_sfinaeISU_EEXT_EE15__lval_ref_typeE, symObjAddr: 0x11918, symBinAddr: 0x1000127D4, symSize: 0x48 }
  - { offset: 0x2F23D, size: 0x8, addend: 0x0, symName: __ZNSt3__117__compressed_pairIPNS_3mapINS_12basic_stringIcNS_11char_traitsIcEENS_9allocatorIcEEEEN8nlohmann16json_abi_v3_11_310basic_jsonIS1_NS_6vectorES7_bxydS5_NS9_14adl_serializerENSB_IhNS5_IhEEEEvEENS_4lessIvEENS5_INS_4pairIKS7_SF_EEEEEEZNSF_6createISM_JEEEPT_DpOT0_EUlSN_E_EC1B8ne180100IRSN_RKSU_EEOSP_OT0_, symObjAddr: 0x11960, symBinAddr: 0x10001281C, symSize: 0x3C }
  - { offset: 0x2F295, size: 0x8, addend: 0x0, symName: __ZNSt3__117__compressed_pairIPNS_3mapINS_12basic_stringIcNS_11char_traitsIcEENS_9allocatorIcEEEEN8nlohmann16json_abi_v3_11_310basic_jsonIS1_NS_6vectorES7_bxydS5_NS9_14adl_serializerENSB_IhNS5_IhEEEEvEENS_4lessIvEENS5_INS_4pairIKS7_SF_EEEEEEZNSF_6createISM_JEEEPT_DpOT0_EUlSN_E_EC2B8ne180100IRSN_RKSU_EEOSP_OT0_, symObjAddr: 0x1199C, symBinAddr: 0x100012858, symSize: 0x48 }
  - { offset: 0x2F2ED, size: 0x8, addend: 0x0, symName: __ZNSt3__122__compressed_pair_elemIZN8nlohmann16json_abi_v3_11_310basic_jsonINS_3mapENS_6vectorENS_12basic_stringIcNS_11char_traitsIcEENS_9allocatorIcEEEEbxydS9_NS2_14adl_serializerENS5_IhNS9_IhEEEEvE6createINS4_ISB_SF_NS_4lessIvEENS9_INS_4pairIKSB_SF_EEEEEEJEEEPT_DpOT0_EUlPSN_E_Li1ELb0EEC2B8ne180100IRKSU_vEEOSO_, symObjAddr: 0x119E4, symBinAddr: 0x1000128A0, symSize: 0x24 }
  - { offset: 0x2F32F, size: 0x8, addend: 0x0, symName: __ZNSt3__13mapINS_12basic_stringIcNS_11char_traitsIcEENS_9allocatorIcEEEEN8nlohmann16json_abi_v3_11_310basic_jsonIS0_NS_6vectorES6_bxydS4_NS8_14adl_serializerENSA_IhNS4_IhEEEEvEENS_4lessIvEENS4_INS_4pairIKS6_SE_EEEEEC1B8ne180100Ev, symObjAddr: 0x11A58, symBinAddr: 0x100012914, symSize: 0x2C }
  - { offset: 0x2F359, size: 0x8, addend: 0x0, symName: __ZNSt3__13mapINS_12basic_stringIcNS_11char_traitsIcEENS_9allocatorIcEEEEN8nlohmann16json_abi_v3_11_310basic_jsonIS0_NS_6vectorES6_bxydS4_NS8_14adl_serializerENSA_IhNS4_IhEEEEvEENS_4lessIvEENS4_INS_4pairIKS6_SE_EEEEEC2B8ne180100Ev, symObjAddr: 0x11A84, symBinAddr: 0x100012940, symSize: 0x40 }
  - { offset: 0x2F383, size: 0x8, addend: 0x0, symName: __ZNSt3__119__map_value_compareINS_12basic_stringIcNS_11char_traitsIcEENS_9allocatorIcEEEENS_12__value_typeIS6_N8nlohmann16json_abi_v3_11_310basic_jsonINS_3mapENS_6vectorES6_bxydS4_NS9_14adl_serializerENSC_IhNS4_IhEEEEvEEEENS_4lessIvEELb1EEC1B8ne180100ESJ_, symObjAddr: 0x11AC4, symBinAddr: 0x100012980, symSize: 0x2C }
  - { offset: 0x2F3BC, size: 0x8, addend: 0x0, symName: __ZNSt3__16__treeINS_12__value_typeINS_12basic_stringIcNS_11char_traitsIcEENS_9allocatorIcEEEEN8nlohmann16json_abi_v3_11_310basic_jsonINS_3mapENS_6vectorES7_bxydS5_NS9_14adl_serializerENSC_IhNS5_IhEEEEvEEEENS_19__map_value_compareIS7_SH_NS_4lessIvEELb1EEENS5_ISH_EEEC1ERKSL_, symObjAddr: 0x11AF0, symBinAddr: 0x1000129AC, symSize: 0x34 }
  - { offset: 0x2F3F7, size: 0x8, addend: 0x0, symName: __ZNSt3__119__map_value_compareINS_12basic_stringIcNS_11char_traitsIcEENS_9allocatorIcEEEENS_12__value_typeIS6_N8nlohmann16json_abi_v3_11_310basic_jsonINS_3mapENS_6vectorES6_bxydS4_NS9_14adl_serializerENSC_IhNS4_IhEEEEvEEEENS_4lessIvEELb1EEC2B8ne180100ESJ_, symObjAddr: 0x11B24, symBinAddr: 0x1000129E0, symSize: 0x14 }
  - { offset: 0x2F430, size: 0x8, addend: 0x0, symName: __ZNSt3__16__treeINS_12__value_typeINS_12basic_stringIcNS_11char_traitsIcEENS_9allocatorIcEEEEN8nlohmann16json_abi_v3_11_310basic_jsonINS_3mapENS_6vectorES7_bxydS5_NS9_14adl_serializerENSC_IhNS5_IhEEEEvEEEENS_19__map_value_compareIS7_SH_NS_4lessIvEELb1EEENS5_ISH_EEEC2ERKSL_, symObjAddr: 0x11B38, symBinAddr: 0x1000129F4, symSize: 0x7C }
  - { offset: 0x2F46B, size: 0x8, addend: 0x0, symName: __ZNSt3__117__compressed_pairINS_15__tree_end_nodeIPNS_16__tree_node_baseIPvEEEENS_9allocatorINS_11__tree_nodeINS_12__value_typeINS_12basic_stringIcNS_11char_traitsIcEENS7_IcEEEEN8nlohmann16json_abi_v3_11_310basic_jsonINS_3mapENS_6vectorESE_bxydS7_NSG_14adl_serializerENSJ_IhNS7_IhEEEEvEEEES3_EEEEEC1B8ne180100ILb1EvEEv, symObjAddr: 0x11BB4, symBinAddr: 0x100012A70, symSize: 0x2C }
  - { offset: 0x2F4A0, size: 0x8, addend: 0x0, symName: __ZNSt3__117__compressed_pairINS_15__tree_end_nodeIPNS_16__tree_node_baseIPvEEEENS_9allocatorINS_11__tree_nodeINS_12__value_typeINS_12basic_stringIcNS_11char_traitsIcEENS7_IcEEEEN8nlohmann16json_abi_v3_11_310basic_jsonINS_3mapENS_6vectorESE_bxydS7_NSG_14adl_serializerENSJ_IhNS7_IhEEEEvEEEES3_EEEEEC2B8ne180100ILb1EvEEv, symObjAddr: 0x11BE0, symBinAddr: 0x100012A9C, symSize: 0x34 }
  - { offset: 0x2F4D5, size: 0x8, addend: 0x0, symName: __ZNSt3__122__compressed_pair_elemINS_15__tree_end_nodeIPNS_16__tree_node_baseIPvEEEELi0ELb0EEC2B8ne180100ENS_16__value_init_tagE, symObjAddr: 0x11C14, symBinAddr: 0x100012AD0, symSize: 0x2C }
  - { offset: 0x2F509, size: 0x8, addend: 0x0, symName: __ZNSt3__122__compressed_pair_elemINS_9allocatorINS_11__tree_nodeINS_12__value_typeINS_12basic_stringIcNS_11char_traitsIcEENS1_IcEEEEN8nlohmann16json_abi_v3_11_310basic_jsonINS_3mapENS_6vectorES8_bxydS1_NSA_14adl_serializerENSD_IhNS1_IhEEEEvEEEEPvEEEELi1ELb1EEC2B8ne180100ENS_16__value_init_tagE, symObjAddr: 0x11C40, symBinAddr: 0x100012AFC, symSize: 0x2C }
  - { offset: 0x2F53D, size: 0x8, addend: 0x0, symName: __ZNSt3__19allocatorINS_11__tree_nodeINS_12__value_typeINS_12basic_stringIcNS_11char_traitsIcEENS0_IcEEEEN8nlohmann16json_abi_v3_11_310basic_jsonINS_3mapENS_6vectorES7_bxydS0_NS9_14adl_serializerENSC_IhNS0_IhEEEEvEEEEPvEEEC2B8ne180100Ev, symObjAddr: 0x11C6C, symBinAddr: 0x100012B28, symSize: 0x2C }
  - { offset: 0x2F567, size: 0x8, addend: 0x0, symName: __ZNSt3__116__non_trivial_ifILb1ENS_9allocatorINS_11__tree_nodeINS_12__value_typeINS_12basic_stringIcNS_11char_traitsIcEENS1_IcEEEEN8nlohmann16json_abi_v3_11_310basic_jsonINS_3mapENS_6vectorES8_bxydS1_NSA_14adl_serializerENSD_IhNS1_IhEEEEvEEEEPvEEEEEC2B8ne180100Ev, symObjAddr: 0x11C98, symBinAddr: 0x100012B54, symSize: 0x14 }
  - { offset: 0x2F591, size: 0x8, addend: 0x0, symName: __ZNKSt3__117__compressed_pairIPNS_3mapINS_12basic_stringIcNS_11char_traitsIcEENS_9allocatorIcEEEEN8nlohmann16json_abi_v3_11_310basic_jsonIS1_NS_6vectorES7_bxydS5_NS9_14adl_serializerENSB_IhNS5_IhEEEEvEENS_4lessIvEENS5_INS_4pairIKS7_SF_EEEEEEZNSF_6createISM_JEEEPT_DpOT0_EUlSN_E_E5firstB8ne180100Ev, symObjAddr: 0x11CAC, symBinAddr: 0x100012B68, symSize: 0x24 }
  - { offset: 0x2F5B7, size: 0x8, addend: 0x0, symName: __ZNKSt3__110unique_ptrINS_3mapINS_12basic_stringIcNS_11char_traitsIcEENS_9allocatorIcEEEEN8nlohmann16json_abi_v3_11_310basic_jsonIS1_NS_6vectorES7_bxydS5_NS9_14adl_serializerENSB_IhNS5_IhEEEEvEENS_4lessIvEENS5_INS_4pairIKS7_SF_EEEEEEZNSF_6createISM_JEEEPT_DpOT0_EUlPSM_E_EcvbB8ne180100Ev, symObjAddr: 0x11CD0, symBinAddr: 0x100012B8C, symSize: 0x34 }
  - { offset: 0x2F5DD, size: 0x8, addend: 0x0, symName: __ZNSt3__117__compressed_pairIPNS_3mapINS_12basic_stringIcNS_11char_traitsIcEENS_9allocatorIcEEEEN8nlohmann16json_abi_v3_11_310basic_jsonIS1_NS_6vectorES7_bxydS5_NS9_14adl_serializerENSB_IhNS5_IhEEEEvEENS_4lessIvEENS5_INS_4pairIKS7_SF_EEEEEEZNSF_6createISM_JEEEPT_DpOT0_EUlSN_E_E5firstB8ne180100Ev, symObjAddr: 0x11D04, symBinAddr: 0x100012BC0, symSize: 0x24 }
  - { offset: 0x2F603, size: 0x8, addend: 0x0, symName: __ZNSt3__110unique_ptrINS_3mapINS_12basic_stringIcNS_11char_traitsIcEENS_9allocatorIcEEEEN8nlohmann16json_abi_v3_11_310basic_jsonIS1_NS_6vectorES7_bxydS5_NS9_14adl_serializerENSB_IhNS5_IhEEEEvEENS_4lessIvEENS5_INS_4pairIKS7_SF_EEEEEEZNSF_6createISM_JEEEPT_DpOT0_EUlPSM_E_ED2B8ne180100Ev, symObjAddr: 0x11D28, symBinAddr: 0x100012BE4, symSize: 0x30 }
  - { offset: 0x2F62D, size: 0x8, addend: 0x0, symName: __ZNSt3__110unique_ptrINS_3mapINS_12basic_stringIcNS_11char_traitsIcEENS_9allocatorIcEEEEN8nlohmann16json_abi_v3_11_310basic_jsonIS1_NS_6vectorES7_bxydS5_NS9_14adl_serializerENSB_IhNS5_IhEEEEvEENS_4lessIvEENS5_INS_4pairIKS7_SF_EEEEEEZNSF_6createISM_JEEEPT_DpOT0_EUlPSM_E_E5resetB8ne180100EST_, symObjAddr: 0x11D58, symBinAddr: 0x100012C14, symSize: 0x80 }
  - { offset: 0x2F671, size: 0x8, addend: 0x0, symName: __ZNSt3__117__compressed_pairIPNS_3mapINS_12basic_stringIcNS_11char_traitsIcEENS_9allocatorIcEEEEN8nlohmann16json_abi_v3_11_310basic_jsonIS1_NS_6vectorES7_bxydS5_NS9_14adl_serializerENSB_IhNS5_IhEEEEvEENS_4lessIvEENS5_INS_4pairIKS7_SF_EEEEEEZNSF_6createISM_JEEEPT_DpOT0_EUlSN_E_E6secondB8ne180100Ev, symObjAddr: 0x11DD8, symBinAddr: 0x100012C94, symSize: 0x28 }
  - { offset: 0x2F69D, size: 0x8, addend: 0x0, symName: __ZZN8nlohmann16json_abi_v3_11_310basic_jsonINSt3__13mapENS2_6vectorENS2_12basic_stringIcNS2_11char_traitsIcEENS2_9allocatorIcEEEEbxydS8_NS0_14adl_serializerENS4_IhNS8_IhEEEEvE6createINS3_ISA_SE_NS2_4lessIvEENS8_INS2_4pairIKSA_SE_EEEEEEJEEEPT_DpOT0_ENKUlPSM_E_clESS_, symObjAddr: 0x11E00, symBinAddr: 0x100012CBC, symSize: 0x34 }
  - { offset: 0x2F6D6, size: 0x8, addend: 0x0, symName: __ZNSt3__122__compressed_pair_elemIZN8nlohmann16json_abi_v3_11_310basic_jsonINS_3mapENS_6vectorENS_12basic_stringIcNS_11char_traitsIcEENS_9allocatorIcEEEEbxydS9_NS2_14adl_serializerENS5_IhNS9_IhEEEEvE6createINS4_ISB_SF_NS_4lessIvEENS9_INS_4pairIKSB_SF_EEEEEEJEEEPT_DpOT0_EUlPSN_E_Li1ELb0EE5__getB8ne180100Ev, symObjAddr: 0x11E34, symBinAddr: 0x100012CF0, symSize: 0x14 }
  - { offset: 0x2F6FC, size: 0x8, addend: 0x0, symName: __ZNSt3__16__treeINS_12__value_typeINS_12basic_stringIcNS_11char_traitsIcEENS_9allocatorIcEEEEN8nlohmann16json_abi_v3_11_310basic_jsonINS_3mapENS_6vectorES7_bxydS5_NS9_14adl_serializerENSC_IhNS5_IhEEEEvEEEENS_19__map_value_compareIS7_SH_NS_4lessIvEELb1EEENS5_ISH_EEE16__emplace_uniqueB8ne180100IS7_DnLi0EEENS_4pairINS_15__tree_iteratorISH_PNS_11__tree_nodeISH_PvEElEEbEEOT_OT0_, symObjAddr: 0x11E48, symBinAddr: 0x100012D04, symSize: 0x48 }
  - { offset: 0x2F758, size: 0x8, addend: 0x0, symName: __ZNSt3__14pairINS_14__map_iteratorINS_15__tree_iteratorINS_12__value_typeINS_12basic_stringIcNS_11char_traitsIcEENS_9allocatorIcEEEEN8nlohmann16json_abi_v3_11_310basic_jsonINS_3mapENS_6vectorES9_bxydS7_NSB_14adl_serializerENSE_IhNS7_IhEEEEvEEEEPNS_11__tree_nodeISJ_PvEElEEEEbEC1B8ne180100ISO_bLi0EEEONS0_IT_T0_EE, symObjAddr: 0x11E90, symBinAddr: 0x100012D4C, symSize: 0x34 }
  - { offset: 0x2F7A8, size: 0x8, addend: 0x0, symName: __ZNSt3__16__treeINS_12__value_typeINS_12basic_stringIcNS_11char_traitsIcEENS_9allocatorIcEEEEN8nlohmann16json_abi_v3_11_310basic_jsonINS_3mapENS_6vectorES7_bxydS5_NS9_14adl_serializerENSC_IhNS5_IhEEEEvEEEENS_19__map_value_compareIS7_SH_NS_4lessIvEELb1EEENS5_ISH_EEE25__emplace_unique_key_argsIS7_JS7_DnEEENS_4pairINS_15__tree_iteratorISH_PNS_11__tree_nodeISH_PvEElEEbEERKT_DpOT0_, symObjAddr: 0x11EC4, symBinAddr: 0x100012D80, symSize: 0xF8 }
  - { offset: 0x2F869, size: 0x8, addend: 0x0, symName: __ZNSt3__16__treeINS_12__value_typeINS_12basic_stringIcNS_11char_traitsIcEENS_9allocatorIcEEEEN8nlohmann16json_abi_v3_11_310basic_jsonINS_3mapENS_6vectorES7_bxydS5_NS9_14adl_serializerENSC_IhNS5_IhEEEEvEEEENS_19__map_value_compareIS7_SH_NS_4lessIvEELb1EEENS5_ISH_EEE16__construct_nodeIJS7_DnEEENS_10unique_ptrINS_11__tree_nodeISH_PvEENS_22__tree_node_destructorINS5_ISS_EEEEEEDpOT_, symObjAddr: 0x11FBC, symBinAddr: 0x100012E78, symSize: 0x110 }
  - { offset: 0x2F8DE, size: 0x8, addend: 0x0, symName: __ZNSt3__116allocator_traitsINS_9allocatorINS_11__tree_nodeINS_12__value_typeINS_12basic_stringIcNS_11char_traitsIcEENS1_IcEEEEN8nlohmann16json_abi_v3_11_310basic_jsonINS_3mapENS_6vectorES8_bxydS1_NSA_14adl_serializerENSD_IhNS1_IhEEEEvEEEEPvEEEEE9constructB8ne180100INS_4pairIKS8_SH_EEJS8_DnEvvEEvRSL_PT_DpOT0_, symObjAddr: 0x120CC, symBinAddr: 0x100012F88, symSize: 0x38 }
  - { offset: 0x2F947, size: 0x8, addend: 0x0, symName: __ZNSt3__14pairIKNS_12basic_stringIcNS_11char_traitsIcEENS_9allocatorIcEEEEN8nlohmann16json_abi_v3_11_310basic_jsonINS_3mapENS_6vectorES6_bxydS4_NS9_14adl_serializerENSC_IhNS4_IhEEEEvEEEC1B8ne180100IS6_DnLi0EEEOT_OT0_, symObjAddr: 0x12174, symBinAddr: 0x100013030, symSize: 0x3C }
  - { offset: 0x2F9A5, size: 0x8, addend: 0x0, symName: __ZNSt3__14pairIKNS_12basic_stringIcNS_11char_traitsIcEENS_9allocatorIcEEEEN8nlohmann16json_abi_v3_11_310basic_jsonINS_3mapENS_6vectorES6_bxydS4_NS9_14adl_serializerENSC_IhNS4_IhEEEEvEEEC2B8ne180100IS6_DnLi0EEEOT_OT0_, symObjAddr: 0x121B0, symBinAddr: 0x10001306C, symSize: 0x48 }
  - { offset: 0x2FA03, size: 0x8, addend: 0x0, symName: __ZN8nlohmann16json_abi_v3_11_310basic_jsonINSt3__13mapENS2_6vectorENS2_12basic_stringIcNS2_11char_traitsIcEENS2_9allocatorIcEEEEbxydS8_NS0_14adl_serializerENS4_IhNS8_IhEEEEvEC1EDn, symObjAddr: 0x121F8, symBinAddr: 0x1000130B4, symSize: 0x4C }
  - { offset: 0x2FA39, size: 0x8, addend: 0x0, symName: __ZN8nlohmann16json_abi_v3_11_310basic_jsonINSt3__13mapENS2_6vectorENS2_12basic_stringIcNS2_11char_traitsIcEENS2_9allocatorIcEEEEbxydS8_NS0_14adl_serializerENS4_IhNS8_IhEEEEvEC1ENS0_6detail7value_tE, symObjAddr: 0x12244, symBinAddr: 0x100013100, symSize: 0x34 }
  - { offset: 0x2FA72, size: 0x8, addend: 0x0, symName: __ZN8nlohmann16json_abi_v3_11_310basic_jsonINSt3__13mapENS2_6vectorENS2_12basic_stringIcNS2_11char_traitsIcEENS2_9allocatorIcEEEEbxydS8_NS0_14adl_serializerENS4_IhNS8_IhEEEEvEC2ENS0_6detail7value_tE, symObjAddr: 0x12278, symBinAddr: 0x100013134, symSize: 0x44 }
  - { offset: 0x2FAAB, size: 0x8, addend: 0x0, symName: __ZN8nlohmann16json_abi_v3_11_310basic_jsonINSt3__13mapENS2_6vectorENS2_12basic_stringIcNS2_11char_traitsIcEENS2_9allocatorIcEEEEbxydS8_NS0_14adl_serializerENS4_IhNS8_IhEEEEvE4dataC1ENS0_6detail7value_tE, symObjAddr: 0x122BC, symBinAddr: 0x100013178, symSize: 0x34 }
  - { offset: 0x2FAE4, size: 0x8, addend: 0x0, symName: __ZN8nlohmann16json_abi_v3_11_310basic_jsonINSt3__13mapENS2_6vectorENS2_12basic_stringIcNS2_11char_traitsIcEENS2_9allocatorIcEEEEbxydS8_NS0_14adl_serializerENS4_IhNS8_IhEEEEvE4dataC2ENS0_6detail7value_tE, symObjAddr: 0x122F0, symBinAddr: 0x1000131AC, symSize: 0x40 }
  - { offset: 0x2FB1D, size: 0x8, addend: 0x0, symName: __ZN8nlohmann16json_abi_v3_11_310basic_jsonINSt3__13mapENS2_6vectorENS2_12basic_stringIcNS2_11char_traitsIcEENS2_9allocatorIcEEEEbxydS8_NS0_14adl_serializerENS4_IhNS8_IhEEEEvE10json_valueC1ENS0_6detail7value_tE, symObjAddr: 0x12330, symBinAddr: 0x1000131EC, symSize: 0x34 }
  - { offset: 0x2FB56, size: 0x8, addend: 0x0, symName: __ZN8nlohmann16json_abi_v3_11_310basic_jsonINSt3__13mapENS2_6vectorENS2_12basic_stringIcNS2_11char_traitsIcEENS2_9allocatorIcEEEEbxydS8_NS0_14adl_serializerENS4_IhNS8_IhEEEEvE10json_valueC2ENS0_6detail7value_tE, symObjAddr: 0x12364, symBinAddr: 0x100013220, symSize: 0x1DC }
  - { offset: 0x2FB8F, size: 0x8, addend: 0x0, symName: __ZN8nlohmann16json_abi_v3_11_310basic_jsonINSt3__13mapENS2_6vectorENS2_12basic_stringIcNS2_11char_traitsIcEENS2_9allocatorIcEEEEbxydS8_NS0_14adl_serializerENS4_IhNS8_IhEEEEvE6createINS4_ISE_NS8_ISE_EEEEJEEEPT_DpOT0_, symObjAddr: 0x12568, symBinAddr: 0x100013424, symSize: 0xEC }
  - { offset: 0x2FC21, size: 0x8, addend: 0x0, symName: __ZN8nlohmann16json_abi_v3_11_310basic_jsonINSt3__13mapENS2_6vectorENS2_12basic_stringIcNS2_11char_traitsIcEENS2_9allocatorIcEEEEbxydS8_NS0_14adl_serializerENS4_IhNS8_IhEEEEvE6createISA_JRA1_KcEEEPT_DpOT0_, symObjAddr: 0x12654, symBinAddr: 0x100013510, symSize: 0xF4 }
  - { offset: 0x2FCAF, size: 0x8, addend: 0x0, symName: __ZN8nlohmann16json_abi_v3_11_310basic_jsonINSt3__13mapENS2_6vectorENS2_12basic_stringIcNS2_11char_traitsIcEENS2_9allocatorIcEEEEbxydS8_NS0_14adl_serializerENS4_IhNS8_IhEEEEvE6createINS0_27byte_container_with_subtypeISD_EEJEEEPT_DpOT0_, symObjAddr: 0x12748, symBinAddr: 0x100013604, symSize: 0xEC }
  - { offset: 0x2FD2E, size: 0x8, addend: 0x0, symName: __ZN8nlohmann16json_abi_v3_11_36detail11other_error6createIDnLi0EEES2_iRKNSt3__112basic_stringIcNS4_11char_traitsIcEENS4_9allocatorIcEEEET_, symObjAddr: 0x12834, symBinAddr: 0x1000136F0, symSize: 0x130 }
  - { offset: 0x2FD8A, size: 0x8, addend: 0x0, symName: __ZN8nlohmann16json_abi_v3_11_36detail11other_errorD1Ev, symObjAddr: 0x12964, symBinAddr: 0x100013820, symSize: 0x2C }
  - { offset: 0x2FE29, size: 0x8, addend: 0x0, symName: __ZNSt3__110unique_ptrINS_6vectorIN8nlohmann16json_abi_v3_11_310basic_jsonINS_3mapES1_NS_12basic_stringIcNS_11char_traitsIcEENS_9allocatorIcEEEEbxydS9_NS3_14adl_serializerENS1_IhNS9_IhEEEEvEENS9_ISF_EEEEZNSF_6createISH_JEEEPT_DpOT0_EUlPSH_E_EC1B8ne180100ILb1EvEESO_NS_16__dependent_typeINS_27__unique_ptr_deleter_sfinaeISP_EEXT_EE15__lval_ref_typeE, symObjAddr: 0x12990, symBinAddr: 0x10001384C, symSize: 0x3C }
  - { offset: 0x2FE7A, size: 0x8, addend: 0x0, symName: __ZNSt3__116allocator_traitsINS_9allocatorINS_6vectorIN8nlohmann16json_abi_v3_11_310basic_jsonINS_3mapES2_NS_12basic_stringIcNS_11char_traitsIcEENS1_IcEEEEbxydS1_NS4_14adl_serializerENS2_IhNS1_IhEEEEvEENS1_ISF_EEEEEEE9constructB8ne180100ISH_JEvvEEvRSI_PT_DpOT0_, symObjAddr: 0x129CC, symBinAddr: 0x100013888, symSize: 0x28 }
  - { offset: 0x2FEBA, size: 0x8, addend: 0x0, symName: __ZNKSt3__110unique_ptrINS_6vectorIN8nlohmann16json_abi_v3_11_310basic_jsonINS_3mapES1_NS_12basic_stringIcNS_11char_traitsIcEENS_9allocatorIcEEEEbxydS9_NS3_14adl_serializerENS1_IhNS9_IhEEEEvEENS9_ISF_EEEEZNSF_6createISH_JEEEPT_DpOT0_EUlPSH_E_E3getB8ne180100Ev, symObjAddr: 0x129F4, symBinAddr: 0x1000138B0, symSize: 0x28 }
  - { offset: 0x2FEE0, size: 0x8, addend: 0x0, symName: __ZNSt3__110unique_ptrINS_6vectorIN8nlohmann16json_abi_v3_11_310basic_jsonINS_3mapES1_NS_12basic_stringIcNS_11char_traitsIcEENS_9allocatorIcEEEEbxydS9_NS3_14adl_serializerENS1_IhNS9_IhEEEEvEENS9_ISF_EEEEZNSF_6createISH_JEEEPT_DpOT0_EUlPSH_E_E7releaseB8ne180100Ev, symObjAddr: 0x12A4C, symBinAddr: 0x100013908, symSize: 0x44 }
  - { offset: 0x2FF15, size: 0x8, addend: 0x0, symName: __ZNSt3__110unique_ptrINS_6vectorIN8nlohmann16json_abi_v3_11_310basic_jsonINS_3mapES1_NS_12basic_stringIcNS_11char_traitsIcEENS_9allocatorIcEEEEbxydS9_NS3_14adl_serializerENS1_IhNS9_IhEEEEvEENS9_ISF_EEEEZNSF_6createISH_JEEEPT_DpOT0_EUlPSH_E_ED1B8ne180100Ev, symObjAddr: 0x12A90, symBinAddr: 0x10001394C, symSize: 0x2C }
  - { offset: 0x2FF3F, size: 0x8, addend: 0x0, symName: __ZNSt3__110unique_ptrINS_6vectorIN8nlohmann16json_abi_v3_11_310basic_jsonINS_3mapES1_NS_12basic_stringIcNS_11char_traitsIcEENS_9allocatorIcEEEEbxydS9_NS3_14adl_serializerENS1_IhNS9_IhEEEEvEENS9_ISF_EEEEZNSF_6createISH_JEEEPT_DpOT0_EUlPSH_E_EC2B8ne180100ILb1EvEESO_NS_16__dependent_typeINS_27__unique_ptr_deleter_sfinaeISP_EEXT_EE15__lval_ref_typeE, symObjAddr: 0x12ABC, symBinAddr: 0x100013978, symSize: 0x48 }
  - { offset: 0x2FF90, size: 0x8, addend: 0x0, symName: __ZNSt3__117__compressed_pairIPNS_6vectorIN8nlohmann16json_abi_v3_11_310basic_jsonINS_3mapES1_NS_12basic_stringIcNS_11char_traitsIcEENS_9allocatorIcEEEEbxydS9_NS3_14adl_serializerENS1_IhNS9_IhEEEEvEENS9_ISF_EEEEZNSF_6createISH_JEEEPT_DpOT0_EUlSI_E_EC1B8ne180100IRSI_RKSP_EEOSK_OT0_, symObjAddr: 0x12B04, symBinAddr: 0x1000139C0, symSize: 0x3C }
  - { offset: 0x2FFE8, size: 0x8, addend: 0x0, symName: __ZNSt3__117__compressed_pairIPNS_6vectorIN8nlohmann16json_abi_v3_11_310basic_jsonINS_3mapES1_NS_12basic_stringIcNS_11char_traitsIcEENS_9allocatorIcEEEEbxydS9_NS3_14adl_serializerENS1_IhNS9_IhEEEEvEENS9_ISF_EEEEZNSF_6createISH_JEEEPT_DpOT0_EUlSI_E_EC2B8ne180100IRSI_RKSP_EEOSK_OT0_, symObjAddr: 0x12B40, symBinAddr: 0x1000139FC, symSize: 0x48 }
  - { offset: 0x30040, size: 0x8, addend: 0x0, symName: __ZNSt3__122__compressed_pair_elemIZN8nlohmann16json_abi_v3_11_310basic_jsonINS_3mapENS_6vectorENS_12basic_stringIcNS_11char_traitsIcEENS_9allocatorIcEEEEbxydS9_NS2_14adl_serializerENS5_IhNS9_IhEEEEvE6createINS5_ISF_NS9_ISF_EEEEJEEEPT_DpOT0_EUlPSI_E_Li1ELb0EEC2B8ne180100IRKSP_vEEOSJ_, symObjAddr: 0x12B88, symBinAddr: 0x100013A44, symSize: 0x24 }
  - { offset: 0x30082, size: 0x8, addend: 0x0, symName: __ZNKSt3__117__compressed_pairIPNS_6vectorIN8nlohmann16json_abi_v3_11_310basic_jsonINS_3mapES1_NS_12basic_stringIcNS_11char_traitsIcEENS_9allocatorIcEEEEbxydS9_NS3_14adl_serializerENS1_IhNS9_IhEEEEvEENS9_ISF_EEEEZNSF_6createISH_JEEEPT_DpOT0_EUlSI_E_E5firstB8ne180100Ev, symObjAddr: 0x12BFC, symBinAddr: 0x100013AB8, symSize: 0x24 }
  - { offset: 0x300A8, size: 0x8, addend: 0x0, symName: __ZNKSt3__110unique_ptrINS_6vectorIN8nlohmann16json_abi_v3_11_310basic_jsonINS_3mapES1_NS_12basic_stringIcNS_11char_traitsIcEENS_9allocatorIcEEEEbxydS9_NS3_14adl_serializerENS1_IhNS9_IhEEEEvEENS9_ISF_EEEEZNSF_6createISH_JEEEPT_DpOT0_EUlPSH_E_EcvbB8ne180100Ev, symObjAddr: 0x12C20, symBinAddr: 0x100013ADC, symSize: 0x34 }
  - { offset: 0x300CE, size: 0x8, addend: 0x0, symName: __ZNSt3__117__compressed_pairIPNS_6vectorIN8nlohmann16json_abi_v3_11_310basic_jsonINS_3mapES1_NS_12basic_stringIcNS_11char_traitsIcEENS_9allocatorIcEEEEbxydS9_NS3_14adl_serializerENS1_IhNS9_IhEEEEvEENS9_ISF_EEEEZNSF_6createISH_JEEEPT_DpOT0_EUlSI_E_E5firstB8ne180100Ev, symObjAddr: 0x12C54, symBinAddr: 0x100013B10, symSize: 0x24 }
  - { offset: 0x300F4, size: 0x8, addend: 0x0, symName: __ZNSt3__110unique_ptrINS_6vectorIN8nlohmann16json_abi_v3_11_310basic_jsonINS_3mapES1_NS_12basic_stringIcNS_11char_traitsIcEENS_9allocatorIcEEEEbxydS9_NS3_14adl_serializerENS1_IhNS9_IhEEEEvEENS9_ISF_EEEEZNSF_6createISH_JEEEPT_DpOT0_EUlPSH_E_ED2B8ne180100Ev, symObjAddr: 0x12C78, symBinAddr: 0x100013B34, symSize: 0x30 }
  - { offset: 0x3011E, size: 0x8, addend: 0x0, symName: __ZNSt3__110unique_ptrINS_6vectorIN8nlohmann16json_abi_v3_11_310basic_jsonINS_3mapES1_NS_12basic_stringIcNS_11char_traitsIcEENS_9allocatorIcEEEEbxydS9_NS3_14adl_serializerENS1_IhNS9_IhEEEEvEENS9_ISF_EEEEZNSF_6createISH_JEEEPT_DpOT0_EUlPSH_E_E5resetB8ne180100ESO_, symObjAddr: 0x12CA8, symBinAddr: 0x100013B64, symSize: 0x80 }
  - { offset: 0x30162, size: 0x8, addend: 0x0, symName: __ZNSt3__117__compressed_pairIPNS_6vectorIN8nlohmann16json_abi_v3_11_310basic_jsonINS_3mapES1_NS_12basic_stringIcNS_11char_traitsIcEENS_9allocatorIcEEEEbxydS9_NS3_14adl_serializerENS1_IhNS9_IhEEEEvEENS9_ISF_EEEEZNSF_6createISH_JEEEPT_DpOT0_EUlSI_E_E6secondB8ne180100Ev, symObjAddr: 0x12D28, symBinAddr: 0x100013BE4, symSize: 0x28 }
  - { offset: 0x3018E, size: 0x8, addend: 0x0, symName: __ZZN8nlohmann16json_abi_v3_11_310basic_jsonINSt3__13mapENS2_6vectorENS2_12basic_stringIcNS2_11char_traitsIcEENS2_9allocatorIcEEEEbxydS8_NS0_14adl_serializerENS4_IhNS8_IhEEEEvE6createINS4_ISE_NS8_ISE_EEEEJEEEPT_DpOT0_ENKUlPSH_E_clESN_, symObjAddr: 0x12D50, symBinAddr: 0x100013C0C, symSize: 0x34 }
  - { offset: 0x301C7, size: 0x8, addend: 0x0, symName: __ZNSt3__122__compressed_pair_elemIZN8nlohmann16json_abi_v3_11_310basic_jsonINS_3mapENS_6vectorENS_12basic_stringIcNS_11char_traitsIcEENS_9allocatorIcEEEEbxydS9_NS2_14adl_serializerENS5_IhNS9_IhEEEEvE6createINS5_ISF_NS9_ISF_EEEEJEEEPT_DpOT0_EUlPSI_E_Li1ELb0EE5__getB8ne180100Ev, symObjAddr: 0x12D84, symBinAddr: 0x100013C40, symSize: 0x14 }
  - { offset: 0x30260, size: 0x8, addend: 0x0, symName: __ZNSt3__110unique_ptrINS_12basic_stringIcNS_11char_traitsIcEENS_9allocatorIcEEEEZN8nlohmann16json_abi_v3_11_310basic_jsonINS_3mapENS_6vectorES6_bxydS4_NS8_14adl_serializerENSB_IhNS4_IhEEEEvE6createIS6_JRA1_KcEEEPT_DpOT0_EUlPS6_E_EC1B8ne180100ILb1EvEESP_NS_16__dependent_typeINS_27__unique_ptr_deleter_sfinaeISQ_EEXT_EE15__lval_ref_typeE, symObjAddr: 0x12D98, symBinAddr: 0x100013C54, symSize: 0x3C }
  - { offset: 0x302B1, size: 0x8, addend: 0x0, symName: __ZNSt3__116allocator_traitsINS_9allocatorINS_12basic_stringIcNS_11char_traitsIcEENS1_IcEEEEEEE9constructB8ne180100IS6_JRA1_KcEvvEEvRS7_PT_DpOT0_, symObjAddr: 0x12DD4, symBinAddr: 0x100013C90, symSize: 0x30 }
  - { offset: 0x30306, size: 0x8, addend: 0x0, symName: __ZNKSt3__110unique_ptrINS_12basic_stringIcNS_11char_traitsIcEENS_9allocatorIcEEEEZN8nlohmann16json_abi_v3_11_310basic_jsonINS_3mapENS_6vectorES6_bxydS4_NS8_14adl_serializerENSB_IhNS4_IhEEEEvE6createIS6_JRA1_KcEEEPT_DpOT0_EUlPS6_E_E3getB8ne180100Ev, symObjAddr: 0x12E04, symBinAddr: 0x100013CC0, symSize: 0x28 }
  - { offset: 0x3032C, size: 0x8, addend: 0x0, symName: __ZNSt3__110unique_ptrINS_12basic_stringIcNS_11char_traitsIcEENS_9allocatorIcEEEEZN8nlohmann16json_abi_v3_11_310basic_jsonINS_3mapENS_6vectorES6_bxydS4_NS8_14adl_serializerENSB_IhNS4_IhEEEEvE6createIS6_JRA1_KcEEEPT_DpOT0_EUlPS6_E_E7releaseB8ne180100Ev, symObjAddr: 0x12E5C, symBinAddr: 0x100013D18, symSize: 0x44 }
  - { offset: 0x30361, size: 0x8, addend: 0x0, symName: __ZNSt3__110unique_ptrINS_12basic_stringIcNS_11char_traitsIcEENS_9allocatorIcEEEEZN8nlohmann16json_abi_v3_11_310basic_jsonINS_3mapENS_6vectorES6_bxydS4_NS8_14adl_serializerENSB_IhNS4_IhEEEEvE6createIS6_JRA1_KcEEEPT_DpOT0_EUlPS6_E_ED1B8ne180100Ev, symObjAddr: 0x12EA0, symBinAddr: 0x100013D5C, symSize: 0x2C }
  - { offset: 0x3038B, size: 0x8, addend: 0x0, symName: __ZNSt3__110unique_ptrINS_12basic_stringIcNS_11char_traitsIcEENS_9allocatorIcEEEEZN8nlohmann16json_abi_v3_11_310basic_jsonINS_3mapENS_6vectorES6_bxydS4_NS8_14adl_serializerENSB_IhNS4_IhEEEEvE6createIS6_JRA1_KcEEEPT_DpOT0_EUlPS6_E_EC2B8ne180100ILb1EvEESP_NS_16__dependent_typeINS_27__unique_ptr_deleter_sfinaeISQ_EEXT_EE15__lval_ref_typeE, symObjAddr: 0x12ECC, symBinAddr: 0x100013D88, symSize: 0x48 }
  - { offset: 0x303DC, size: 0x8, addend: 0x0, symName: __ZNSt3__117__compressed_pairIPNS_12basic_stringIcNS_11char_traitsIcEENS_9allocatorIcEEEEZN8nlohmann16json_abi_v3_11_310basic_jsonINS_3mapENS_6vectorES6_bxydS4_NS9_14adl_serializerENSC_IhNS4_IhEEEEvE6createIS6_JRA1_KcEEEPT_DpOT0_EUlS7_E_EC1B8ne180100IRS7_RKSQ_EEOSL_OT0_, symObjAddr: 0x12F14, symBinAddr: 0x100013DD0, symSize: 0x3C }
  - { offset: 0x30434, size: 0x8, addend: 0x0, symName: __ZNSt3__117__compressed_pairIPNS_12basic_stringIcNS_11char_traitsIcEENS_9allocatorIcEEEEZN8nlohmann16json_abi_v3_11_310basic_jsonINS_3mapENS_6vectorES6_bxydS4_NS9_14adl_serializerENSC_IhNS4_IhEEEEvE6createIS6_JRA1_KcEEEPT_DpOT0_EUlS7_E_EC2B8ne180100IRS7_RKSQ_EEOSL_OT0_, symObjAddr: 0x12F50, symBinAddr: 0x100013E0C, symSize: 0x48 }
  - { offset: 0x3048C, size: 0x8, addend: 0x0, symName: __ZNSt3__122__compressed_pair_elemIZN8nlohmann16json_abi_v3_11_310basic_jsonINS_3mapENS_6vectorENS_12basic_stringIcNS_11char_traitsIcEENS_9allocatorIcEEEEbxydS9_NS2_14adl_serializerENS5_IhNS9_IhEEEEvE6createISB_JRA1_KcEEEPT_DpOT0_EUlPSB_E_Li1ELb0EEC2B8ne180100IRKSQ_vEEOSK_, symObjAddr: 0x12F98, symBinAddr: 0x100013E54, symSize: 0x24 }
  - { offset: 0x304CE, size: 0x8, addend: 0x0, symName: __ZNKSt3__117__compressed_pairIPNS_12basic_stringIcNS_11char_traitsIcEENS_9allocatorIcEEEEZN8nlohmann16json_abi_v3_11_310basic_jsonINS_3mapENS_6vectorES6_bxydS4_NS9_14adl_serializerENSC_IhNS4_IhEEEEvE6createIS6_JRA1_KcEEEPT_DpOT0_EUlS7_E_E5firstB8ne180100Ev, symObjAddr: 0x1301C, symBinAddr: 0x100013ED8, symSize: 0x24 }
  - { offset: 0x304F4, size: 0x8, addend: 0x0, symName: __ZNKSt3__110unique_ptrINS_12basic_stringIcNS_11char_traitsIcEENS_9allocatorIcEEEEZN8nlohmann16json_abi_v3_11_310basic_jsonINS_3mapENS_6vectorES6_bxydS4_NS8_14adl_serializerENSB_IhNS4_IhEEEEvE6createIS6_JRA1_KcEEEPT_DpOT0_EUlPS6_E_EcvbB8ne180100Ev, symObjAddr: 0x13040, symBinAddr: 0x100013EFC, symSize: 0x34 }
  - { offset: 0x3051A, size: 0x8, addend: 0x0, symName: __ZNSt3__117__compressed_pairIPNS_12basic_stringIcNS_11char_traitsIcEENS_9allocatorIcEEEEZN8nlohmann16json_abi_v3_11_310basic_jsonINS_3mapENS_6vectorES6_bxydS4_NS9_14adl_serializerENSC_IhNS4_IhEEEEvE6createIS6_JRA1_KcEEEPT_DpOT0_EUlS7_E_E5firstB8ne180100Ev, symObjAddr: 0x13074, symBinAddr: 0x100013F30, symSize: 0x24 }
  - { offset: 0x30540, size: 0x8, addend: 0x0, symName: __ZNSt3__110unique_ptrINS_12basic_stringIcNS_11char_traitsIcEENS_9allocatorIcEEEEZN8nlohmann16json_abi_v3_11_310basic_jsonINS_3mapENS_6vectorES6_bxydS4_NS8_14adl_serializerENSB_IhNS4_IhEEEEvE6createIS6_JRA1_KcEEEPT_DpOT0_EUlPS6_E_ED2B8ne180100Ev, symObjAddr: 0x13098, symBinAddr: 0x100013F54, symSize: 0x30 }
  - { offset: 0x3056A, size: 0x8, addend: 0x0, symName: __ZNSt3__110unique_ptrINS_12basic_stringIcNS_11char_traitsIcEENS_9allocatorIcEEEEZN8nlohmann16json_abi_v3_11_310basic_jsonINS_3mapENS_6vectorES6_bxydS4_NS8_14adl_serializerENSB_IhNS4_IhEEEEvE6createIS6_JRA1_KcEEEPT_DpOT0_EUlPS6_E_E5resetB8ne180100ESP_, symObjAddr: 0x130C8, symBinAddr: 0x100013F84, symSize: 0x80 }
  - { offset: 0x305AE, size: 0x8, addend: 0x0, symName: __ZNSt3__117__compressed_pairIPNS_12basic_stringIcNS_11char_traitsIcEENS_9allocatorIcEEEEZN8nlohmann16json_abi_v3_11_310basic_jsonINS_3mapENS_6vectorES6_bxydS4_NS9_14adl_serializerENSC_IhNS4_IhEEEEvE6createIS6_JRA1_KcEEEPT_DpOT0_EUlS7_E_E6secondB8ne180100Ev, symObjAddr: 0x13148, symBinAddr: 0x100014004, symSize: 0x28 }
  - { offset: 0x305DA, size: 0x8, addend: 0x0, symName: __ZZN8nlohmann16json_abi_v3_11_310basic_jsonINSt3__13mapENS2_6vectorENS2_12basic_stringIcNS2_11char_traitsIcEENS2_9allocatorIcEEEEbxydS8_NS0_14adl_serializerENS4_IhNS8_IhEEEEvE6createISA_JRA1_KcEEEPT_DpOT0_ENKUlPSA_E_clESO_, symObjAddr: 0x13170, symBinAddr: 0x10001402C, symSize: 0x34 }
  - { offset: 0x30613, size: 0x8, addend: 0x0, symName: __ZNSt3__122__compressed_pair_elemIZN8nlohmann16json_abi_v3_11_310basic_jsonINS_3mapENS_6vectorENS_12basic_stringIcNS_11char_traitsIcEENS_9allocatorIcEEEEbxydS9_NS2_14adl_serializerENS5_IhNS9_IhEEEEvE6createISB_JRA1_KcEEEPT_DpOT0_EUlPSB_E_Li1ELb0EE5__getB8ne180100Ev, symObjAddr: 0x131A4, symBinAddr: 0x100014060, symSize: 0x14 }
  - { offset: 0x306AC, size: 0x8, addend: 0x0, symName: __ZNSt3__110unique_ptrIN8nlohmann16json_abi_v3_11_327byte_container_with_subtypeINS_6vectorIhNS_9allocatorIhEEEEEEZNS2_10basic_jsonINS_3mapES4_NS_12basic_stringIcNS_11char_traitsIcEENS5_IcEEEEbxydS5_NS2_14adl_serializerES7_vE6createIS8_JEEEPT_DpOT0_EUlPS8_E_EC1B8ne180100ILb1EvEESO_NS_16__dependent_typeINS_27__unique_ptr_deleter_sfinaeISP_EEXT_EE15__lval_ref_typeE, symObjAddr: 0x131B8, symBinAddr: 0x100014074, symSize: 0x3C }
  - { offset: 0x306FD, size: 0x8, addend: 0x0, symName: __ZNSt3__116allocator_traitsINS_9allocatorIN8nlohmann16json_abi_v3_11_327byte_container_with_subtypeINS_6vectorIhNS1_IhEEEEEEEEE9constructB8ne180100IS8_JEvvEEvRS9_PT_DpOT0_, symObjAddr: 0x131F4, symBinAddr: 0x1000140B0, symSize: 0x28 }
  - { offset: 0x3073D, size: 0x8, addend: 0x0, symName: __ZNKSt3__110unique_ptrIN8nlohmann16json_abi_v3_11_327byte_container_with_subtypeINS_6vectorIhNS_9allocatorIhEEEEEEZNS2_10basic_jsonINS_3mapES4_NS_12basic_stringIcNS_11char_traitsIcEENS5_IcEEEEbxydS5_NS2_14adl_serializerES7_vE6createIS8_JEEEPT_DpOT0_EUlPS8_E_E3getB8ne180100Ev, symObjAddr: 0x1321C, symBinAddr: 0x1000140D8, symSize: 0x28 }
  - { offset: 0x30763, size: 0x8, addend: 0x0, symName: __ZNSt3__110unique_ptrIN8nlohmann16json_abi_v3_11_327byte_container_with_subtypeINS_6vectorIhNS_9allocatorIhEEEEEEZNS2_10basic_jsonINS_3mapES4_NS_12basic_stringIcNS_11char_traitsIcEENS5_IcEEEEbxydS5_NS2_14adl_serializerES7_vE6createIS8_JEEEPT_DpOT0_EUlPS8_E_E7releaseB8ne180100Ev, symObjAddr: 0x13274, symBinAddr: 0x100014130, symSize: 0x44 }
  - { offset: 0x30798, size: 0x8, addend: 0x0, symName: __ZNSt3__110unique_ptrIN8nlohmann16json_abi_v3_11_327byte_container_with_subtypeINS_6vectorIhNS_9allocatorIhEEEEEEZNS2_10basic_jsonINS_3mapES4_NS_12basic_stringIcNS_11char_traitsIcEENS5_IcEEEEbxydS5_NS2_14adl_serializerES7_vE6createIS8_JEEEPT_DpOT0_EUlPS8_E_ED1B8ne180100Ev, symObjAddr: 0x132B8, symBinAddr: 0x100014174, symSize: 0x2C }
  - { offset: 0x307C2, size: 0x8, addend: 0x0, symName: __ZNSt3__110unique_ptrIN8nlohmann16json_abi_v3_11_327byte_container_with_subtypeINS_6vectorIhNS_9allocatorIhEEEEEEZNS2_10basic_jsonINS_3mapES4_NS_12basic_stringIcNS_11char_traitsIcEENS5_IcEEEEbxydS5_NS2_14adl_serializerES7_vE6createIS8_JEEEPT_DpOT0_EUlPS8_E_EC2B8ne180100ILb1EvEESO_NS_16__dependent_typeINS_27__unique_ptr_deleter_sfinaeISP_EEXT_EE15__lval_ref_typeE, symObjAddr: 0x132E4, symBinAddr: 0x1000141A0, symSize: 0x48 }
  - { offset: 0x30813, size: 0x8, addend: 0x0, symName: __ZNSt3__117__compressed_pairIPN8nlohmann16json_abi_v3_11_327byte_container_with_subtypeINS_6vectorIhNS_9allocatorIhEEEEEEZNS2_10basic_jsonINS_3mapES4_NS_12basic_stringIcNS_11char_traitsIcEENS5_IcEEEEbxydS5_NS2_14adl_serializerES7_vE6createIS8_JEEEPT_DpOT0_EUlS9_E_EC1B8ne180100IRS9_RKSP_EEOSK_OT0_, symObjAddr: 0x1332C, symBinAddr: 0x1000141E8, symSize: 0x3C }
  - { offset: 0x3086B, size: 0x8, addend: 0x0, symName: __ZNSt3__117__compressed_pairIPN8nlohmann16json_abi_v3_11_327byte_container_with_subtypeINS_6vectorIhNS_9allocatorIhEEEEEEZNS2_10basic_jsonINS_3mapES4_NS_12basic_stringIcNS_11char_traitsIcEENS5_IcEEEEbxydS5_NS2_14adl_serializerES7_vE6createIS8_JEEEPT_DpOT0_EUlS9_E_EC2B8ne180100IRS9_RKSP_EEOSK_OT0_, symObjAddr: 0x13368, symBinAddr: 0x100014224, symSize: 0x48 }
  - { offset: 0x308C3, size: 0x8, addend: 0x0, symName: __ZNSt3__122__compressed_pair_elemIZN8nlohmann16json_abi_v3_11_310basic_jsonINS_3mapENS_6vectorENS_12basic_stringIcNS_11char_traitsIcEENS_9allocatorIcEEEEbxydS9_NS2_14adl_serializerENS5_IhNS9_IhEEEEvE6createINS2_27byte_container_with_subtypeISE_EEJEEEPT_DpOT0_EUlPSI_E_Li1ELb0EEC2B8ne180100IRKSP_vEEOSJ_, symObjAddr: 0x133B0, symBinAddr: 0x10001426C, symSize: 0x24 }
  - { offset: 0x30905, size: 0x8, addend: 0x0, symName: __ZN8nlohmann16json_abi_v3_11_327byte_container_with_subtypeINSt3__16vectorIhNS2_9allocatorIhEEEEEC1Ev, symObjAddr: 0x13424, symBinAddr: 0x1000142E0, symSize: 0x2C }
  - { offset: 0x3092F, size: 0x8, addend: 0x0, symName: __ZN8nlohmann16json_abi_v3_11_327byte_container_with_subtypeINSt3__16vectorIhNS2_9allocatorIhEEEEEC2Ev, symObjAddr: 0x13450, symBinAddr: 0x10001430C, symSize: 0x34 }
  - { offset: 0x30959, size: 0x8, addend: 0x0, symName: __ZNSt3__16vectorIhNS_9allocatorIhEEEC2B8ne180100Ev, symObjAddr: 0x13484, symBinAddr: 0x100014340, symSize: 0x4C }
  - { offset: 0x30983, size: 0x8, addend: 0x0, symName: __ZNSt3__117__compressed_pairIPhNS_9allocatorIhEEEC1B8ne180100IDnNS_18__default_init_tagEEEOT_OT0_, symObjAddr: 0x134D0, symBinAddr: 0x10001438C, symSize: 0x3C }
  - { offset: 0x309DB, size: 0x8, addend: 0x0, symName: __ZNSt3__117__compressed_pairIPhNS_9allocatorIhEEEC2B8ne180100IDnNS_18__default_init_tagEEEOT_OT0_, symObjAddr: 0x1350C, symBinAddr: 0x1000143C8, symSize: 0x40 }
  - { offset: 0x30A33, size: 0x8, addend: 0x0, symName: __ZNSt3__122__compressed_pair_elemINS_9allocatorIhEELi1ELb1EEC2B8ne180100ENS_18__default_init_tagE, symObjAddr: 0x1354C, symBinAddr: 0x100014408, symSize: 0x2C }
  - { offset: 0x30A67, size: 0x8, addend: 0x0, symName: __ZNSt3__19allocatorIhEC2B8ne180100Ev, symObjAddr: 0x13578, symBinAddr: 0x100014434, symSize: 0x2C }
  - { offset: 0x30A91, size: 0x8, addend: 0x0, symName: __ZNSt3__116__non_trivial_ifILb1ENS_9allocatorIhEEEC2B8ne180100Ev, symObjAddr: 0x135A4, symBinAddr: 0x100014460, symSize: 0x14 }
  - { offset: 0x30ABB, size: 0x8, addend: 0x0, symName: __ZNKSt3__117__compressed_pairIPN8nlohmann16json_abi_v3_11_327byte_container_with_subtypeINS_6vectorIhNS_9allocatorIhEEEEEEZNS2_10basic_jsonINS_3mapES4_NS_12basic_stringIcNS_11char_traitsIcEENS5_IcEEEEbxydS5_NS2_14adl_serializerES7_vE6createIS8_JEEEPT_DpOT0_EUlS9_E_E5firstB8ne180100Ev, symObjAddr: 0x135B8, symBinAddr: 0x100014474, symSize: 0x24 }
  - { offset: 0x30AE1, size: 0x8, addend: 0x0, symName: __ZNKSt3__110unique_ptrIN8nlohmann16json_abi_v3_11_327byte_container_with_subtypeINS_6vectorIhNS_9allocatorIhEEEEEEZNS2_10basic_jsonINS_3mapES4_NS_12basic_stringIcNS_11char_traitsIcEENS5_IcEEEEbxydS5_NS2_14adl_serializerES7_vE6createIS8_JEEEPT_DpOT0_EUlPS8_E_EcvbB8ne180100Ev, symObjAddr: 0x135DC, symBinAddr: 0x100014498, symSize: 0x34 }
  - { offset: 0x30B07, size: 0x8, addend: 0x0, symName: __ZNSt3__117__compressed_pairIPN8nlohmann16json_abi_v3_11_327byte_container_with_subtypeINS_6vectorIhNS_9allocatorIhEEEEEEZNS2_10basic_jsonINS_3mapES4_NS_12basic_stringIcNS_11char_traitsIcEENS5_IcEEEEbxydS5_NS2_14adl_serializerES7_vE6createIS8_JEEEPT_DpOT0_EUlS9_E_E5firstB8ne180100Ev, symObjAddr: 0x13610, symBinAddr: 0x1000144CC, symSize: 0x24 }
  - { offset: 0x30B2D, size: 0x8, addend: 0x0, symName: __ZNSt3__110unique_ptrIN8nlohmann16json_abi_v3_11_327byte_container_with_subtypeINS_6vectorIhNS_9allocatorIhEEEEEEZNS2_10basic_jsonINS_3mapES4_NS_12basic_stringIcNS_11char_traitsIcEENS5_IcEEEEbxydS5_NS2_14adl_serializerES7_vE6createIS8_JEEEPT_DpOT0_EUlPS8_E_ED2B8ne180100Ev, symObjAddr: 0x13634, symBinAddr: 0x1000144F0, symSize: 0x30 }
  - { offset: 0x30B57, size: 0x8, addend: 0x0, symName: __ZNSt3__110unique_ptrIN8nlohmann16json_abi_v3_11_327byte_container_with_subtypeINS_6vectorIhNS_9allocatorIhEEEEEEZNS2_10basic_jsonINS_3mapES4_NS_12basic_stringIcNS_11char_traitsIcEENS5_IcEEEEbxydS5_NS2_14adl_serializerES7_vE6createIS8_JEEEPT_DpOT0_EUlPS8_E_E5resetB8ne180100ESO_, symObjAddr: 0x13664, symBinAddr: 0x100014520, symSize: 0x80 }
  - { offset: 0x30B9B, size: 0x8, addend: 0x0, symName: __ZNSt3__117__compressed_pairIPN8nlohmann16json_abi_v3_11_327byte_container_with_subtypeINS_6vectorIhNS_9allocatorIhEEEEEEZNS2_10basic_jsonINS_3mapES4_NS_12basic_stringIcNS_11char_traitsIcEENS5_IcEEEEbxydS5_NS2_14adl_serializerES7_vE6createIS8_JEEEPT_DpOT0_EUlS9_E_E6secondB8ne180100Ev, symObjAddr: 0x136E4, symBinAddr: 0x1000145A0, symSize: 0x28 }
  - { offset: 0x30BC7, size: 0x8, addend: 0x0, symName: __ZZN8nlohmann16json_abi_v3_11_310basic_jsonINSt3__13mapENS2_6vectorENS2_12basic_stringIcNS2_11char_traitsIcEENS2_9allocatorIcEEEEbxydS8_NS0_14adl_serializerENS4_IhNS8_IhEEEEvE6createINS0_27byte_container_with_subtypeISD_EEJEEEPT_DpOT0_ENKUlPSH_E_clESN_, symObjAddr: 0x1370C, symBinAddr: 0x1000145C8, symSize: 0x34 }
  - { offset: 0x30C00, size: 0x8, addend: 0x0, symName: __ZNSt3__122__compressed_pair_elemIZN8nlohmann16json_abi_v3_11_310basic_jsonINS_3mapENS_6vectorENS_12basic_stringIcNS_11char_traitsIcEENS_9allocatorIcEEEEbxydS9_NS2_14adl_serializerENS5_IhNS9_IhEEEEvE6createINS2_27byte_container_with_subtypeISE_EEJEEEPT_DpOT0_EUlPSI_E_Li1ELb0EE5__getB8ne180100Ev, symObjAddr: 0x13740, symBinAddr: 0x1000145FC, symSize: 0x14 }
  - { offset: 0x30C26, size: 0x8, addend: 0x0, symName: __ZN8nlohmann16json_abi_v3_11_36detail9exception11diagnosticsEDn, symObjAddr: 0x13754, symBinAddr: 0x100014610, symSize: 0x3C }
  - { offset: 0x30C45, size: 0x8, addend: 0x0, symName: __ZN8nlohmann16json_abi_v3_11_36detail11other_errorC1EiPKc, symObjAddr: 0x13790, symBinAddr: 0x10001464C, symSize: 0x3C }
  - { offset: 0x30C8B, size: 0x8, addend: 0x0, symName: __ZN8nlohmann16json_abi_v3_11_36detail11other_errorC2EiPKc, symObjAddr: 0x137CC, symBinAddr: 0x100014688, symSize: 0x4C }
  - { offset: 0x30CD1, size: 0x8, addend: 0x0, symName: __ZN8nlohmann16json_abi_v3_11_36detail11other_errorD0Ev, symObjAddr: 0x13818, symBinAddr: 0x1000146D4, symSize: 0x30 }
  - { offset: 0x30CFD, size: 0x8, addend: 0x0, symName: __ZN8nlohmann16json_abi_v3_11_36detail11other_errorD2Ev, symObjAddr: 0x13848, symBinAddr: 0x100014704, symSize: 0x2C }
  - { offset: 0x30D29, size: 0x8, addend: 0x0, symName: __ZNSt3__14pairINS_14__map_iteratorINS_15__tree_iteratorINS_12__value_typeINS_12basic_stringIcNS_11char_traitsIcEENS_9allocatorIcEEEEN8nlohmann16json_abi_v3_11_310basic_jsonINS_3mapENS_6vectorES9_bxydS7_NSB_14adl_serializerENSE_IhNS7_IhEEEEvEEEEPNS_11__tree_nodeISJ_PvEElEEEEbEC2B8ne180100ISO_bLi0EEEONS0_IT_T0_EE, symObjAddr: 0x13874, symBinAddr: 0x100014730, symSize: 0x50 }
  - { offset: 0x30D79, size: 0x8, addend: 0x0, symName: __ZN8nlohmann16json_abi_v3_11_36detail10type_errorC1EiPKc, symObjAddr: 0x138C4, symBinAddr: 0x100014780, symSize: 0x3C }
  - { offset: 0x30DBF, size: 0x8, addend: 0x0, symName: __ZN8nlohmann16json_abi_v3_11_36detail10type_errorC2EiPKc, symObjAddr: 0x13900, symBinAddr: 0x1000147BC, symSize: 0x4C }
  - { offset: 0x30E05, size: 0x8, addend: 0x0, symName: __ZN8nlohmann16json_abi_v3_11_36detail10type_errorD0Ev, symObjAddr: 0x1394C, symBinAddr: 0x100014808, symSize: 0x30 }
  - { offset: 0x30E31, size: 0x8, addend: 0x0, symName: __ZN8nlohmann16json_abi_v3_11_36detail10type_errorD2Ev, symObjAddr: 0x13A34, symBinAddr: 0x1000148F0, symSize: 0x2C }
  - { offset: 0x30E5D, size: 0x8, addend: 0x0, symName: __ZNK8nlohmann16json_abi_v3_11_310basic_jsonINSt3__13mapENS2_6vectorENS2_12basic_stringIcNS2_11char_traitsIcEENS2_9allocatorIcEEEEbxydS8_NS0_14adl_serializerENS4_IhNS8_IhEEEEvE8get_implISA_Li0EEET_NS0_6detail12priority_tagILj0EEE, symObjAddr: 0x13A60, symBinAddr: 0x10001491C, symSize: 0xA8 }
  - { offset: 0x30EAE, size: 0x8, addend: 0x0, symName: __ZN8nlohmann16json_abi_v3_11_314adl_serializerINSt3__112basic_stringIcNS2_11char_traitsIcEENS2_9allocatorIcEEEEvE9from_jsonIRKNS0_10basic_jsonINS2_3mapENS2_6vectorES8_bxydS6_S1_NSD_IhNS6_IhEEEEvEES8_EEDTcmclL_ZNS0_9from_jsonEEclsr3stdE7forwardIT_Efp_Efp0_Ecvv_EEOSJ_RT0_, symObjAddr: 0x13B08, symBinAddr: 0x1000149C4, symSize: 0x34 }
  - { offset: 0x30EF7, size: 0x8, addend: 0x0, symName: __ZNK8nlohmann16json_abi_v3_11_36detail12from_json_fnclINS0_10basic_jsonINSt3__13mapENS5_6vectorENS5_12basic_stringIcNS5_11char_traitsIcEENS5_9allocatorIcEEEEbxydSB_NS0_14adl_serializerENS7_IhNSB_IhEEEEvEERSD_EEDTcl9from_jsonfp_clsr3stdE7forwardIT0_Efp0_EEERKT_OSJ_, symObjAddr: 0x13B3C, symBinAddr: 0x1000149F8, symSize: 0x30 }
  - { offset: 0x30F4D, size: 0x8, addend: 0x0, symName: __ZNK8nlohmann16json_abi_v3_11_310basic_jsonINSt3__13mapENS2_6vectorENS2_12basic_stringIcNS2_11char_traitsIcEENS2_9allocatorIcEEEEbxydS8_NS0_14adl_serializerENS4_IhNS8_IhEEEEvE9is_stringEv, symObjAddr: 0x13C84, symBinAddr: 0x100014B40, symSize: 0x24 }
  - { offset: 0x30F73, size: 0x8, addend: 0x0, symName: __ZN8nlohmann16json_abi_v3_11_36detail10type_error6createIPKNS0_10basic_jsonINSt3__13mapENS5_6vectorENS5_12basic_stringIcNS5_11char_traitsIcEENS5_9allocatorIcEEEEbxydSB_NS0_14adl_serializerENS7_IhNSB_IhEEEEvEELi0EEES2_iRKSD_T_, symObjAddr: 0x13CA8, symBinAddr: 0x100014B64, symSize: 0x130 }
  - { offset: 0x30FCF, size: 0x8, addend: 0x0, symName: __ZNK8nlohmann16json_abi_v3_11_310basic_jsonINSt3__13mapENS2_6vectorENS2_12basic_stringIcNS2_11char_traitsIcEENS2_9allocatorIcEEEEbxydS8_NS0_14adl_serializerENS4_IhNS8_IhEEEEvE7get_ptrIPKSA_Li0EEEDTcldtclL_ZNS2_7declvalB8ne180100IRKSE_EEDTclsr3stdE9__declvalIT_ELi0EEEvEE12get_impl_ptrclsr3stdE7declvalISL_EEEEv, symObjAddr: 0x13E9C, symBinAddr: 0x100014D58, symSize: 0x28 }
  - { offset: 0x31004, size: 0x8, addend: 0x0, symName: __ZNK8nlohmann16json_abi_v3_11_310basic_jsonINSt3__13mapENS2_6vectorENS2_12basic_stringIcNS2_11char_traitsIcEENS2_9allocatorIcEEEEbxydS8_NS0_14adl_serializerENS4_IhNS8_IhEEEEvE12get_impl_ptrEPKSA_, symObjAddr: 0x13F00, symBinAddr: 0x100014DBC, symSize: 0x54 }
  - { offset: 0x31036, size: 0x8, addend: 0x0, symName: __ZN8nlohmann16json_abi_v3_11_36detail9iter_implIKNS0_10basic_jsonINSt3__13mapENS4_6vectorENS4_12basic_stringIcNS4_11char_traitsIcEENS4_9allocatorIcEEEEbxydSA_NS0_14adl_serializerENS6_IhNSA_IhEEEEvEEEppEv, symObjAddr: 0x13F54, symBinAddr: 0x100014E10, symSize: 0xE0 }
  - { offset: 0x3105C, size: 0x8, addend: 0x0, symName: __ZN8nlohmann16json_abi_v3_11_36detail20primitive_iterator_tppEv, symObjAddr: 0x140DC, symBinAddr: 0x100014F98, symSize: 0x20 }
  - { offset: 0x31082, size: 0x8, addend: 0x0, symName: __ZNSt3__114__map_iteratorINS_15__tree_iteratorINS_12__value_typeINS_12basic_stringIcNS_11char_traitsIcEENS_9allocatorIcEEEEN8nlohmann16json_abi_v3_11_310basic_jsonINS_3mapENS_6vectorES8_bxydS6_NSA_14adl_serializerENSD_IhNS6_IhEEEEvEEEEPNS_11__tree_nodeISI_PvEElEEEmmB8ne180100Ev, symObjAddr: 0x141B4, symBinAddr: 0x100015070, symSize: 0x2C }
  - { offset: 0x310A8, size: 0x8, addend: 0x0, symName: __ZNSt3__115__tree_iteratorINS_12__value_typeINS_12basic_stringIcNS_11char_traitsIcEENS_9allocatorIcEEEEN8nlohmann16json_abi_v3_11_310basic_jsonINS_3mapENS_6vectorES7_bxydS5_NS9_14adl_serializerENSC_IhNS5_IhEEEEvEEEEPNS_11__tree_nodeISH_PvEElEmmB8ne180100Ev, symObjAddr: 0x141E0, symBinAddr: 0x10001509C, symSize: 0x38 }
  - { offset: 0x310CE, size: 0x8, addend: 0x0, symName: __ZN8nlohmann16json_abi_v3_11_36detail21iteration_proxy_valueINS1_9iter_implIKNS0_10basic_jsonINSt3__13mapENS5_6vectorENS5_12basic_stringIcNS5_11char_traitsIcEENS5_9allocatorIcEEEEbxydSB_NS0_14adl_serializerENS7_IhNSB_IhEEEEvEEEEED2Ev, symObjAddr: 0x14244, symBinAddr: 0x100015100, symSize: 0x3C }
  - { offset: 0x310F8, size: 0x8, addend: 0x0, symName: __ZN2AV5Stock13WriteCallbackEPvmmPNSt3__112basic_stringIcNS2_11char_traitsIcEENS2_9allocatorIcEEEE, symObjAddr: 0x14280, symBinAddr: 0x10001513C, symSize: 0x4C }
  - { offset: 0x31153, size: 0x8, addend: 0x0, symName: __ZN8nlohmann16json_abi_v3_11_310basic_jsonINSt3__13mapENS2_6vectorENS2_12basic_stringIcNS2_11char_traitsIcEENS2_9allocatorIcEEEEbxydS8_NS0_14adl_serializerENS4_IhNS8_IhEEEEvEC1IRA1_KcA1_cLi0EEEOT_, symObjAddr: 0x142CC, symBinAddr: 0x100015188, symSize: 0x34 }
  - { offset: 0x311A4, size: 0x8, addend: 0x0, symName: __ZN8nlohmann16json_abi_v3_11_310basic_jsonINSt3__13mapENS2_6vectorENS2_12basic_stringIcNS2_11char_traitsIcEENS2_9allocatorIcEEEEbxydS8_NS0_14adl_serializerENS4_IhNS8_IhEEEEvE5parseIRSA_EESE_OT_NS2_8functionIFbiNS0_6detail13parse_event_tERSE_EEEbb, symObjAddr: 0x14300, symBinAddr: 0x1000151BC, symSize: 0x1A4 }
  - { offset: 0x31214, size: 0x8, addend: 0x0, symName: __ZNSt3__18functionIFbiN8nlohmann16json_abi_v3_11_36detail13parse_event_tERNS2_10basic_jsonINS_3mapENS_6vectorENS_12basic_stringIcNS_11char_traitsIcEENS_9allocatorIcEEEEbxydSB_NS2_14adl_serializerENS7_IhNSB_IhEEEEvEEEEC1B8ne180100EDn, symObjAddr: 0x144A4, symBinAddr: 0x100015360, symSize: 0x34 }
  - { offset: 0x3124A, size: 0x8, addend: 0x0, symName: __ZNSt3__18functionIFbiN8nlohmann16json_abi_v3_11_36detail13parse_event_tERNS2_10basic_jsonINS_3mapENS_6vectorENS_12basic_stringIcNS_11char_traitsIcEENS_9allocatorIcEEEEbxydSB_NS2_14adl_serializerENS7_IhNSB_IhEEEEvEEEED1Ev, symObjAddr: 0x144D8, symBinAddr: 0x100015394, symSize: 0x2C }
  - { offset: 0x31276, size: 0x8, addend: 0x0, symName: __ZN8nlohmann16json_abi_v3_11_310basic_jsonINSt3__13mapENS2_6vectorENS2_12basic_stringIcNS2_11char_traitsIcEENS2_9allocatorIcEEEEbxydS8_NS0_14adl_serializerENS4_IhNS8_IhEEEEvE5itemsEv, symObjAddr: 0x14504, symBinAddr: 0x1000153C0, symSize: 0x2C }
  - { offset: 0x3129C, size: 0x8, addend: 0x0, symName: __ZNK8nlohmann16json_abi_v3_11_36detail15iteration_proxyINS1_9iter_implINS0_10basic_jsonINSt3__13mapENS5_6vectorENS5_12basic_stringIcNS5_11char_traitsIcEENS5_9allocatorIcEEEEbxydSB_NS0_14adl_serializerENS7_IhNSB_IhEEEEvEEEEE5beginEv, symObjAddr: 0x14530, symBinAddr: 0x1000153EC, symSize: 0x48 }
  - { offset: 0x312C2, size: 0x8, addend: 0x0, symName: __ZNK8nlohmann16json_abi_v3_11_36detail15iteration_proxyINS1_9iter_implINS0_10basic_jsonINSt3__13mapENS5_6vectorENS5_12basic_stringIcNS5_11char_traitsIcEENS5_9allocatorIcEEEEbxydSB_NS0_14adl_serializerENS7_IhNSB_IhEEEEvEEEEE3endEv, symObjAddr: 0x14578, symBinAddr: 0x100015434, symSize: 0x48 }
  - { offset: 0x312E8, size: 0x8, addend: 0x0, symName: __ZNK8nlohmann16json_abi_v3_11_36detail21iteration_proxy_valueINS1_9iter_implINS0_10basic_jsonINSt3__13mapENS5_6vectorENS5_12basic_stringIcNS5_11char_traitsIcEENS5_9allocatorIcEEEEbxydSB_NS0_14adl_serializerENS7_IhNSB_IhEEEEvEEEEEneERKSJ_, symObjAddr: 0x145C0, symBinAddr: 0x10001547C, symSize: 0x30 }
  - { offset: 0x3131C, size: 0x8, addend: 0x0, symName: __ZNK8nlohmann16json_abi_v3_11_36detail21iteration_proxy_valueINS1_9iter_implINS0_10basic_jsonINSt3__13mapENS5_6vectorENS5_12basic_stringIcNS5_11char_traitsIcEENS5_9allocatorIcEEEEbxydSB_NS0_14adl_serializerENS7_IhNSB_IhEEEEvEEEEEdeEv, symObjAddr: 0x145F0, symBinAddr: 0x1000154AC, symSize: 0x14 }
  - { offset: 0x31342, size: 0x8, addend: 0x0, symName: __ZNK8nlohmann16json_abi_v3_11_36detail21iteration_proxy_valueINS1_9iter_implINS0_10basic_jsonINSt3__13mapENS5_6vectorENS5_12basic_stringIcNS5_11char_traitsIcEENS5_9allocatorIcEEEEbxydSB_NS0_14adl_serializerENS7_IhNSB_IhEEEEvEEEEE5valueEv, symObjAddr: 0x14604, symBinAddr: 0x1000154C0, symSize: 0x24 }
  - { offset: 0x31381, size: 0x8, addend: 0x0, symName: __ZNK8nlohmann16json_abi_v3_11_310basic_jsonINSt3__13mapENS2_6vectorENS2_12basic_stringIcNS2_11char_traitsIcEENS2_9allocatorIcEEEEbxydS8_NS0_14adl_serializerENS4_IhNS8_IhEEEEvE8containsIRA8_KcLi0EEEbOT_, symObjAddr: 0x14628, symBinAddr: 0x1000154E4, symSize: 0x88 }
  - { offset: 0x313C5, size: 0x8, addend: 0x0, symName: __ZNK8nlohmann16json_abi_v3_11_36detail21iteration_proxy_valueINS1_9iter_implINS0_10basic_jsonINSt3__13mapENS5_6vectorENS5_12basic_stringIcNS5_11char_traitsIcEENS5_9allocatorIcEEEEbxydSB_NS0_14adl_serializerENS7_IhNSB_IhEEEEvEEEEE3keyEv, symObjAddr: 0x146B0, symBinAddr: 0x10001556C, symSize: 0x114 }
  - { offset: 0x313EB, size: 0x8, addend: 0x0, symName: __ZN8nlohmann16json_abi_v3_11_310basic_jsonINSt3__13mapENS2_6vectorENS2_12basic_stringIcNS2_11char_traitsIcEENS2_9allocatorIcEEEEbxydS8_NS0_14adl_serializerENS4_IhNS8_IhEEEEvEaSESE_, symObjAddr: 0x147EC, symBinAddr: 0x1000156A8, symSize: 0x80 }
  - { offset: 0x31421, size: 0x8, addend: 0x0, symName: __ZN8nlohmann16json_abi_v3_11_310basic_jsonINSt3__13mapENS2_6vectorENS2_12basic_stringIcNS2_11char_traitsIcEENS2_9allocatorIcEEEEbxydS8_NS0_14adl_serializerENS4_IhNS8_IhEEEEvE5eraseIRA8_KcLi0EEEmOT_, symObjAddr: 0x1486C, symBinAddr: 0x100015728, symSize: 0x2C }
  - { offset: 0x3147E, size: 0x8, addend: 0x0, symName: __ZNK8nlohmann16json_abi_v3_11_310basic_jsonINSt3__13mapENS2_6vectorENS2_12basic_stringIcNS2_11char_traitsIcEENS2_9allocatorIcEEEEbxydS8_NS0_14adl_serializerENS4_IhNS8_IhEEEEvE8containsIRA7_KcLi0EEEbOT_, symObjAddr: 0x14898, symBinAddr: 0x100015754, symSize: 0x88 }
  - { offset: 0x314C2, size: 0x8, addend: 0x0, symName: __ZN8nlohmann16json_abi_v3_11_310basic_jsonINSt3__13mapENS2_6vectorENS2_12basic_stringIcNS2_11char_traitsIcEENS2_9allocatorIcEEEEbxydS8_NS0_14adl_serializerENS4_IhNS8_IhEEEEvE5eraseIRA7_KcLi0EEEmOT_, symObjAddr: 0x14920, symBinAddr: 0x1000157DC, symSize: 0x2C }
  - { offset: 0x3151F, size: 0x8, addend: 0x0, symName: __ZNK8nlohmann16json_abi_v3_11_310basic_jsonINSt3__13mapENS2_6vectorENS2_12basic_stringIcNS2_11char_traitsIcEENS2_9allocatorIcEEEEbxydS8_NS0_14adl_serializerENS4_IhNS8_IhEEEEvE8containsIRA9_KcLi0EEEbOT_, symObjAddr: 0x1494C, symBinAddr: 0x100015808, symSize: 0x88 }
  - { offset: 0x31563, size: 0x8, addend: 0x0, symName: __ZN8nlohmann16json_abi_v3_11_310basic_jsonINSt3__13mapENS2_6vectorENS2_12basic_stringIcNS2_11char_traitsIcEENS2_9allocatorIcEEEEbxydS8_NS0_14adl_serializerENS4_IhNS8_IhEEEEvE5eraseIRA9_KcLi0EEEmOT_, symObjAddr: 0x149D4, symBinAddr: 0x100015890, symSize: 0x2C }
  - { offset: 0x315C0, size: 0x8, addend: 0x0, symName: __ZNK8nlohmann16json_abi_v3_11_310basic_jsonINSt3__13mapENS2_6vectorENS2_12basic_stringIcNS2_11char_traitsIcEENS2_9allocatorIcEEEEbxydS8_NS0_14adl_serializerENS4_IhNS8_IhEEEEvE8containsIRA10_KcLi0EEEbOT_, symObjAddr: 0x14A00, symBinAddr: 0x1000158BC, symSize: 0x88 }
  - { offset: 0x31604, size: 0x8, addend: 0x0, symName: __ZN8nlohmann16json_abi_v3_11_310basic_jsonINSt3__13mapENS2_6vectorENS2_12basic_stringIcNS2_11char_traitsIcEENS2_9allocatorIcEEEEbxydS8_NS0_14adl_serializerENS4_IhNS8_IhEEEEvE5eraseIRA10_KcLi0EEEmOT_, symObjAddr: 0x14A88, symBinAddr: 0x100015944, symSize: 0x2C }
  - { offset: 0x31648, size: 0x8, addend: 0x0, symName: __ZN8nlohmann16json_abi_v3_11_36detail21iteration_proxy_valueINS1_9iter_implINS0_10basic_jsonINSt3__13mapENS5_6vectorENS5_12basic_stringIcNS5_11char_traitsIcEENS5_9allocatorIcEEEEbxydSB_NS0_14adl_serializerENS7_IhNSB_IhEEEEvEEEEEppEv, symObjAddr: 0x14AB4, symBinAddr: 0x100015970, symSize: 0x38 }
  - { offset: 0x3166E, size: 0x8, addend: 0x0, symName: __ZN8nlohmann16json_abi_v3_11_36detail21iteration_proxy_valueINS1_9iter_implINS0_10basic_jsonINSt3__13mapENS5_6vectorENS5_12basic_stringIcNS5_11char_traitsIcEENS5_9allocatorIcEEEEbxydSB_NS0_14adl_serializerENS7_IhNSB_IhEEEEvEEEEED1Ev, symObjAddr: 0x14AEC, symBinAddr: 0x1000159A8, symSize: 0x2C }
  - { offset: 0x31698, size: 0x8, addend: 0x0, symName: __ZN8nlohmann16json_abi_v3_11_310basic_jsonINSt3__13mapENS2_6vectorENS2_12basic_stringIcNS2_11char_traitsIcEENS2_9allocatorIcEEEEbxydS8_NS0_14adl_serializerENS4_IhNS8_IhEEEEvEC2IRA1_KcA1_cLi0EEEOT_, symObjAddr: 0x14B18, symBinAddr: 0x1000159D4, symSize: 0x84 }
  - { offset: 0x316E9, size: 0x8, addend: 0x0, symName: __ZN8nlohmann16json_abi_v3_11_314adl_serializerIA1_cvE7to_jsonINS0_10basic_jsonINSt3__13mapENS6_6vectorENS6_12basic_stringIcNS6_11char_traitsIcEENS6_9allocatorIcEEEEbxydSC_S1_NS8_IhNSC_IhEEEEvEERA1_KcEEDTcmclL_ZNS0_7to_jsonEEfp_clsr3stdE7forwardIT0_Efp0_EEcvv_EERT_OSL_, symObjAddr: 0x14B9C, symBinAddr: 0x100015A58, symSize: 0x34 }
  - { offset: 0x31732, size: 0x8, addend: 0x0, symName: __ZNK8nlohmann16json_abi_v3_11_36detail10to_json_fnclINS0_10basic_jsonINSt3__13mapENS5_6vectorENS5_12basic_stringIcNS5_11char_traitsIcEENS5_9allocatorIcEEEEbxydSB_NS0_14adl_serializerENS7_IhNSB_IhEEEEvEERA1_KcEEDTcmcl7to_jsonfp_clsr3stdE7forwardIT0_Efp0_EEcvv_EERT_OSL_, symObjAddr: 0x14BD0, symBinAddr: 0x100015A8C, symSize: 0x30 }
  - { offset: 0x31788, size: 0x8, addend: 0x0, symName: __ZN8nlohmann16json_abi_v3_11_36detail20external_constructorILNS1_7value_tE3EE9constructINS0_10basic_jsonINSt3__13mapENS7_6vectorENS7_12basic_stringIcNS7_11char_traitsIcEENS7_9allocatorIcEEEEbxydSD_NS0_14adl_serializerENS9_IhNSD_IhEEEEvEEA1_cLi0EEEvRT_RKT0_, symObjAddr: 0x14C2C, symBinAddr: 0x100015AE8, symSize: 0x60 }
  - { offset: 0x317E1, size: 0x8, addend: 0x0, symName: __ZN8nlohmann16json_abi_v3_11_310basic_jsonINSt3__13mapENS2_6vectorENS2_12basic_stringIcNS2_11char_traitsIcEENS2_9allocatorIcEEEEbxydS8_NS0_14adl_serializerENS4_IhNS8_IhEEEEvE6parserINS0_6detail22iterator_input_adapterINS2_11__wrap_iterIPKcEEEEEENSG_6parserISE_T_EESO_NS2_8functionIFbiNSG_13parse_event_tERSE_EEEbb, symObjAddr: 0x14C8C, symBinAddr: 0x100015B48, symSize: 0xE4 }
  - { offset: 0x31839, size: 0x8, addend: 0x0, symName: __ZNSt3__18functionIFbiN8nlohmann16json_abi_v3_11_36detail13parse_event_tERNS2_10basic_jsonINS_3mapENS_6vectorENS_12basic_stringIcNS_11char_traitsIcEENS_9allocatorIcEEEEbxydSB_NS2_14adl_serializerENS7_IhNSB_IhEEEEvEEEEC1ERKSK_, symObjAddr: 0x14DA4, symBinAddr: 0x100015C60, symSize: 0x34 }
  - { offset: 0x31874, size: 0x8, addend: 0x0, symName: __ZN8nlohmann16json_abi_v3_11_36detail6parserINS0_10basic_jsonINSt3__13mapENS4_6vectorENS4_12basic_stringIcNS4_11char_traitsIcEENS4_9allocatorIcEEEEbxydSA_NS0_14adl_serializerENS6_IhNSA_IhEEEEvEENS1_22iterator_input_adapterINS4_11__wrap_iterIPKcEEEEE5parseEbRSG_, symObjAddr: 0x14DD8, symBinAddr: 0x100015C94, symSize: 0x578 }
  - { offset: 0x318EC, size: 0x8, addend: 0x0, symName: __ZN8nlohmann16json_abi_v3_11_36detail6parserINS0_10basic_jsonINSt3__13mapENS4_6vectorENS4_12basic_stringIcNS4_11char_traitsIcEENS4_9allocatorIcEEEEbxydSA_NS0_14adl_serializerENS6_IhNSA_IhEEEEvEENS1_22iterator_input_adapterINS4_11__wrap_iterIPKcEEEEED1Ev, symObjAddr: 0x15350, symBinAddr: 0x10001620C, symSize: 0x2C }
  - { offset: 0x31918, size: 0x8, addend: 0x0, symName: __ZNSt3__18functionIFbiN8nlohmann16json_abi_v3_11_36detail13parse_event_tERNS2_10basic_jsonINS_3mapENS_6vectorENS_12basic_stringIcNS_11char_traitsIcEENS_9allocatorIcEEEEbxydSB_NS2_14adl_serializerENS7_IhNSB_IhEEEEvEEEEC1EOSK_, symObjAddr: 0x1537C, symBinAddr: 0x100016238, symSize: 0x34 }
  - { offset: 0x31953, size: 0x8, addend: 0x0, symName: __ZN8nlohmann16json_abi_v3_11_36detail6parserINS0_10basic_jsonINSt3__13mapENS4_6vectorENS4_12basic_stringIcNS4_11char_traitsIcEENS4_9allocatorIcEEEEbxydSA_NS0_14adl_serializerENS6_IhNSA_IhEEEEvEENS1_22iterator_input_adapterINS4_11__wrap_iterIPKcEEEEEC1EOSM_NS4_8functionIFbiNS1_13parse_event_tERSG_EEEbb, symObjAddr: 0x153B0, symBinAddr: 0x10001626C, symSize: 0x60 }
  - { offset: 0x319B6, size: 0x8, addend: 0x0, symName: __ZNSt3__18functionIFbiN8nlohmann16json_abi_v3_11_36detail13parse_event_tERNS2_10basic_jsonINS_3mapENS_6vectorENS_12basic_stringIcNS_11char_traitsIcEENS_9allocatorIcEEEEbxydSB_NS2_14adl_serializerENS7_IhNSB_IhEEEEvEEEEC2EOSK_, symObjAddr: 0x15410, symBinAddr: 0x1000162CC, symSize: 0x34 }
  - { offset: 0x319F1, size: 0x8, addend: 0x0, symName: __ZNSt3__110__function12__value_funcIFbiN8nlohmann16json_abi_v3_11_36detail13parse_event_tERNS3_10basic_jsonINS_3mapENS_6vectorENS_12basic_stringIcNS_11char_traitsIcEENS_9allocatorIcEEEEbxydSC_NS3_14adl_serializerENS8_IhNSC_IhEEEEvEEEEC1B8ne180100EOSL_, symObjAddr: 0x15444, symBinAddr: 0x100016300, symSize: 0x34 }
  - { offset: 0x31A2A, size: 0x8, addend: 0x0, symName: __ZNSt3__110__function12__value_funcIFbiN8nlohmann16json_abi_v3_11_36detail13parse_event_tERNS3_10basic_jsonINS_3mapENS_6vectorENS_12basic_stringIcNS_11char_traitsIcEENS_9allocatorIcEEEEbxydSC_NS3_14adl_serializerENS8_IhNSC_IhEEEEvEEEEC2B8ne180100EOSL_, symObjAddr: 0x15478, symBinAddr: 0x100016334, symSize: 0xD0 }
  - { offset: 0x31A63, size: 0x8, addend: 0x0, symName: __ZNSt3__110__function12__value_funcIFbiN8nlohmann16json_abi_v3_11_36detail13parse_event_tERNS3_10basic_jsonINS_3mapENS_6vectorENS_12basic_stringIcNS_11char_traitsIcEENS_9allocatorIcEEEEbxydSC_NS3_14adl_serializerENS8_IhNSC_IhEEEEvEEEE9__as_baseB8ne180100EPv, symObjAddr: 0x15548, symBinAddr: 0x100016404, symSize: 0x14 }
  - { offset: 0x31A87, size: 0x8, addend: 0x0, symName: __ZN8nlohmann16json_abi_v3_11_36detail6parserINS0_10basic_jsonINSt3__13mapENS4_6vectorENS4_12basic_stringIcNS4_11char_traitsIcEENS4_9allocatorIcEEEEbxydSA_NS0_14adl_serializerENS6_IhNSA_IhEEEEvEENS1_22iterator_input_adapterINS4_11__wrap_iterIPKcEEEEEC2EOSM_NS4_8functionIFbiNS1_13parse_event_tERSG_EEEbb, symObjAddr: 0x1555C, symBinAddr: 0x100016418, symSize: 0xBC }
  - { offset: 0x31AEA, size: 0x8, addend: 0x0, symName: __ZN8nlohmann16json_abi_v3_11_36detail5lexerINS0_10basic_jsonINSt3__13mapENS4_6vectorENS4_12basic_stringIcNS4_11char_traitsIcEENS4_9allocatorIcEEEEbxydSA_NS0_14adl_serializerENS6_IhNSA_IhEEEEvEENS1_22iterator_input_adapterINS4_11__wrap_iterIPKcEEEEEC1EOSM_b, symObjAddr: 0x15618, symBinAddr: 0x1000164D4, symSize: 0x48 }
  - { offset: 0x31B30, size: 0x8, addend: 0x0, symName: __ZN8nlohmann16json_abi_v3_11_36detail6parserINS0_10basic_jsonINSt3__13mapENS4_6vectorENS4_12basic_stringIcNS4_11char_traitsIcEENS4_9allocatorIcEEEEbxydSA_NS0_14adl_serializerENS6_IhNSA_IhEEEEvEENS1_22iterator_input_adapterINS4_11__wrap_iterIPKcEEEEE9get_tokenEv, symObjAddr: 0x15660, symBinAddr: 0x10001651C, symSize: 0x34 }
  - { offset: 0x31B56, size: 0x8, addend: 0x0, symName: __ZN8nlohmann16json_abi_v3_11_36detail5lexerINS0_10basic_jsonINSt3__13mapENS4_6vectorENS4_12basic_stringIcNS4_11char_traitsIcEENS4_9allocatorIcEEEEbxydSA_NS0_14adl_serializerENS6_IhNSA_IhEEEEvEENS1_22iterator_input_adapterINS4_11__wrap_iterIPKcEEEEED1Ev, symObjAddr: 0x15694, symBinAddr: 0x100016550, symSize: 0x2C }
  - { offset: 0x31B80, size: 0x8, addend: 0x0, symName: __ZN8nlohmann16json_abi_v3_11_36detail5lexerINS0_10basic_jsonINSt3__13mapENS4_6vectorENS4_12basic_stringIcNS4_11char_traitsIcEENS4_9allocatorIcEEEEbxydSA_NS0_14adl_serializerENS6_IhNSA_IhEEEEvEENS1_22iterator_input_adapterINS4_11__wrap_iterIPKcEEEEEC2EOSM_b, symObjAddr: 0x156C0, symBinAddr: 0x10001657C, symSize: 0xB0 }
  - { offset: 0x31BC6, size: 0x8, addend: 0x0, symName: __ZNSt3__16vectorIcNS_9allocatorIcEEEC1B8ne180100Ev, symObjAddr: 0x15770, symBinAddr: 0x10001662C, symSize: 0x2C }
  - { offset: 0x31BF0, size: 0x8, addend: 0x0, symName: __ZN8nlohmann16json_abi_v3_11_36detail5lexerINS0_10basic_jsonINSt3__13mapENS4_6vectorENS4_12basic_stringIcNS4_11char_traitsIcEENS4_9allocatorIcEEEEbxydSA_NS0_14adl_serializerENS6_IhNSA_IhEEEEvEENS1_22iterator_input_adapterINS4_11__wrap_iterIPKcEEEEE17get_decimal_pointEv, symObjAddr: 0x1579C, symBinAddr: 0x100016658, symSize: 0xB0 }
  - { offset: 0x31C13, size: 0x8, addend: 0x0, symName: __ZNSt3__16vectorIcNS_9allocatorIcEEEC2B8ne180100Ev, symObjAddr: 0x1584C, symBinAddr: 0x100016708, symSize: 0x4C }
  - { offset: 0x31C3D, size: 0x8, addend: 0x0, symName: __ZNSt3__117__compressed_pairIPcNS_9allocatorIcEEEC1B8ne180100IDnNS_18__default_init_tagEEEOT_OT0_, symObjAddr: 0x15898, symBinAddr: 0x100016754, symSize: 0x3C }
  - { offset: 0x31C95, size: 0x8, addend: 0x0, symName: __ZNSt3__117__compressed_pairIPcNS_9allocatorIcEEEC2B8ne180100IDnNS_18__default_init_tagEEEOT_OT0_, symObjAddr: 0x158D4, symBinAddr: 0x100016790, symSize: 0x40 }
  - { offset: 0x31CED, size: 0x8, addend: 0x0, symName: __ZNSt3__122__compressed_pair_elemIPcLi0ELb0EEC2B8ne180100IDnvEEOT_, symObjAddr: 0x15914, symBinAddr: 0x1000167D0, symSize: 0x1C }
  - { offset: 0x31D2F, size: 0x8, addend: 0x0, symName: __ZN8nlohmann16json_abi_v3_11_36detail5lexerINS0_10basic_jsonINSt3__13mapENS4_6vectorENS4_12basic_stringIcNS4_11char_traitsIcEENS4_9allocatorIcEEEEbxydSA_NS0_14adl_serializerENS6_IhNSA_IhEEEEvEENS1_22iterator_input_adapterINS4_11__wrap_iterIPKcEEEEE4scanEv, symObjAddr: 0x15930, symBinAddr: 0x1000167EC, symSize: 0x284 }
  - { offset: 0x31DAF, size: 0x8, addend: 0x0, symName: __ZN8nlohmann16json_abi_v3_11_36detail5lexerINS0_10basic_jsonINSt3__13mapENS4_6vectorENS4_12basic_stringIcNS4_11char_traitsIcEENS4_9allocatorIcEEEEbxydSA_NS0_14adl_serializerENS6_IhNSA_IhEEEEvEENS1_22iterator_input_adapterINS4_11__wrap_iterIPKcEEEEE8skip_bomEv, symObjAddr: 0x15DB0, symBinAddr: 0x100016C6C, symSize: 0xA8 }
  - { offset: 0x31DD5, size: 0x8, addend: 0x0, symName: __ZN8nlohmann16json_abi_v3_11_36detail5lexerINS0_10basic_jsonINSt3__13mapENS4_6vectorENS4_12basic_stringIcNS4_11char_traitsIcEENS4_9allocatorIcEEEEbxydSA_NS0_14adl_serializerENS6_IhNSA_IhEEEEvEENS1_22iterator_input_adapterINS4_11__wrap_iterIPKcEEEEE15skip_whitespaceEv, symObjAddr: 0x15E58, symBinAddr: 0x100016D14, symSize: 0xB8 }
  - { offset: 0x31DFB, size: 0x8, addend: 0x0, symName: __ZN8nlohmann16json_abi_v3_11_36detail5lexerINS0_10basic_jsonINSt3__13mapENS4_6vectorENS4_12basic_stringIcNS4_11char_traitsIcEENS4_9allocatorIcEEEEbxydSA_NS0_14adl_serializerENS6_IhNSA_IhEEEEvEENS1_22iterator_input_adapterINS4_11__wrap_iterIPKcEEEEE12scan_commentEv, symObjAddr: 0x15F10, symBinAddr: 0x100016DCC, symSize: 0x17C }
  - { offset: 0x31E21, size: 0x8, addend: 0x0, symName: __ZN8nlohmann16json_abi_v3_11_36detail5lexerINS0_10basic_jsonINSt3__13mapENS4_6vectorENS4_12basic_stringIcNS4_11char_traitsIcEENS4_9allocatorIcEEEEbxydSA_NS0_14adl_serializerENS6_IhNSA_IhEEEEvEENS1_22iterator_input_adapterINS4_11__wrap_iterIPKcEEEEE12scan_literalESK_mNS1_10lexer_baseISG_E10token_typeE, symObjAddr: 0x1608C, symBinAddr: 0x100016F48, symSize: 0x100 }
  - { offset: 0x31EDF, size: 0x8, addend: 0x0, symName: __ZNSt3__15arrayIcLm4EE4dataB8ne180100Ev, symObjAddr: 0x1618C, symBinAddr: 0x100017048, symSize: 0x14 }
  - { offset: 0x31F05, size: 0x8, addend: 0x0, symName: __ZNKSt3__15arrayIcLm4EE4sizeB8ne180100Ev, symObjAddr: 0x161A0, symBinAddr: 0x10001705C, symSize: 0x14 }
  - { offset: 0x31F6D, size: 0x8, addend: 0x0, symName: __ZNSt3__15arrayIcLm5EE4dataB8ne180100Ev, symObjAddr: 0x161B4, symBinAddr: 0x100017070, symSize: 0x14 }
  - { offset: 0x31F93, size: 0x8, addend: 0x0, symName: __ZNKSt3__15arrayIcLm5EE4sizeB8ne180100Ev, symObjAddr: 0x161C8, symBinAddr: 0x100017084, symSize: 0x14 }
  - { offset: 0x31FB9, size: 0x8, addend: 0x0, symName: __ZN8nlohmann16json_abi_v3_11_36detail5lexerINS0_10basic_jsonINSt3__13mapENS4_6vectorENS4_12basic_stringIcNS4_11char_traitsIcEENS4_9allocatorIcEEEEbxydSA_NS0_14adl_serializerENS6_IhNSA_IhEEEEvEENS1_22iterator_input_adapterINS4_11__wrap_iterIPKcEEEEE11scan_stringEv, symObjAddr: 0x161DC, symBinAddr: 0x100017098, symSize: 0xB6C }
  - { offset: 0x3202E, size: 0x8, addend: 0x0, symName: __ZN8nlohmann16json_abi_v3_11_36detail5lexerINS0_10basic_jsonINSt3__13mapENS4_6vectorENS4_12basic_stringIcNS4_11char_traitsIcEENS4_9allocatorIcEEEEbxydSA_NS0_14adl_serializerENS6_IhNSA_IhEEEEvEENS1_22iterator_input_adapterINS4_11__wrap_iterIPKcEEEEE11scan_numberEv, symObjAddr: 0x17270, symBinAddr: 0x10001812C, symSize: 0x65C }
  - { offset: 0x32147, size: 0x8, addend: 0x0, symName: __ZN8nlohmann16json_abi_v3_11_36detail5lexerINS0_10basic_jsonINSt3__13mapENS4_6vectorENS4_12basic_stringIcNS4_11char_traitsIcEENS4_9allocatorIcEEEEbxydSA_NS0_14adl_serializerENS6_IhNSA_IhEEEEvEENS1_22iterator_input_adapterINS4_11__wrap_iterIPKcEEEEE3getEv, symObjAddr: 0x179AC, symBinAddr: 0x100018868, symSize: 0xF0 }
  - { offset: 0x3216D, size: 0x8, addend: 0x0, symName: __ZN8nlohmann16json_abi_v3_11_36detail5lexerINS0_10basic_jsonINSt3__13mapENS4_6vectorENS4_12basic_stringIcNS4_11char_traitsIcEENS4_9allocatorIcEEEEbxydSA_NS0_14adl_serializerENS6_IhNSA_IhEEEEvEENS1_22iterator_input_adapterINS4_11__wrap_iterIPKcEEEEE5ungetEv, symObjAddr: 0x17A9C, symBinAddr: 0x100018958, symSize: 0xFC }
  - { offset: 0x32193, size: 0x8, addend: 0x0, symName: __ZN8nlohmann16json_abi_v3_11_36detail22iterator_input_adapterINSt3__111__wrap_iterIPKcEEE13get_characterEv, symObjAddr: 0x17B98, symBinAddr: 0x100018A54, symSize: 0x78 }
  - { offset: 0x321D6, size: 0x8, addend: 0x0, symName: __ZNSt3__16vectorIcNS_9allocatorIcEEE9push_backB8ne180100EOc, symObjAddr: 0x17C10, symBinAddr: 0x100018ACC, symSize: 0x90 }
  - { offset: 0x3221C, size: 0x8, addend: 0x0, symName: __ZNSt3__111char_traitsIcE12to_char_typeB8ne180100Ei, symObjAddr: 0x17CA0, symBinAddr: 0x100018B5C, symSize: 0x18 }
  - { offset: 0x32240, size: 0x8, addend: 0x0, symName: __ZNSt3__111char_traitsIcE11to_int_typeB8ne180100Ec, symObjAddr: 0x17CEC, symBinAddr: 0x100018BA8, symSize: 0x14 }
  - { offset: 0x32264, size: 0x8, addend: 0x0, symName: __ZNKSt3__111__wrap_iterIPKcEdeB8ne180100Ev, symObjAddr: 0x17D00, symBinAddr: 0x100018BBC, symSize: 0x18 }
  - { offset: 0x3228A, size: 0x8, addend: 0x0, symName: __ZNKSt3__111__wrap_iterIPKcE4baseB8ne180100Ev, symObjAddr: 0x17DA0, symBinAddr: 0x100018C5C, symSize: 0x18 }
  - { offset: 0x322B0, size: 0x8, addend: 0x0, symName: __ZNSt3__111__wrap_iterIPKcEpLB8ne180100El, symObjAddr: 0x17DE4, symBinAddr: 0x100018CA0, symSize: 0x28 }
  - { offset: 0x322E4, size: 0x8, addend: 0x0, symName: __ZNSt3__16vectorIcNS_9allocatorIcEEE9__end_capB8ne180100Ev, symObjAddr: 0x17E0C, symBinAddr: 0x100018CC8, symSize: 0x28 }
  - { offset: 0x32310, size: 0x8, addend: 0x0, symName: __ZNSt3__16vectorIcNS_9allocatorIcEEE22__construct_one_at_endB8ne180100IJcEEEvDpOT_, symObjAddr: 0x17E34, symBinAddr: 0x100018CF0, symSize: 0x90 }
  - { offset: 0x3235F, size: 0x8, addend: 0x0, symName: __ZNSt3__16vectorIcNS_9allocatorIcEEE21__push_back_slow_pathIcEEPcOT_, symObjAddr: 0x17EC4, symBinAddr: 0x100018D80, symSize: 0xE8 }
  - { offset: 0x323BD, size: 0x8, addend: 0x0, symName: __ZNSt3__117__compressed_pairIPcNS_9allocatorIcEEE5firstB8ne180100Ev, symObjAddr: 0x17FAC, symBinAddr: 0x100018E68, symSize: 0x24 }
  - { offset: 0x323E3, size: 0x8, addend: 0x0, symName: __ZNSt3__122__compressed_pair_elemIPcLi0ELb0EE5__getB8ne180100Ev, symObjAddr: 0x17FD0, symBinAddr: 0x100018E8C, symSize: 0x14 }
  - { offset: 0x32425, size: 0x8, addend: 0x0, symName: __ZNSt3__16vectorIcNS_9allocatorIcEEE21_ConstructTransactionC1B8ne180100ERS3_m, symObjAddr: 0x17FE4, symBinAddr: 0x100018EA0, symSize: 0x3C }
  - { offset: 0x3246D, size: 0x8, addend: 0x0, symName: __ZNSt3__116allocator_traitsINS_9allocatorIcEEE9constructB8ne180100IcJcEvvEEvRS2_PT_DpOT0_, symObjAddr: 0x18020, symBinAddr: 0x100018EDC, symSize: 0x30 }
  - { offset: 0x324C2, size: 0x8, addend: 0x0, symName: __ZNSt3__16vectorIcNS_9allocatorIcEEE7__allocB8ne180100Ev, symObjAddr: 0x18050, symBinAddr: 0x100018F0C, symSize: 0x28 }
  - { offset: 0x324E8, size: 0x8, addend: 0x0, symName: __ZNSt3__16vectorIcNS_9allocatorIcEEE21_ConstructTransactionD1B8ne180100Ev, symObjAddr: 0x18078, symBinAddr: 0x100018F34, symSize: 0x2C }
  - { offset: 0x32512, size: 0x8, addend: 0x0, symName: __ZNSt3__16vectorIcNS_9allocatorIcEEE21_ConstructTransactionC2B8ne180100ERS3_m, symObjAddr: 0x180A4, symBinAddr: 0x100018F60, symSize: 0x44 }
  - { offset: 0x3255A, size: 0x8, addend: 0x0, symName: __ZNSt3__117__compressed_pairIPcNS_9allocatorIcEEE6secondB8ne180100Ev, symObjAddr: 0x18138, symBinAddr: 0x100018FF4, symSize: 0x24 }
  - { offset: 0x32580, size: 0x8, addend: 0x0, symName: __ZNSt3__16vectorIcNS_9allocatorIcEEE21_ConstructTransactionD2B8ne180100Ev, symObjAddr: 0x1815C, symBinAddr: 0x100019018, symSize: 0x20 }
  - { offset: 0x325AA, size: 0x8, addend: 0x0, symName: __ZNKSt3__16vectorIcNS_9allocatorIcEEE11__recommendB8ne180100Em, symObjAddr: 0x1817C, symBinAddr: 0x100019038, symSize: 0xB4 }
  - { offset: 0x325FF, size: 0x8, addend: 0x0, symName: __ZNKSt3__16vectorIcNS_9allocatorIcEEE4sizeB8ne180100Ev, symObjAddr: 0x18230, symBinAddr: 0x1000190EC, symSize: 0x20 }
  - { offset: 0x32625, size: 0x8, addend: 0x0, symName: __ZNSt3__114__split_bufferIcRNS_9allocatorIcEEEC1EmmS3_, symObjAddr: 0x18250, symBinAddr: 0x10001910C, symSize: 0x44 }
  - { offset: 0x3267B, size: 0x8, addend: 0x0, symName: __ZNSt3__114__split_bufferIcRNS_9allocatorIcEEED1Ev, symObjAddr: 0x183A4, symBinAddr: 0x100019260, symSize: 0x2C }
  - { offset: 0x326A7, size: 0x8, addend: 0x0, symName: __ZNKSt3__16vectorIcNS_9allocatorIcEEE8max_sizeEv, symObjAddr: 0x183D0, symBinAddr: 0x10001928C, symSize: 0x60 }
  - { offset: 0x326CF, size: 0x8, addend: 0x0, symName: __ZNKSt3__16vectorIcNS_9allocatorIcEEE20__throw_length_errorB8ne180100Ev, symObjAddr: 0x18430, symBinAddr: 0x1000192EC, symSize: 0x1C }
  - { offset: 0x326F5, size: 0x8, addend: 0x0, symName: __ZNKSt3__16vectorIcNS_9allocatorIcEEE8capacityB8ne180100Ev, symObjAddr: 0x1844C, symBinAddr: 0x100019308, symSize: 0x38 }
  - { offset: 0x3271B, size: 0x8, addend: 0x0, symName: __ZNKSt3__16vectorIcNS_9allocatorIcEEE7__allocB8ne180100Ev, symObjAddr: 0x18484, symBinAddr: 0x100019340, symSize: 0x28 }
  - { offset: 0x32741, size: 0x8, addend: 0x0, symName: __ZNKSt3__117__compressed_pairIPcNS_9allocatorIcEEE6secondB8ne180100Ev, symObjAddr: 0x184AC, symBinAddr: 0x100019368, symSize: 0x24 }
  - { offset: 0x32767, size: 0x8, addend: 0x0, symName: __ZNKSt3__16vectorIcNS_9allocatorIcEEE9__end_capB8ne180100Ev, symObjAddr: 0x184D0, symBinAddr: 0x10001938C, symSize: 0x28 }
  - { offset: 0x3278D, size: 0x8, addend: 0x0, symName: __ZNKSt3__117__compressed_pairIPcNS_9allocatorIcEEE5firstB8ne180100Ev, symObjAddr: 0x184F8, symBinAddr: 0x1000193B4, symSize: 0x24 }
  - { offset: 0x327B3, size: 0x8, addend: 0x0, symName: __ZNKSt3__122__compressed_pair_elemIPcLi0ELb0EE5__getB8ne180100Ev, symObjAddr: 0x1851C, symBinAddr: 0x1000193D8, symSize: 0x14 }
  - { offset: 0x327D9, size: 0x8, addend: 0x0, symName: __ZNSt3__114__split_bufferIcRNS_9allocatorIcEEEC2EmmS3_, symObjAddr: 0x18530, symBinAddr: 0x1000193EC, symSize: 0xD4 }
  - { offset: 0x3284D, size: 0x8, addend: 0x0, symName: __ZNSt3__117__compressed_pairIPcRNS_9allocatorIcEEEC1B8ne180100IDnS4_EEOT_OT0_, symObjAddr: 0x18604, symBinAddr: 0x1000194C0, symSize: 0x3C }
  - { offset: 0x328A5, size: 0x8, addend: 0x0, symName: __ZNSt3__114__split_bufferIcRNS_9allocatorIcEEE7__allocB8ne180100Ev, symObjAddr: 0x18680, symBinAddr: 0x10001953C, symSize: 0x28 }
  - { offset: 0x328CB, size: 0x8, addend: 0x0, symName: __ZNSt3__114__split_bufferIcRNS_9allocatorIcEEE9__end_capB8ne180100Ev, symObjAddr: 0x186A8, symBinAddr: 0x100019564, symSize: 0x28 }
  - { offset: 0x328F1, size: 0x8, addend: 0x0, symName: __ZNSt3__117__compressed_pairIPcRNS_9allocatorIcEEEC2B8ne180100IDnS4_EEOT_OT0_, symObjAddr: 0x186D0, symBinAddr: 0x10001958C, symSize: 0x48 }
  - { offset: 0x32949, size: 0x8, addend: 0x0, symName: __ZNSt3__122__compressed_pair_elemIRNS_9allocatorIcEELi1ELb0EEC2B8ne180100IS3_vEEOT_, symObjAddr: 0x18718, symBinAddr: 0x1000195D4, symSize: 0x20 }
  - { offset: 0x3298B, size: 0x8, addend: 0x0, symName: __ZNSt3__117__compressed_pairIPcRNS_9allocatorIcEEE6secondB8ne180100Ev, symObjAddr: 0x18738, symBinAddr: 0x1000195F4, symSize: 0x28 }
  - { offset: 0x329B1, size: 0x8, addend: 0x0, symName: __ZNSt3__122__compressed_pair_elemIRNS_9allocatorIcEELi1ELb0EE5__getB8ne180100Ev, symObjAddr: 0x18760, symBinAddr: 0x10001961C, symSize: 0x18 }
  - { offset: 0x329D7, size: 0x8, addend: 0x0, symName: __ZNSt3__117__compressed_pairIPcRNS_9allocatorIcEEE5firstB8ne180100Ev, symObjAddr: 0x18778, symBinAddr: 0x100019634, symSize: 0x24 }
  - { offset: 0x329FD, size: 0x8, addend: 0x0, symName: __ZNKSt3__16vectorIcNS_9allocatorIcEEE17__annotate_deleteB8ne180100Ev, symObjAddr: 0x1879C, symBinAddr: 0x100019658, symSize: 0x10 }
  - { offset: 0x32A23, size: 0x8, addend: 0x0, symName: __ZNSt3__116reverse_iteratorIPcEC1B8ne180100ES1_, symObjAddr: 0x18824, symBinAddr: 0x1000196E0, symSize: 0x34 }
  - { offset: 0x32A5B, size: 0x8, addend: 0x0, symName: __ZNKSt3__116reverse_iteratorIPcE4baseB8ne180100Ev, symObjAddr: 0x18858, symBinAddr: 0x100019714, symSize: 0x18 }
  - { offset: 0x32A81, size: 0x8, addend: 0x0, symName: __ZNKSt3__16vectorIcNS_9allocatorIcEEE14__annotate_newB8ne180100Em, symObjAddr: 0x188AC, symBinAddr: 0x100019768, symSize: 0x14 }
  - { offset: 0x32AD3, size: 0x8, addend: 0x0, symName: __ZNKSt3__111__move_loopINS_17_ClassicAlgPolicyEEclB8ne180100INS_16reverse_iteratorIPcEES6_S6_EENS_4pairIT_T1_EES8_T0_S9_, symObjAddr: 0x18B78, symBinAddr: 0x100019A34, symSize: 0xA0 }
  - { offset: 0x32B3E, size: 0x8, addend: 0x0, symName: __ZNSt3__119__unwrap_range_implINS_16reverse_iteratorIPcEES3_E8__unwrapB8ne180100ES3_S3_, symObjAddr: 0x18D64, symBinAddr: 0x100019C20, symSize: 0x84 }
  - { offset: 0x32B75, size: 0x8, addend: 0x0, symName: __ZNSt3__14pairINS_16reverse_iteratorIPcEES3_EC1B8ne180100IS3_S3_Li0EEEOT_OT0_, symObjAddr: 0x18DE8, symBinAddr: 0x100019CA4, symSize: 0x3C }
  - { offset: 0x32BD3, size: 0x8, addend: 0x0, symName: __ZNSt3__14pairINS_16reverse_iteratorIPcEES3_EC2B8ne180100IS3_S3_Li0EEEOT_OT0_, symObjAddr: 0x18E24, symBinAddr: 0x100019CE0, symSize: 0x34 }
  - { offset: 0x32C37, size: 0x8, addend: 0x0, symName: __ZNSt3__18_IterOpsINS_17_ClassicAlgPolicyEE11__iter_moveB8ne180100IRNS_16reverse_iteratorIPcEELi0EEEDTclsr3stdE4movedeclsr3stdE7declvalIRT_EEEEOS8_, symObjAddr: 0x18EA0, symBinAddr: 0x100019D5C, symSize: 0x28 }
  - { offset: 0x32C69, size: 0x8, addend: 0x0, symName: __ZNKSt3__116reverse_iteratorIPcEdeB8ne180100Ev, symObjAddr: 0x18EC8, symBinAddr: 0x100019D84, symSize: 0x28 }
  - { offset: 0x32C9D, size: 0x8, addend: 0x0, symName: __ZNSt3__116reverse_iteratorIPcEppB8ne180100Ev, symObjAddr: 0x18EF0, symBinAddr: 0x100019DAC, symSize: 0x20 }
  - { offset: 0x32CC3, size: 0x8, addend: 0x0, symName: __ZNSt3__18_IterOpsINS_17_ClassicAlgPolicyEE25__validate_iter_referenceB8ne180100IRNS_16reverse_iteratorIPcEEEEvv, symObjAddr: 0x18F10, symBinAddr: 0x100019DCC, symSize: 0x4 }
  - { offset: 0x32CE1, size: 0x8, addend: 0x0, symName: __ZNSt3__118__unwrap_iter_implINS_16reverse_iteratorIPcEELb0EE8__unwrapB8ne180100ES3_, symObjAddr: 0x18F14, symBinAddr: 0x100019DD0, symSize: 0x24 }
  - { offset: 0x32D04, size: 0x8, addend: 0x0, symName: __ZNSt3__119__unwrap_range_implINS_16reverse_iteratorIPcEES3_E8__rewrapB8ne180100ES3_S3_, symObjAddr: 0x18F38, symBinAddr: 0x100019DF4, symSize: 0x5C }
  - { offset: 0x32D35, size: 0x8, addend: 0x0, symName: __ZNSt3__118__unwrap_iter_implINS_16reverse_iteratorIPcEELb0EE8__rewrapB8ne180100ES3_S3_, symObjAddr: 0x18F94, symBinAddr: 0x100019E50, symSize: 0x2C }
  - { offset: 0x32D62, size: 0x8, addend: 0x0, symName: __ZNSt3__116reverse_iteratorIPcEC2B8ne180100ES1_, symObjAddr: 0x18FC0, symBinAddr: 0x100019E7C, symSize: 0x28 }
  - { offset: 0x32D9A, size: 0x8, addend: 0x0, symName: __ZNSt3__114__split_bufferIcRNS_9allocatorIcEEED2Ev, symObjAddr: 0x18FE8, symBinAddr: 0x100019EA4, symSize: 0x8C }
  - { offset: 0x32DC6, size: 0x8, addend: 0x0, symName: __ZNSt3__114__split_bufferIcRNS_9allocatorIcEEE5clearB8ne180100Ev, symObjAddr: 0x19074, symBinAddr: 0x100019F30, symSize: 0x28 }
  - { offset: 0x32DEC, size: 0x8, addend: 0x0, symName: __ZNKSt3__114__split_bufferIcRNS_9allocatorIcEEE8capacityB8ne180100Ev, symObjAddr: 0x1909C, symBinAddr: 0x100019F58, symSize: 0x38 }
  - { offset: 0x32E12, size: 0x8, addend: 0x0, symName: __ZNSt3__114__split_bufferIcRNS_9allocatorIcEEE17__destruct_at_endB8ne180100EPc, symObjAddr: 0x190D4, symBinAddr: 0x100019F90, symSize: 0x2C }
  - { offset: 0x32E46, size: 0x8, addend: 0x0, symName: __ZNSt3__114__split_bufferIcRNS_9allocatorIcEEE17__destruct_at_endB8ne180100EPcNS_17integral_constantIbLb0EEE, symObjAddr: 0x19100, symBinAddr: 0x100019FBC, symSize: 0x80 }
  - { offset: 0x32E86, size: 0x8, addend: 0x0, symName: __ZNSt3__116allocator_traitsINS_9allocatorIcEEE7destroyB8ne180100IcvvEEvRS2_PT_, symObjAddr: 0x19180, symBinAddr: 0x10001A03C, symSize: 0x28 }
  - { offset: 0x32EC1, size: 0x8, addend: 0x0, symName: __ZNKSt3__114__split_bufferIcRNS_9allocatorIcEEE9__end_capB8ne180100Ev, symObjAddr: 0x191B8, symBinAddr: 0x10001A074, symSize: 0x28 }
  - { offset: 0x32EE7, size: 0x8, addend: 0x0, symName: __ZNKSt3__117__compressed_pairIPcRNS_9allocatorIcEEE5firstB8ne180100Ev, symObjAddr: 0x191E0, symBinAddr: 0x10001A09C, symSize: 0x24 }
  - { offset: 0x32F0D, size: 0x8, addend: 0x0, symName: __ZNKSt3__16vectorIcNS_9allocatorIcEEE5emptyB8ne180100Ev, symObjAddr: 0x19204, symBinAddr: 0x10001A0C0, symSize: 0x28 }
  - { offset: 0x32F33, size: 0x8, addend: 0x0, symName: __ZNSt3__16vectorIcNS_9allocatorIcEEE8pop_backEv, symObjAddr: 0x1922C, symBinAddr: 0x10001A0E8, symSize: 0x2C }
  - { offset: 0x32F5B, size: 0x8, addend: 0x0, symName: __ZNSt3__16vectorIcNS_9allocatorIcEEE17__destruct_at_endB8ne180100EPc, symObjAddr: 0x19258, symBinAddr: 0x10001A114, symSize: 0x4C }
  - { offset: 0x32F9F, size: 0x8, addend: 0x0, symName: __ZNSt3__16vectorIcNS_9allocatorIcEEE22__base_destruct_at_endB8ne180100EPc, symObjAddr: 0x192A4, symBinAddr: 0x10001A160, symSize: 0x8C }
  - { offset: 0x32FE3, size: 0x8, addend: 0x0, symName: __ZNKSt3__16vectorIcNS_9allocatorIcEEE17__annotate_shrinkB8ne180100Em, symObjAddr: 0x19330, symBinAddr: 0x10001A1EC, symSize: 0x14 }
  - { offset: 0x33018, size: 0x8, addend: 0x0, symName: __ZN8nlohmann16json_abi_v3_11_36detail5lexerINS0_10basic_jsonINSt3__13mapENS4_6vectorENS4_12basic_stringIcNS4_11char_traitsIcEENS4_9allocatorIcEEEEbxydSA_NS0_14adl_serializerENS6_IhNSA_IhEEEEvEENS1_22iterator_input_adapterINS4_11__wrap_iterIPKcEEEEE5resetEv, symObjAddr: 0x19344, symBinAddr: 0x10001A200, symSize: 0x60 }
  - { offset: 0x3303E, size: 0x8, addend: 0x0, symName: __ZN8nlohmann16json_abi_v3_11_36detail5lexerINS0_10basic_jsonINSt3__13mapENS4_6vectorENS4_12basic_stringIcNS4_11char_traitsIcEENS4_9allocatorIcEEEEbxydSA_NS0_14adl_serializerENS6_IhNSA_IhEEEEvEENS1_22iterator_input_adapterINS4_11__wrap_iterIPKcEEEEE3addEi, symObjAddr: 0x193A4, symBinAddr: 0x10001A260, symSize: 0x34 }
  - { offset: 0x33073, size: 0x8, addend: 0x0, symName: __ZN8nlohmann16json_abi_v3_11_36detail5lexerINS0_10basic_jsonINSt3__13mapENS4_6vectorENS4_12basic_stringIcNS4_11char_traitsIcEENS4_9allocatorIcEEEEbxydSA_NS0_14adl_serializerENS6_IhNSA_IhEEEEvEENS1_22iterator_input_adapterINS4_11__wrap_iterIPKcEEEEE13get_codepointEv, symObjAddr: 0x193D8, symBinAddr: 0x10001A294, symSize: 0x2B0 }
  - { offset: 0x33108, size: 0x8, addend: 0x0, symName: __ZN8nlohmann16json_abi_v3_11_36detail5lexerINS0_10basic_jsonINSt3__13mapENS4_6vectorENS4_12basic_stringIcNS4_11char_traitsIcEENS4_9allocatorIcEEEEbxydSA_NS0_14adl_serializerENS6_IhNSA_IhEEEEvEENS1_22iterator_input_adapterINS4_11__wrap_iterIPKcEEEEE18next_byte_in_rangeESt16initializer_listIiE, symObjAddr: 0x19688, symBinAddr: 0x10001A544, symSize: 0x1C0 }
  - { offset: 0x33159, size: 0x8, addend: 0x0, symName: __ZNSt3__112basic_stringIcNS_11char_traitsIcEENS_9allocatorIcEEE5clearB8ne180100Ev, symObjAddr: 0x19848, symBinAddr: 0x10001A704, symSize: 0x94 }
  - { offset: 0x33190, size: 0x8, addend: 0x0, symName: __ZNSt3__16vectorIcNS_9allocatorIcEEE5clearB8ne180100Ev, symObjAddr: 0x198DC, symBinAddr: 0x10001A798, symSize: 0x44 }
  - { offset: 0x331C5, size: 0x8, addend: 0x0, symName: __ZNSt3__16vectorIcNS_9allocatorIcEEE7__clearB8ne180100Ev, symObjAddr: 0x19920, symBinAddr: 0x10001A7DC, symSize: 0x28 }
  - { offset: 0x33202, size: 0x8, addend: 0x0, symName: __ZNKSt16initializer_listIjE5beginB8ne180100Ev, symObjAddr: 0x19948, symBinAddr: 0x10001A804, symSize: 0x18 }
  - { offset: 0x33228, size: 0x8, addend: 0x0, symName: __ZNKSt16initializer_listIjE3endB8ne180100Ev, symObjAddr: 0x19960, symBinAddr: 0x10001A81C, symSize: 0x20 }
  - { offset: 0x3324E, size: 0x8, addend: 0x0, symName: __ZNKSt16initializer_listIiE4sizeB8ne180100Ev, symObjAddr: 0x19980, symBinAddr: 0x10001A83C, symSize: 0x18 }
  - { offset: 0x33274, size: 0x8, addend: 0x0, symName: __ZNKSt16initializer_listIiE5beginB8ne180100Ev, symObjAddr: 0x19998, symBinAddr: 0x10001A854, symSize: 0x18 }
  - { offset: 0x3329A, size: 0x8, addend: 0x0, symName: __ZNKSt16initializer_listIiE3endB8ne180100Ev, symObjAddr: 0x199B0, symBinAddr: 0x10001A86C, symSize: 0x20 }
  - { offset: 0x332C0, size: 0x8, addend: 0x0, symName: __ZN8nlohmann16json_abi_v3_11_36detail5lexerINS0_10basic_jsonINSt3__13mapENS4_6vectorENS4_12basic_stringIcNS4_11char_traitsIcEENS4_9allocatorIcEEEEbxydSA_NS0_14adl_serializerENS6_IhNSA_IhEEEEvEENS1_22iterator_input_adapterINS4_11__wrap_iterIPKcEEEEE6strtofERdSK_PPc, symObjAddr: 0x199D0, symBinAddr: 0x10001A88C, symSize: 0x48 }
  - { offset: 0x33302, size: 0x8, addend: 0x0, symName: __ZN8nlohmann16json_abi_v3_11_36detail5lexerINS0_10basic_jsonINSt3__13mapENS4_6vectorENS4_12basic_stringIcNS4_11char_traitsIcEENS4_9allocatorIcEEEEbxydSA_NS0_14adl_serializerENS6_IhNSA_IhEEEEvEENS1_22iterator_input_adapterINS4_11__wrap_iterIPKcEEEEED2Ev, symObjAddr: 0x19A18, symBinAddr: 0x10001A8D4, symSize: 0x3C }
  - { offset: 0x3332C, size: 0x8, addend: 0x0, symName: __ZNSt3__16vectorIcNS_9allocatorIcEEED1B8ne180100Ev, symObjAddr: 0x19A54, symBinAddr: 0x10001A910, symSize: 0x2C }
  - { offset: 0x33356, size: 0x8, addend: 0x0, symName: __ZNSt3__16vectorIcNS_9allocatorIcEEED2B8ne180100Ev, symObjAddr: 0x19A80, symBinAddr: 0x10001A93C, symSize: 0x44 }
  - { offset: 0x33380, size: 0x8, addend: 0x0, symName: __ZNSt3__16vectorIcNS_9allocatorIcEEE16__destroy_vectorC1B8ne180100ERS3_, symObjAddr: 0x19AC4, symBinAddr: 0x10001A980, symSize: 0x34 }
  - { offset: 0x333B9, size: 0x8, addend: 0x0, symName: __ZNSt3__16vectorIcNS_9allocatorIcEEE16__destroy_vectorclB8ne180100Ev, symObjAddr: 0x19AF8, symBinAddr: 0x10001A9B4, symSize: 0x90 }
  - { offset: 0x333DF, size: 0x8, addend: 0x0, symName: __ZNSt3__16vectorIcNS_9allocatorIcEEE16__destroy_vectorC2B8ne180100ERS3_, symObjAddr: 0x19B88, symBinAddr: 0x10001AA44, symSize: 0x20 }
  - { offset: 0x33418, size: 0x8, addend: 0x0, symName: __ZN8nlohmann16json_abi_v3_11_36detail36container_input_adapter_factory_impl31container_input_adapter_factoryINSt3__112basic_stringIcNS4_11char_traitsIcEENS4_9allocatorIcEEEEvE6createERKSA_, symObjAddr: 0x19BA8, symBinAddr: 0x10001AA64, symSize: 0x50 }
  - { offset: 0x3343C, size: 0x8, addend: 0x0, symName: __ZN8nlohmann16json_abi_v3_11_36detail30iterator_input_adapter_factoryINSt3__111__wrap_iterIPKcEEvE6createES7_S7_, symObjAddr: 0x19C9C, symBinAddr: 0x10001AB58, symSize: 0x48 }
  - { offset: 0x3346F, size: 0x8, addend: 0x0, symName: __ZN8nlohmann16json_abi_v3_11_36detail22iterator_input_adapterINSt3__111__wrap_iterIPKcEEEC1ES7_S7_, symObjAddr: 0x19CE4, symBinAddr: 0x10001ABA0, symSize: 0x3C }
  - { offset: 0x334B5, size: 0x8, addend: 0x0, symName: __ZN8nlohmann16json_abi_v3_11_36detail22iterator_input_adapterINSt3__111__wrap_iterIPKcEEEC2ES7_S7_, symObjAddr: 0x19D20, symBinAddr: 0x10001ABDC, symSize: 0x2C }
  - { offset: 0x334FB, size: 0x8, addend: 0x0, symName: __ZNKSt3__112basic_stringIcNS_11char_traitsIcEENS_9allocatorIcEEE5beginB8ne180100Ev, symObjAddr: 0x19D4C, symBinAddr: 0x10001AC08, symSize: 0x4C }
  - { offset: 0x33521, size: 0x8, addend: 0x0, symName: __ZNKSt3__112basic_stringIcNS_11char_traitsIcEENS_9allocatorIcEEE21__make_const_iteratorB8ne180100EPKc, symObjAddr: 0x19D98, symBinAddr: 0x10001AC54, symSize: 0x30 }
  - { offset: 0x33556, size: 0x8, addend: 0x0, symName: __ZNSt3__111__wrap_iterIPKcEC1B8ne180100ES2_, symObjAddr: 0x19DC8, symBinAddr: 0x10001AC84, symSize: 0x34 }
  - { offset: 0x3358E, size: 0x8, addend: 0x0, symName: __ZNSt3__111__wrap_iterIPKcEC2B8ne180100ES2_, symObjAddr: 0x19DFC, symBinAddr: 0x10001ACB8, symSize: 0x20 }
  - { offset: 0x335C6, size: 0x8, addend: 0x0, symName: __ZNKSt3__112basic_stringIcNS_11char_traitsIcEENS_9allocatorIcEEE3endB8ne180100Ev, symObjAddr: 0x19E1C, symBinAddr: 0x10001ACD8, symSize: 0x54 }
  - { offset: 0x335EC, size: 0x8, addend: 0x0, symName: __ZNSt3__18functionIFbiN8nlohmann16json_abi_v3_11_36detail13parse_event_tERNS2_10basic_jsonINS_3mapENS_6vectorENS_12basic_stringIcNS_11char_traitsIcEENS_9allocatorIcEEEEbxydSB_NS2_14adl_serializerENS7_IhNSB_IhEEEEvEEEEC2ERKSK_, symObjAddr: 0x19E70, symBinAddr: 0x10001AD2C, symSize: 0x34 }
  - { offset: 0x33627, size: 0x8, addend: 0x0, symName: __ZNSt3__110__function12__value_funcIFbiN8nlohmann16json_abi_v3_11_36detail13parse_event_tERNS3_10basic_jsonINS_3mapENS_6vectorENS_12basic_stringIcNS_11char_traitsIcEENS_9allocatorIcEEEEbxydSC_NS3_14adl_serializerENS8_IhNSC_IhEEEEvEEEEC1B8ne180100ERKSL_, symObjAddr: 0x19EA4, symBinAddr: 0x10001AD60, symSize: 0x34 }
  - { offset: 0x33660, size: 0x8, addend: 0x0, symName: __ZNSt3__110__function12__value_funcIFbiN8nlohmann16json_abi_v3_11_36detail13parse_event_tERNS3_10basic_jsonINS_3mapENS_6vectorENS_12basic_stringIcNS_11char_traitsIcEENS_9allocatorIcEEEEbxydSC_NS3_14adl_serializerENS8_IhNSC_IhEEEEvEEEEC2B8ne180100ERKSL_, symObjAddr: 0x19ED8, symBinAddr: 0x10001AD94, symSize: 0xC0 }
  - { offset: 0x33699, size: 0x8, addend: 0x0, symName: __ZNKSt3__18functionIFbiN8nlohmann16json_abi_v3_11_36detail13parse_event_tERNS2_10basic_jsonINS_3mapENS_6vectorENS_12basic_stringIcNS_11char_traitsIcEENS_9allocatorIcEEEEbxydSB_NS2_14adl_serializerENS7_IhNSB_IhEEEEvEEEEcvbB8ne180100Ev, symObjAddr: 0x19F98, symBinAddr: 0x10001AE54, symSize: 0x28 }
  - { offset: 0x336FE, size: 0x8, addend: 0x0, symName: __ZN8nlohmann16json_abi_v3_11_36detail28json_sax_dom_callback_parserINS0_10basic_jsonINSt3__13mapENS4_6vectorENS4_12basic_stringIcNS4_11char_traitsIcEENS4_9allocatorIcEEEEbxydSA_NS0_14adl_serializerENS6_IhNSA_IhEEEEvEEEC1ERSG_NS4_8functionIFbiNS1_13parse_event_tESI_EEEb, symObjAddr: 0x19FC0, symBinAddr: 0x10001AE7C, symSize: 0x50 }
  - { offset: 0x3375C, size: 0x8, addend: 0x0, symName: __ZN8nlohmann16json_abi_v3_11_36detail6parserINS0_10basic_jsonINSt3__13mapENS4_6vectorENS4_12basic_stringIcNS4_11char_traitsIcEENS4_9allocatorIcEEEEbxydSA_NS0_14adl_serializerENS6_IhNSA_IhEEEEvEENS1_22iterator_input_adapterINS4_11__wrap_iterIPKcEEEEE18sax_parse_internalINS1_28json_sax_dom_callback_parserISG_EEEEbPT_, symObjAddr: 0x1A010, symBinAddr: 0x10001AECC, symSize: 0x16F4 }
  - { offset: 0x337EC, size: 0x8, addend: 0x0, symName: __ZN8nlohmann16json_abi_v3_11_36detail28json_sax_dom_callback_parserINS0_10basic_jsonINSt3__13mapENS4_6vectorENS4_12basic_stringIcNS4_11char_traitsIcEENS4_9allocatorIcEEEEbxydSA_NS0_14adl_serializerENS6_IhNSA_IhEEEEvEEE11parse_errorINS1_11parse_errorEEEbmRKSC_RKT_, symObjAddr: 0x1B748, symBinAddr: 0x10001C604, symSize: 0x74 }
  - { offset: 0x33842, size: 0x8, addend: 0x0, symName: __ZNK8nlohmann16json_abi_v3_11_36detail5lexerINS0_10basic_jsonINSt3__13mapENS4_6vectorENS4_12basic_stringIcNS4_11char_traitsIcEENS4_9allocatorIcEEEEbxydSA_NS0_14adl_serializerENS6_IhNSA_IhEEEEvEENS1_22iterator_input_adapterINS4_11__wrap_iterIPKcEEEEE12get_positionEv, symObjAddr: 0x1B7BC, symBinAddr: 0x10001C678, symSize: 0x28 }
  - { offset: 0x33868, size: 0x8, addend: 0x0, symName: __ZNK8nlohmann16json_abi_v3_11_36detail10position_tcvmEv, symObjAddr: 0x1B7E4, symBinAddr: 0x10001C6A0, symSize: 0x18 }
  - { offset: 0x3388E, size: 0x8, addend: 0x0, symName: __ZNK8nlohmann16json_abi_v3_11_36detail5lexerINS0_10basic_jsonINSt3__13mapENS4_6vectorENS4_12basic_stringIcNS4_11char_traitsIcEENS4_9allocatorIcEEEEbxydSA_NS0_14adl_serializerENS6_IhNSA_IhEEEEvEENS1_22iterator_input_adapterINS4_11__wrap_iterIPKcEEEEE16get_token_stringEv, symObjAddr: 0x1B7FC, symBinAddr: 0x10001C6B8, symSize: 0x1B8 }
  - { offset: 0x33926, size: 0x8, addend: 0x0, symName: __ZN8nlohmann16json_abi_v3_11_36detail11parse_error6createIDnLi0EEES2_iRKNS1_10position_tERKNSt3__112basic_stringIcNS7_11char_traitsIcEENS7_9allocatorIcEEEET_, symObjAddr: 0x1B9B4, symBinAddr: 0x10001C870, symSize: 0x18C }
  - { offset: 0x33990, size: 0x8, addend: 0x0, symName: __ZN8nlohmann16json_abi_v3_11_36detail6parserINS0_10basic_jsonINSt3__13mapENS4_6vectorENS4_12basic_stringIcNS4_11char_traitsIcEENS4_9allocatorIcEEEEbxydSA_NS0_14adl_serializerENS6_IhNSA_IhEEEEvEENS1_22iterator_input_adapterINS4_11__wrap_iterIPKcEEEEE17exception_messageENS1_10lexer_baseISG_E10token_typeERKSC_, symObjAddr: 0x1BB40, symBinAddr: 0x10001C9FC, symSize: 0x2B0 }
  - { offset: 0x339E4, size: 0x8, addend: 0x0, symName: __ZN8nlohmann16json_abi_v3_11_36detail11parse_errorD1Ev, symObjAddr: 0x1BDF0, symBinAddr: 0x10001CCAC, symSize: 0x2C }
  - { offset: 0x33A10, size: 0x8, addend: 0x0, symName: __ZNK8nlohmann16json_abi_v3_11_36detail28json_sax_dom_callback_parserINS0_10basic_jsonINSt3__13mapENS4_6vectorENS4_12basic_stringIcNS4_11char_traitsIcEENS4_9allocatorIcEEEEbxydSA_NS0_14adl_serializerENS6_IhNSA_IhEEEEvEEE10is_erroredEv, symObjAddr: 0x1BE1C, symBinAddr: 0x10001CCD8, symSize: 0x1C }
  - { offset: 0x33A36, size: 0x8, addend: 0x0, symName: __ZNK8nlohmann16json_abi_v3_11_310basic_jsonINSt3__13mapENS2_6vectorENS2_12basic_stringIcNS2_11char_traitsIcEENS2_9allocatorIcEEEEbxydS8_NS0_14adl_serializerENS4_IhNS8_IhEEEEvE12is_discardedEv, symObjAddr: 0x1BE38, symBinAddr: 0x10001CCF4, symSize: 0x24 }
  - { offset: 0x33A5C, size: 0x8, addend: 0x0, symName: __ZN8nlohmann16json_abi_v3_11_36detail28json_sax_dom_callback_parserINS0_10basic_jsonINSt3__13mapENS4_6vectorENS4_12basic_stringIcNS4_11char_traitsIcEENS4_9allocatorIcEEEEbxydSA_NS0_14adl_serializerENS6_IhNSA_IhEEEEvEEED1Ev, symObjAddr: 0x1BE5C, symBinAddr: 0x10001CD18, symSize: 0x2C }
  - { offset: 0x33AC0, size: 0x8, addend: 0x0, symName: __ZN8nlohmann16json_abi_v3_11_36detail19json_sax_dom_parserINS0_10basic_jsonINSt3__13mapENS4_6vectorENS4_12basic_stringIcNS4_11char_traitsIcEENS4_9allocatorIcEEEEbxydSA_NS0_14adl_serializerENS6_IhNSA_IhEEEEvEEEC1ERSG_b, symObjAddr: 0x1BE88, symBinAddr: 0x10001CD44, symSize: 0x48 }
  - { offset: 0x33B0C, size: 0x8, addend: 0x0, symName: __ZN8nlohmann16json_abi_v3_11_36detail6parserINS0_10basic_jsonINSt3__13mapENS4_6vectorENS4_12basic_stringIcNS4_11char_traitsIcEENS4_9allocatorIcEEEEbxydSA_NS0_14adl_serializerENS6_IhNSA_IhEEEEvEENS1_22iterator_input_adapterINS4_11__wrap_iterIPKcEEEEE18sax_parse_internalINS1_19json_sax_dom_parserISG_EEEEbPT_, symObjAddr: 0x1BED0, symBinAddr: 0x10001CD8C, symSize: 0x16A0 }
  - { offset: 0x33B85, size: 0x8, addend: 0x0, symName: __ZN8nlohmann16json_abi_v3_11_36detail19json_sax_dom_parserINS0_10basic_jsonINSt3__13mapENS4_6vectorENS4_12basic_stringIcNS4_11char_traitsIcEENS4_9allocatorIcEEEEbxydSA_NS0_14adl_serializerENS6_IhNSA_IhEEEEvEEE11parse_errorINS1_11parse_errorEEEbmRKSC_RKT_, symObjAddr: 0x1D5B4, symBinAddr: 0x10001E470, symSize: 0x74 }
  - { offset: 0x33BDB, size: 0x8, addend: 0x0, symName: __ZNK8nlohmann16json_abi_v3_11_36detail19json_sax_dom_parserINS0_10basic_jsonINSt3__13mapENS4_6vectorENS4_12basic_stringIcNS4_11char_traitsIcEENS4_9allocatorIcEEEEbxydSA_NS0_14adl_serializerENS6_IhNSA_IhEEEEvEEE10is_erroredEv, symObjAddr: 0x1D628, symBinAddr: 0x10001E4E4, symSize: 0x1C }
  - { offset: 0x33C01, size: 0x8, addend: 0x0, symName: __ZN8nlohmann16json_abi_v3_11_36detail19json_sax_dom_parserINS0_10basic_jsonINSt3__13mapENS4_6vectorENS4_12basic_stringIcNS4_11char_traitsIcEENS4_9allocatorIcEEEEbxydSA_NS0_14adl_serializerENS6_IhNSA_IhEEEEvEEED1Ev, symObjAddr: 0x1D644, symBinAddr: 0x10001E500, symSize: 0x2C }
  - { offset: 0x33C2B, size: 0x8, addend: 0x0, symName: __ZNKSt3__110__function12__value_funcIFbiN8nlohmann16json_abi_v3_11_36detail13parse_event_tERNS3_10basic_jsonINS_3mapENS_6vectorENS_12basic_stringIcNS_11char_traitsIcEENS_9allocatorIcEEEEbxydSC_NS3_14adl_serializerENS8_IhNSC_IhEEEEvEEEEcvbB8ne180100Ev, symObjAddr: 0x1D670, symBinAddr: 0x10001E52C, symSize: 0x24 }
  - { offset: 0x33C51, size: 0x8, addend: 0x0, symName: __ZN8nlohmann16json_abi_v3_11_36detail28json_sax_dom_callback_parserINS0_10basic_jsonINSt3__13mapENS4_6vectorENS4_12basic_stringIcNS4_11char_traitsIcEENS4_9allocatorIcEEEEbxydSA_NS0_14adl_serializerENS6_IhNSA_IhEEEEvEEEC2ERSG_NS4_8functionIFbiNS1_13parse_event_tESI_EEEb, symObjAddr: 0x1D694, symBinAddr: 0x10001E550, symSize: 0x13C }
  - { offset: 0x33CA9, size: 0x8, addend: 0x0, symName: __ZNSt3__16vectorIPN8nlohmann16json_abi_v3_11_310basic_jsonINS_3mapES0_NS_12basic_stringIcNS_11char_traitsIcEENS_9allocatorIcEEEEbxydS8_NS2_14adl_serializerENS0_IhNS8_IhEEEEvEENS8_ISF_EEEC1B8ne180100Ev, symObjAddr: 0x1D7D0, symBinAddr: 0x10001E68C, symSize: 0x2C }
  - { offset: 0x33CD3, size: 0x8, addend: 0x0, symName: __ZNSt3__16vectorIbNS_9allocatorIbEEEC1B8ne180100Ev, symObjAddr: 0x1D7FC, symBinAddr: 0x10001E6B8, symSize: 0x2C }
  - { offset: 0x33CFF, size: 0x8, addend: 0x0, symName: __ZNSt3__16vectorIbNS_9allocatorIbEEE9push_backERKb, symObjAddr: 0x1D828, symBinAddr: 0x10001E6E4, symSize: 0xA4 }
  - { offset: 0x33D36, size: 0x8, addend: 0x0, symName: __ZNSt3__16vectorIbNS_9allocatorIbEEED1B8ne180100Ev, symObjAddr: 0x1D8CC, symBinAddr: 0x10001E788, symSize: 0x2C }
  - { offset: 0x33D60, size: 0x8, addend: 0x0, symName: __ZNSt3__16vectorIPN8nlohmann16json_abi_v3_11_310basic_jsonINS_3mapES0_NS_12basic_stringIcNS_11char_traitsIcEENS_9allocatorIcEEEEbxydS8_NS2_14adl_serializerENS0_IhNS8_IhEEEEvEENS8_ISF_EEED1B8ne180100Ev, symObjAddr: 0x1D8F8, symBinAddr: 0x10001E7B4, symSize: 0x2C }
  - { offset: 0x33D8A, size: 0x8, addend: 0x0, symName: __ZNSt3__16vectorIPN8nlohmann16json_abi_v3_11_310basic_jsonINS_3mapES0_NS_12basic_stringIcNS_11char_traitsIcEENS_9allocatorIcEEEEbxydS8_NS2_14adl_serializerENS0_IhNS8_IhEEEEvEENS8_ISF_EEEC2B8ne180100Ev, symObjAddr: 0x1D924, symBinAddr: 0x10001E7E0, symSize: 0x4C }
  - { offset: 0x33DB4, size: 0x8, addend: 0x0, symName: __ZNSt3__117__compressed_pairIPPN8nlohmann16json_abi_v3_11_310basic_jsonINS_3mapENS_6vectorENS_12basic_stringIcNS_11char_traitsIcEENS_9allocatorIcEEEEbxydS9_NS2_14adl_serializerENS5_IhNS9_IhEEEEvEENS9_ISG_EEEC1B8ne180100IDnNS_18__default_init_tagEEEOT_OT0_, symObjAddr: 0x1D970, symBinAddr: 0x10001E82C, symSize: 0x3C }
  - { offset: 0x33E0C, size: 0x8, addend: 0x0, symName: __ZNSt3__117__compressed_pairIPPN8nlohmann16json_abi_v3_11_310basic_jsonINS_3mapENS_6vectorENS_12basic_stringIcNS_11char_traitsIcEENS_9allocatorIcEEEEbxydS9_NS2_14adl_serializerENS5_IhNS9_IhEEEEvEENS9_ISG_EEEC2B8ne180100IDnNS_18__default_init_tagEEEOT_OT0_, symObjAddr: 0x1D9AC, symBinAddr: 0x10001E868, symSize: 0x40 }
  - { offset: 0x33E64, size: 0x8, addend: 0x0, symName: __ZNSt3__122__compressed_pair_elemIPPN8nlohmann16json_abi_v3_11_310basic_jsonINS_3mapENS_6vectorENS_12basic_stringIcNS_11char_traitsIcEENS_9allocatorIcEEEEbxydS9_NS2_14adl_serializerENS5_IhNS9_IhEEEEvEELi0ELb0EEC2B8ne180100IDnvEEOT_, symObjAddr: 0x1D9EC, symBinAddr: 0x10001E8A8, symSize: 0x1C }
  - { offset: 0x33EA6, size: 0x8, addend: 0x0, symName: __ZNSt3__122__compressed_pair_elemINS_9allocatorIPN8nlohmann16json_abi_v3_11_310basic_jsonINS_3mapENS_6vectorENS_12basic_stringIcNS_11char_traitsIcEENS1_IcEEEEbxydS1_NS3_14adl_serializerENS6_IhNS1_IhEEEEvEEEELi1ELb1EEC2B8ne180100ENS_18__default_init_tagE, symObjAddr: 0x1DA08, symBinAddr: 0x10001E8C4, symSize: 0x2C }
  - { offset: 0x33EDA, size: 0x8, addend: 0x0, symName: __ZNSt3__19allocatorIPN8nlohmann16json_abi_v3_11_310basic_jsonINS_3mapENS_6vectorENS_12basic_stringIcNS_11char_traitsIcEENS0_IcEEEEbxydS0_NS2_14adl_serializerENS5_IhNS0_IhEEEEvEEEC2B8ne180100Ev, symObjAddr: 0x1DA34, symBinAddr: 0x10001E8F0, symSize: 0x2C }
  - { offset: 0x33F04, size: 0x8, addend: 0x0, symName: __ZNSt3__116__non_trivial_ifILb1ENS_9allocatorIPN8nlohmann16json_abi_v3_11_310basic_jsonINS_3mapENS_6vectorENS_12basic_stringIcNS_11char_traitsIcEENS1_IcEEEEbxydS1_NS3_14adl_serializerENS6_IhNS1_IhEEEEvEEEEEC2B8ne180100Ev, symObjAddr: 0x1DA60, symBinAddr: 0x10001E91C, symSize: 0x14 }
  - { offset: 0x33F2E, size: 0x8, addend: 0x0, symName: __ZNSt3__16vectorIbNS_9allocatorIbEEEC2B8ne180100Ev, symObjAddr: 0x1DA74, symBinAddr: 0x10001E930, symSize: 0x4C }
  - { offset: 0x33F5A, size: 0x8, addend: 0x0, symName: __ZNSt3__117__compressed_pairImNS_9allocatorImEEEC1B8ne180100IiNS_18__default_init_tagEEEOT_OT0_, symObjAddr: 0x1DAC0, symBinAddr: 0x10001E97C, symSize: 0x3C }
  - { offset: 0x33FB2, size: 0x8, addend: 0x0, symName: __ZNSt3__117__compressed_pairImNS_9allocatorImEEEC2B8ne180100IiNS_18__default_init_tagEEEOT_OT0_, symObjAddr: 0x1DAFC, symBinAddr: 0x10001E9B8, symSize: 0x40 }
  - { offset: 0x3400A, size: 0x8, addend: 0x0, symName: __ZNSt3__122__compressed_pair_elemINS_9allocatorImEELi1ELb1EEC2B8ne180100ENS_18__default_init_tagE, symObjAddr: 0x1DB3C, symBinAddr: 0x10001E9F8, symSize: 0x2C }
  - { offset: 0x3403E, size: 0x8, addend: 0x0, symName: __ZNSt3__19allocatorImEC2B8ne180100Ev, symObjAddr: 0x1DB68, symBinAddr: 0x10001EA24, symSize: 0x2C }
  - { offset: 0x34068, size: 0x8, addend: 0x0, symName: __ZNSt3__116__non_trivial_ifILb1ENS_9allocatorImEEEC2B8ne180100Ev, symObjAddr: 0x1DB94, symBinAddr: 0x10001EA50, symSize: 0x14 }
  - { offset: 0x34092, size: 0x8, addend: 0x0, symName: __ZNKSt3__16vectorIbNS_9allocatorIbEEE8capacityB8ne180100Ev, symObjAddr: 0x1DBA8, symBinAddr: 0x10001EA64, symSize: 0x2C }
  - { offset: 0x340B8, size: 0x8, addend: 0x0, symName: __ZNSt3__16vectorIbNS_9allocatorIbEEE7reserveEm, symObjAddr: 0x1DBD4, symBinAddr: 0x10001EA90, symSize: 0x118 }
  - { offset: 0x34104, size: 0x8, addend: 0x0, symName: __ZNKSt3__16vectorIbNS_9allocatorIbEEE11__recommendB8ne180100Em, symObjAddr: 0x1DCEC, symBinAddr: 0x10001EBA8, symSize: 0xCC }
  - { offset: 0x34159, size: 0x8, addend: 0x0, symName: __ZNSt3__16vectorIbNS_9allocatorIbEEE4backB8ne180100Ev, symObjAddr: 0x1DDB8, symBinAddr: 0x10001EC74, symSize: 0x3C }
  - { offset: 0x3417F, size: 0x8, addend: 0x0, symName: __ZNSt3__115__bit_referenceINS_6vectorIbNS_9allocatorIbEEEELb1EEaSB8ne180100Eb, symObjAddr: 0x1DDF4, symBinAddr: 0x10001ECB0, symSize: 0x6C }
  - { offset: 0x341B3, size: 0x8, addend: 0x0, symName: __ZNSt3__16vectorIbNS_9allocatorIbEEE26__internal_cap_to_externalB8ne180100Em, symObjAddr: 0x1DE60, symBinAddr: 0x10001ED1C, symSize: 0x18 }
  - { offset: 0x341D7, size: 0x8, addend: 0x0, symName: __ZNKSt3__16vectorIbNS_9allocatorIbEEE5__capB8ne180100Ev, symObjAddr: 0x1DE78, symBinAddr: 0x10001ED34, symSize: 0x28 }
  - { offset: 0x341FD, size: 0x8, addend: 0x0, symName: __ZNKSt3__117__compressed_pairImNS_9allocatorImEEE5firstB8ne180100Ev, symObjAddr: 0x1DEA0, symBinAddr: 0x10001ED5C, symSize: 0x24 }
  - { offset: 0x34223, size: 0x8, addend: 0x0, symName: __ZNKSt3__16vectorIbNS_9allocatorIbEEE8max_sizeEv, symObjAddr: 0x1DEC4, symBinAddr: 0x10001ED80, symSize: 0x7C }
  - { offset: 0x34269, size: 0x8, addend: 0x0, symName: __ZNKSt3__16vectorIbNS_9allocatorIbEEE20__throw_length_errorB8ne180100Ev, symObjAddr: 0x1DF40, symBinAddr: 0x10001EDFC, symSize: 0x1C }
  - { offset: 0x3428F, size: 0x8, addend: 0x0, symName: __ZNKSt3__16vectorIbNS_9allocatorIbEEE13get_allocatorB8ne180100Ev, symObjAddr: 0x1DF5C, symBinAddr: 0x10001EE18, symSize: 0x30 }
  - { offset: 0x342B5, size: 0x8, addend: 0x0, symName: __ZNSt3__16vectorIbNS_9allocatorIbEEEC1B8ne180100ERKS2_, symObjAddr: 0x1DF8C, symBinAddr: 0x10001EE48, symSize: 0x34 }
  - { offset: 0x342F0, size: 0x8, addend: 0x0, symName: __ZNSt3__16vectorIbNS_9allocatorIbEEE11__vallocateB8ne180100Em, symObjAddr: 0x1DFC0, symBinAddr: 0x10001EE7C, symSize: 0xA0 }
  - { offset: 0x34334, size: 0x8, addend: 0x0, symName: __ZNSt3__16vectorIbNS_9allocatorIbEEE18__construct_at_endINS_14__bit_iteratorIS3_Lb0ELm0EEES6_EEvT_T0_m, symObjAddr: 0x1E060, symBinAddr: 0x10001EF1C, symSize: 0x12C }
  - { offset: 0x343AC, size: 0x8, addend: 0x0, symName: __ZNSt3__16vectorIbNS_9allocatorIbEEE5beginB8ne180100Ev, symObjAddr: 0x1E18C, symBinAddr: 0x10001F048, symSize: 0x30 }
  - { offset: 0x343D2, size: 0x8, addend: 0x0, symName: __ZNSt3__16vectorIbNS_9allocatorIbEEE3endB8ne180100Ev, symObjAddr: 0x1E1BC, symBinAddr: 0x10001F078, symSize: 0x30 }
  - { offset: 0x343F8, size: 0x8, addend: 0x0, symName: __ZNKSt3__16vectorIbNS_9allocatorIbEEE4sizeB8ne180100Ev, symObjAddr: 0x1E1EC, symBinAddr: 0x10001F0A8, symSize: 0x18 }
  - { offset: 0x3441E, size: 0x8, addend: 0x0, symName: __ZNSt3__16vectorIbNS_9allocatorIbEEE4swapERS3_, symObjAddr: 0x1E204, symBinAddr: 0x10001F0C0, symSize: 0x84 }
  - { offset: 0x34460, size: 0x8, addend: 0x0, symName: __ZNSt3__116allocator_traitsINS_9allocatorImEEE8max_sizeB8ne180100IS2_vvEEmRKS2_, symObjAddr: 0x1E288, symBinAddr: 0x10001F144, symSize: 0x28 }
  - { offset: 0x3448C, size: 0x8, addend: 0x0, symName: __ZNKSt3__16vectorIbNS_9allocatorIbEEE7__allocB8ne180100Ev, symObjAddr: 0x1E2B0, symBinAddr: 0x10001F16C, symSize: 0x28 }
  - { offset: 0x344B2, size: 0x8, addend: 0x0, symName: __ZNKSt3__117__compressed_pairImNS_9allocatorImEEE6secondB8ne180100Ev, symObjAddr: 0x1E2D8, symBinAddr: 0x10001F194, symSize: 0x24 }
  - { offset: 0x344D8, size: 0x8, addend: 0x0, symName: __ZNKSt3__122__compressed_pair_elemINS_9allocatorImEELi1ELb1EE5__getB8ne180100Ev, symObjAddr: 0x1E2FC, symBinAddr: 0x10001F1B8, symSize: 0x14 }
  - { offset: 0x344FE, size: 0x8, addend: 0x0, symName: __ZNSt3__19allocatorIbEC1B8ne180100ImEERKNS0_IT_EE, symObjAddr: 0x1E310, symBinAddr: 0x10001F1CC, symSize: 0x34 }
  - { offset: 0x3453B, size: 0x8, addend: 0x0, symName: __ZNSt3__19allocatorIbEC2B8ne180100ImEERKNS0_IT_EE, symObjAddr: 0x1E344, symBinAddr: 0x10001F200, symSize: 0x30 }
  - { offset: 0x34578, size: 0x8, addend: 0x0, symName: __ZNSt3__116__non_trivial_ifILb1ENS_9allocatorIbEEEC2B8ne180100Ev, symObjAddr: 0x1E374, symBinAddr: 0x10001F230, symSize: 0x14 }
  - { offset: 0x345A2, size: 0x8, addend: 0x0, symName: __ZNSt3__16vectorIbNS_9allocatorIbEEEC2B8ne180100ERKS2_, symObjAddr: 0x1E388, symBinAddr: 0x10001F244, symSize: 0x6C }
  - { offset: 0x345E8, size: 0x8, addend: 0x0, symName: __ZNSt3__19allocatorImEC1B8ne180100IbEERKNS0_IT_EE, symObjAddr: 0x1E3F4, symBinAddr: 0x10001F2B0, symSize: 0x34 }
  - { offset: 0x3462B, size: 0x8, addend: 0x0, symName: __ZNSt3__117__compressed_pairImNS_9allocatorImEEEC1B8ne180100IiS2_EEOT_OT0_, symObjAddr: 0x1E428, symBinAddr: 0x10001F2E4, symSize: 0x3C }
  - { offset: 0x34683, size: 0x8, addend: 0x0, symName: __ZNSt3__19allocatorImEC2B8ne180100IbEERKNS0_IT_EE, symObjAddr: 0x1E464, symBinAddr: 0x10001F320, symSize: 0x30 }
  - { offset: 0x346C0, size: 0x8, addend: 0x0, symName: __ZNSt3__117__compressed_pairImNS_9allocatorImEEEC2B8ne180100IiS2_EEOT_OT0_, symObjAddr: 0x1E494, symBinAddr: 0x10001F350, symSize: 0x44 }
  - { offset: 0x34718, size: 0x8, addend: 0x0, symName: __ZNSt3__122__compressed_pair_elemINS_9allocatorImEELi1ELb1EEC2B8ne180100IS2_vEEOT_, symObjAddr: 0x1E4D8, symBinAddr: 0x10001F394, symSize: 0x18 }
  - { offset: 0x3475A, size: 0x8, addend: 0x0, symName: __ZNSt3__16vectorIbNS_9allocatorIbEEE7__allocB8ne180100Ev, symObjAddr: 0x1E530, symBinAddr: 0x10001F3EC, symSize: 0x28 }
  - { offset: 0x34780, size: 0x8, addend: 0x0, symName: __ZNSt3__16vectorIbNS_9allocatorIbEEE26__external_cap_to_internalB8ne180100Em, symObjAddr: 0x1E558, symBinAddr: 0x10001F414, symSize: 0x24 }
  - { offset: 0x347A4, size: 0x8, addend: 0x0, symName: __ZNSt3__16vectorIbNS_9allocatorIbEEE5__capB8ne180100Ev, symObjAddr: 0x1E57C, symBinAddr: 0x10001F438, symSize: 0x28 }
  - { offset: 0x347CA, size: 0x8, addend: 0x0, symName: __ZNSt3__19allocatorImE8allocateB8ne180100Em, symObjAddr: 0x1E5A4, symBinAddr: 0x10001F460, symSize: 0x58 }
  - { offset: 0x347FE, size: 0x8, addend: 0x0, symName: __ZNSt3__117__compressed_pairImNS_9allocatorImEEE6secondB8ne180100Ev, symObjAddr: 0x1E5FC, symBinAddr: 0x10001F4B8, symSize: 0x24 }
  - { offset: 0x34824, size: 0x8, addend: 0x0, symName: __ZNSt3__122__compressed_pair_elemINS_9allocatorImEELi1ELb1EE5__getB8ne180100Ev, symObjAddr: 0x1E620, symBinAddr: 0x10001F4DC, symSize: 0x14 }
  - { offset: 0x3484A, size: 0x8, addend: 0x0, symName: __ZNSt3__117__compressed_pairImNS_9allocatorImEEE5firstB8ne180100Ev, symObjAddr: 0x1E634, symBinAddr: 0x10001F4F0, symSize: 0x24 }
  - { offset: 0x34870, size: 0x8, addend: 0x0, symName: __ZNSt3__114__bit_iteratorINS_6vectorIbNS_9allocatorIbEEEELb0ELm0EEC1B8ne180100ERKS5_, symObjAddr: 0x1E6E0, symBinAddr: 0x10001F59C, symSize: 0x34 }
  - { offset: 0x348A9, size: 0x8, addend: 0x0, symName: __ZNSt3__16vectorIbNS_9allocatorIbEEE11__make_iterB8ne180100Em, symObjAddr: 0x1E714, symBinAddr: 0x10001F5D0, symSize: 0x64 }
  - { offset: 0x34906, size: 0x8, addend: 0x0, symName: __ZNKSt3__111__copy_loopINS_17_ClassicAlgPolicyEEclB8ne180100INS_14__bit_iteratorINS_6vectorIbNS_9allocatorIbEEEELb0ELm0EEES9_S9_EENS_4pairIT_T1_EESB_T0_SC_, symObjAddr: 0x1E9C8, symBinAddr: 0x10001F884, symSize: 0xB8 }
  - { offset: 0x34974, size: 0x8, addend: 0x0, symName: __ZNSt3__119__unwrap_range_implINS_14__bit_iteratorINS_6vectorIbNS_9allocatorIbEEEELb0ELm0EEES6_E8__unwrapB8ne180100ES6_S6_, symObjAddr: 0x1EBE4, symBinAddr: 0x10001FAA0, symSize: 0x8C }
  - { offset: 0x349AD, size: 0x8, addend: 0x0, symName: __ZNSt3__14pairINS_14__bit_iteratorINS_6vectorIbNS_9allocatorIbEEEELb0ELm0EEES6_EC1B8ne180100IS6_S6_Li0EEEOT_OT0_, symObjAddr: 0x1EC70, symBinAddr: 0x10001FB2C, symSize: 0x3C }
  - { offset: 0x34A0B, size: 0x8, addend: 0x0, symName: __ZNSt3__14pairINS_14__bit_iteratorINS_6vectorIbNS_9allocatorIbEEEELb0ELm0EEES6_EC2B8ne180100IS6_S6_Li0EEEOT_OT0_, symObjAddr: 0x1ECAC, symBinAddr: 0x10001FB68, symSize: 0x48 }
  - { offset: 0x34A69, size: 0x8, addend: 0x0, symName: __ZNKSt3__114__bit_iteratorINS_6vectorIbNS_9allocatorIbEEEELb0ELm0EEdeB8ne180100Ev, symObjAddr: 0x1ED28, symBinAddr: 0x10001FBE4, symSize: 0x44 }
  - { offset: 0x34A8F, size: 0x8, addend: 0x0, symName: __ZNSt3__115__bit_referenceINS_6vectorIbNS_9allocatorIbEEEELb1EEaSB8ne180100ERKS5_, symObjAddr: 0x1ED6C, symBinAddr: 0x10001FC28, symSize: 0x40 }
  - { offset: 0x34AC3, size: 0x8, addend: 0x0, symName: __ZNSt3__114__bit_iteratorINS_6vectorIbNS_9allocatorIbEEEELb0ELm0EEppB8ne180100Ev, symObjAddr: 0x1EDAC, symBinAddr: 0x10001FC68, symSize: 0x5C }
  - { offset: 0x34AE9, size: 0x8, addend: 0x0, symName: __ZNSt3__115__bit_referenceINS_6vectorIbNS_9allocatorIbEEEELb1EEC1B8ne180100EPmm, symObjAddr: 0x1EE6C, symBinAddr: 0x10001FD28, symSize: 0x3C }
  - { offset: 0x34B2F, size: 0x8, addend: 0x0, symName: __ZNSt3__115__bit_referenceINS_6vectorIbNS_9allocatorIbEEEELb1EEC2B8ne180100EPmm, symObjAddr: 0x1EEA8, symBinAddr: 0x10001FD64, symSize: 0x2C }
  - { offset: 0x34B75, size: 0x8, addend: 0x0, symName: __ZNKSt3__115__bit_referenceINS_6vectorIbNS_9allocatorIbEEEELb1EEcvbB8ne180100Ev, symObjAddr: 0x1EED4, symBinAddr: 0x10001FD90, symSize: 0x2C }
  - { offset: 0x34B9B, size: 0x8, addend: 0x0, symName: __ZNSt3__118__unwrap_iter_implINS_14__bit_iteratorINS_6vectorIbNS_9allocatorIbEEEELb0ELm0EEELb0EE8__unwrapB8ne180100ES6_, symObjAddr: 0x1EF00, symBinAddr: 0x10001FDBC, symSize: 0x38 }
  - { offset: 0x34BBF, size: 0x8, addend: 0x0, symName: __ZNSt3__119__unwrap_range_implINS_14__bit_iteratorINS_6vectorIbNS_9allocatorIbEEEELb0ELm0EEES6_E8__rewrapB8ne180100ES6_S6_, symObjAddr: 0x1EF38, symBinAddr: 0x10001FDF4, symSize: 0x6C }
  - { offset: 0x34BF2, size: 0x8, addend: 0x0, symName: __ZNSt3__118__unwrap_iter_implINS_14__bit_iteratorINS_6vectorIbNS_9allocatorIbEEEELb0ELm0EEELb0EE8__rewrapB8ne180100ES6_S6_, symObjAddr: 0x1EFA4, symBinAddr: 0x10001FE60, symSize: 0x3C }
  - { offset: 0x34C21, size: 0x8, addend: 0x0, symName: __ZNSt3__114__bit_iteratorINS_6vectorIbNS_9allocatorIbEEEELb0ELm0EEC2B8ne180100ERKS5_, symObjAddr: 0x1EFE0, symBinAddr: 0x10001FE9C, symSize: 0x30 }
  - { offset: 0x34C5A, size: 0x8, addend: 0x0, symName: __ZNSt3__114__bit_iteratorINS_6vectorIbNS_9allocatorIbEEEELb0ELm0EEC1B8ne180100EPmj, symObjAddr: 0x1F010, symBinAddr: 0x10001FECC, symSize: 0x3C }
  - { offset: 0x34CA2, size: 0x8, addend: 0x0, symName: __ZNSt3__114__bit_iteratorINS_6vectorIbNS_9allocatorIbEEEELb0ELm0EEC2B8ne180100EPmj, symObjAddr: 0x1F04C, symBinAddr: 0x10001FF08, symSize: 0x2C }
  - { offset: 0x34CEA, size: 0x8, addend: 0x0, symName: __ZNSt3__16vectorIbNS_9allocatorIbEEE10__align_itB8ne180100Em, symObjAddr: 0x1F104, symBinAddr: 0x10001FFC0, symSize: 0x1C }
  - { offset: 0x34D0E, size: 0x8, addend: 0x0, symName: __ZNSt3__16vectorIbNS_9allocatorIbEEE10__make_refB8ne180100Em, symObjAddr: 0x1F120, symBinAddr: 0x10001FFDC, symSize: 0x60 }
  - { offset: 0x34D43, size: 0x8, addend: 0x0, symName: __ZNSt3__16vectorIbNS_9allocatorIbEEED2B8ne180100Ev, symObjAddr: 0x1F180, symBinAddr: 0x10002003C, symSize: 0x44 }
  - { offset: 0x34D6D, size: 0x8, addend: 0x0, symName: __ZNSt3__16vectorIbNS_9allocatorIbEEE16__destroy_vectorC1B8ne180100ERS3_, symObjAddr: 0x1F1C4, symBinAddr: 0x100020080, symSize: 0x34 }
  - { offset: 0x34DA6, size: 0x8, addend: 0x0, symName: __ZNSt3__16vectorIbNS_9allocatorIbEEE16__destroy_vectorclB8ne180100Ev, symObjAddr: 0x1F1F8, symBinAddr: 0x1000200B4, symSize: 0x7C }
  - { offset: 0x34DCC, size: 0x8, addend: 0x0, symName: __ZNSt3__16vectorIbNS_9allocatorIbEEE16__destroy_vectorC2B8ne180100ERS3_, symObjAddr: 0x1F274, symBinAddr: 0x100020130, symSize: 0x20 }
  - { offset: 0x34E05, size: 0x8, addend: 0x0, symName: __ZNSt3__116allocator_traitsINS_9allocatorImEEE10deallocateB8ne180100ERS2_Pmm, symObjAddr: 0x1F294, symBinAddr: 0x100020150, symSize: 0x34 }
  - { offset: 0x34E47, size: 0x8, addend: 0x0, symName: __ZNSt3__19allocatorImE10deallocateB8ne180100EPmm, symObjAddr: 0x1F2C8, symBinAddr: 0x100020184, symSize: 0x40 }
  - { offset: 0x34E89, size: 0x8, addend: 0x0, symName: __ZNSt3__16vectorIPN8nlohmann16json_abi_v3_11_310basic_jsonINS_3mapES0_NS_12basic_stringIcNS_11char_traitsIcEENS_9allocatorIcEEEEbxydS8_NS2_14adl_serializerENS0_IhNS8_IhEEEEvEENS8_ISF_EEED2B8ne180100Ev, symObjAddr: 0x1F308, symBinAddr: 0x1000201C4, symSize: 0x44 }
  - { offset: 0x34EB3, size: 0x8, addend: 0x0, symName: __ZNSt3__16vectorIPN8nlohmann16json_abi_v3_11_310basic_jsonINS_3mapES0_NS_12basic_stringIcNS_11char_traitsIcEENS_9allocatorIcEEEEbxydS8_NS2_14adl_serializerENS0_IhNS8_IhEEEEvEENS8_ISF_EEE16__destroy_vectorC1B8ne180100ERSH_, symObjAddr: 0x1F34C, symBinAddr: 0x100020208, symSize: 0x34 }
  - { offset: 0x34EEC, size: 0x8, addend: 0x0, symName: __ZNSt3__16vectorIPN8nlohmann16json_abi_v3_11_310basic_jsonINS_3mapES0_NS_12basic_stringIcNS_11char_traitsIcEENS_9allocatorIcEEEEbxydS8_NS2_14adl_serializerENS0_IhNS8_IhEEEEvEENS8_ISF_EEE16__destroy_vectorclB8ne180100Ev, symObjAddr: 0x1F380, symBinAddr: 0x10002023C, symSize: 0x90 }
  - { offset: 0x34F12, size: 0x8, addend: 0x0, symName: __ZNSt3__16vectorIPN8nlohmann16json_abi_v3_11_310basic_jsonINS_3mapES0_NS_12basic_stringIcNS_11char_traitsIcEENS_9allocatorIcEEEEbxydS8_NS2_14adl_serializerENS0_IhNS8_IhEEEEvEENS8_ISF_EEE16__destroy_vectorC2B8ne180100ERSH_, symObjAddr: 0x1F410, symBinAddr: 0x1000202CC, symSize: 0x20 }
  - { offset: 0x34F4B, size: 0x8, addend: 0x0, symName: __ZNSt3__16vectorIPN8nlohmann16json_abi_v3_11_310basic_jsonINS_3mapES0_NS_12basic_stringIcNS_11char_traitsIcEENS_9allocatorIcEEEEbxydS8_NS2_14adl_serializerENS0_IhNS8_IhEEEEvEENS8_ISF_EEE7__clearB8ne180100Ev, symObjAddr: 0x1F430, symBinAddr: 0x1000202EC, symSize: 0x28 }
  - { offset: 0x34F71, size: 0x8, addend: 0x0, symName: __ZNKSt3__16vectorIPN8nlohmann16json_abi_v3_11_310basic_jsonINS_3mapES0_NS_12basic_stringIcNS_11char_traitsIcEENS_9allocatorIcEEEEbxydS8_NS2_14adl_serializerENS0_IhNS8_IhEEEEvEENS8_ISF_EEE17__annotate_deleteB8ne180100Ev, symObjAddr: 0x1F458, symBinAddr: 0x100020314, symSize: 0x10 }
  - { offset: 0x34F97, size: 0x8, addend: 0x0, symName: __ZNSt3__116allocator_traitsINS_9allocatorIPN8nlohmann16json_abi_v3_11_310basic_jsonINS_3mapENS_6vectorENS_12basic_stringIcNS_11char_traitsIcEENS1_IcEEEEbxydS1_NS3_14adl_serializerENS6_IhNS1_IhEEEEvEEEEE10deallocateB8ne180100ERSH_PSG_m, symObjAddr: 0x1F468, symBinAddr: 0x100020324, symSize: 0x34 }
  - { offset: 0x34FD9, size: 0x8, addend: 0x0, symName: __ZNSt3__16vectorIPN8nlohmann16json_abi_v3_11_310basic_jsonINS_3mapES0_NS_12basic_stringIcNS_11char_traitsIcEENS_9allocatorIcEEEEbxydS8_NS2_14adl_serializerENS0_IhNS8_IhEEEEvEENS8_ISF_EEE7__allocB8ne180100Ev, symObjAddr: 0x1F49C, symBinAddr: 0x100020358, symSize: 0x28 }
  - { offset: 0x34FFF, size: 0x8, addend: 0x0, symName: __ZNKSt3__16vectorIPN8nlohmann16json_abi_v3_11_310basic_jsonINS_3mapES0_NS_12basic_stringIcNS_11char_traitsIcEENS_9allocatorIcEEEEbxydS8_NS2_14adl_serializerENS0_IhNS8_IhEEEEvEENS8_ISF_EEE8capacityB8ne180100Ev, symObjAddr: 0x1F4C4, symBinAddr: 0x100020380, symSize: 0x40 }
  - { offset: 0x35025, size: 0x8, addend: 0x0, symName: __ZNSt3__16vectorIPN8nlohmann16json_abi_v3_11_310basic_jsonINS_3mapES0_NS_12basic_stringIcNS_11char_traitsIcEENS_9allocatorIcEEEEbxydS8_NS2_14adl_serializerENS0_IhNS8_IhEEEEvEENS8_ISF_EEE22__base_destruct_at_endB8ne180100EPSF_, symObjAddr: 0x1F504, symBinAddr: 0x1000203C0, symSize: 0x8C }
  - { offset: 0x35069, size: 0x8, addend: 0x0, symName: __ZNSt3__116allocator_traitsINS_9allocatorIPN8nlohmann16json_abi_v3_11_310basic_jsonINS_3mapENS_6vectorENS_12basic_stringIcNS_11char_traitsIcEENS1_IcEEEEbxydS1_NS3_14adl_serializerENS6_IhNS1_IhEEEEvEEEEE7destroyB8ne180100ISG_vvEEvRSH_PT_, symObjAddr: 0x1F590, symBinAddr: 0x10002044C, symSize: 0x28 }
  - { offset: 0x350A4, size: 0x8, addend: 0x0, symName: __ZNSt3__19allocatorIPN8nlohmann16json_abi_v3_11_310basic_jsonINS_3mapENS_6vectorENS_12basic_stringIcNS_11char_traitsIcEENS0_IcEEEEbxydS0_NS2_14adl_serializerENS5_IhNS0_IhEEEEvEEE10deallocateB8ne180100EPSF_m, symObjAddr: 0x1F5DC, symBinAddr: 0x100020498, symSize: 0x40 }
  - { offset: 0x350E6, size: 0x8, addend: 0x0, symName: __ZNSt3__117__compressed_pairIPPN8nlohmann16json_abi_v3_11_310basic_jsonINS_3mapENS_6vectorENS_12basic_stringIcNS_11char_traitsIcEENS_9allocatorIcEEEEbxydS9_NS2_14adl_serializerENS5_IhNS9_IhEEEEvEENS9_ISG_EEE6secondB8ne180100Ev, symObjAddr: 0x1F61C, symBinAddr: 0x1000204D8, symSize: 0x24 }
  - { offset: 0x3510C, size: 0x8, addend: 0x0, symName: __ZNSt3__122__compressed_pair_elemINS_9allocatorIPN8nlohmann16json_abi_v3_11_310basic_jsonINS_3mapENS_6vectorENS_12basic_stringIcNS_11char_traitsIcEENS1_IcEEEEbxydS1_NS3_14adl_serializerENS6_IhNS1_IhEEEEvEEEELi1ELb1EE5__getB8ne180100Ev, symObjAddr: 0x1F640, symBinAddr: 0x1000204FC, symSize: 0x14 }
  - { offset: 0x35132, size: 0x8, addend: 0x0, symName: __ZNKSt3__16vectorIPN8nlohmann16json_abi_v3_11_310basic_jsonINS_3mapES0_NS_12basic_stringIcNS_11char_traitsIcEENS_9allocatorIcEEEEbxydS8_NS2_14adl_serializerENS0_IhNS8_IhEEEEvEENS8_ISF_EEE9__end_capB8ne180100Ev, symObjAddr: 0x1F654, symBinAddr: 0x100020510, symSize: 0x28 }
  - { offset: 0x35158, size: 0x8, addend: 0x0, symName: __ZNKSt3__117__compressed_pairIPPN8nlohmann16json_abi_v3_11_310basic_jsonINS_3mapENS_6vectorENS_12basic_stringIcNS_11char_traitsIcEENS_9allocatorIcEEEEbxydS9_NS2_14adl_serializerENS5_IhNS9_IhEEEEvEENS9_ISG_EEE5firstB8ne180100Ev, symObjAddr: 0x1F67C, symBinAddr: 0x100020538, symSize: 0x24 }
  - { offset: 0x3517E, size: 0x8, addend: 0x0, symName: __ZNKSt3__122__compressed_pair_elemIPPN8nlohmann16json_abi_v3_11_310basic_jsonINS_3mapENS_6vectorENS_12basic_stringIcNS_11char_traitsIcEENS_9allocatorIcEEEEbxydS9_NS2_14adl_serializerENS5_IhNS9_IhEEEEvEELi0ELb0EE5__getB8ne180100Ev, symObjAddr: 0x1F6A0, symBinAddr: 0x10002055C, symSize: 0x14 }
  - { offset: 0x351A4, size: 0x8, addend: 0x0, symName: __ZN8nlohmann16json_abi_v3_11_36detail28json_sax_dom_callback_parserINS0_10basic_jsonINSt3__13mapENS4_6vectorENS4_12basic_stringIcNS4_11char_traitsIcEENS4_9allocatorIcEEEEbxydSA_NS0_14adl_serializerENS6_IhNSA_IhEEEEvEEE12start_objectEm, symObjAddr: 0x1F6B4, symBinAddr: 0x100020570, symSize: 0x22C }
  - { offset: 0x351F7, size: 0x8, addend: 0x0, symName: __ZN8nlohmann16json_abi_v3_11_36detail28json_sax_dom_callback_parserINS0_10basic_jsonINSt3__13mapENS4_6vectorENS4_12basic_stringIcNS4_11char_traitsIcEENS4_9allocatorIcEEEEbxydSA_NS0_14adl_serializerENS6_IhNSA_IhEEEEvEEE10end_objectEv, symObjAddr: 0x1F8E0, symBinAddr: 0x10002079C, symSize: 0x278 }
  - { offset: 0x3523B, size: 0x8, addend: 0x0, symName: __ZN8nlohmann16json_abi_v3_11_36detail28json_sax_dom_callback_parserINS0_10basic_jsonINSt3__13mapENS4_6vectorENS4_12basic_stringIcNS4_11char_traitsIcEENS4_9allocatorIcEEEEbxydSA_NS0_14adl_serializerENS6_IhNSA_IhEEEEvEEE3keyERSC_, symObjAddr: 0x1FB58, symBinAddr: 0x100020A14, symSize: 0x15C }
  - { offset: 0x3528E, size: 0x8, addend: 0x0, symName: __ZN8nlohmann16json_abi_v3_11_36detail5lexerINS0_10basic_jsonINSt3__13mapENS4_6vectorENS4_12basic_stringIcNS4_11char_traitsIcEENS4_9allocatorIcEEEEbxydSA_NS0_14adl_serializerENS6_IhNSA_IhEEEEvEENS1_22iterator_input_adapterINS4_11__wrap_iterIPKcEEEEE10get_stringEv, symObjAddr: 0x1FCB4, symBinAddr: 0x100020B70, symSize: 0x18 }
  - { offset: 0x352B4, size: 0x8, addend: 0x0, symName: __ZN8nlohmann16json_abi_v3_11_36detail28json_sax_dom_callback_parserINS0_10basic_jsonINSt3__13mapENS4_6vectorENS4_12basic_stringIcNS4_11char_traitsIcEENS4_9allocatorIcEEEEbxydSA_NS0_14adl_serializerENS6_IhNSA_IhEEEEvEEE11start_arrayEm, symObjAddr: 0x1FCCC, symBinAddr: 0x100020B88, symSize: 0x22C }
  - { offset: 0x35307, size: 0x8, addend: 0x0, symName: __ZN8nlohmann16json_abi_v3_11_36detail28json_sax_dom_callback_parserINS0_10basic_jsonINSt3__13mapENS4_6vectorENS4_12basic_stringIcNS4_11char_traitsIcEENS4_9allocatorIcEEEEbxydSA_NS0_14adl_serializerENS6_IhNSA_IhEEEEvEEE9end_arrayEv, symObjAddr: 0x1FEF8, symBinAddr: 0x100020DB4, symSize: 0x1EC }
  - { offset: 0x3533C, size: 0x8, addend: 0x0, symName: __ZNK8nlohmann16json_abi_v3_11_36detail5lexerINS0_10basic_jsonINSt3__13mapENS4_6vectorENS4_12basic_stringIcNS4_11char_traitsIcEENS4_9allocatorIcEEEEbxydSA_NS0_14adl_serializerENS6_IhNSA_IhEEEEvEENS1_22iterator_input_adapterINS4_11__wrap_iterIPKcEEEEE16get_number_floatEv, symObjAddr: 0x200E4, symBinAddr: 0x100020FA0, symSize: 0x18 }
  - { offset: 0x35373, size: 0x8, addend: 0x0, symName: __ZN8nlohmann16json_abi_v3_11_36detail28json_sax_dom_callback_parserINS0_10basic_jsonINSt3__13mapENS4_6vectorENS4_12basic_stringIcNS4_11char_traitsIcEENS4_9allocatorIcEEEEbxydSA_NS0_14adl_serializerENS6_IhNSA_IhEEEEvEEE11parse_errorINS1_12out_of_rangeEEEbmRKSC_RKT_, symObjAddr: 0x20120, symBinAddr: 0x100020FDC, symSize: 0x74 }
  - { offset: 0x353C9, size: 0x8, addend: 0x0, symName: __ZN8nlohmann16json_abi_v3_11_36detail12out_of_range6createIDnLi0EEES2_iRKNSt3__112basic_stringIcNS4_11char_traitsIcEENS4_9allocatorIcEEEET_, symObjAddr: 0x20194, symBinAddr: 0x100021050, symSize: 0x130 }
  - { offset: 0x35425, size: 0x8, addend: 0x0, symName: __ZN8nlohmann16json_abi_v3_11_36detail12out_of_rangeD1Ev, symObjAddr: 0x2039C, symBinAddr: 0x100021258, symSize: 0x2C }
  - { offset: 0x35451, size: 0x8, addend: 0x0, symName: __ZN8nlohmann16json_abi_v3_11_36detail28json_sax_dom_callback_parserINS0_10basic_jsonINSt3__13mapENS4_6vectorENS4_12basic_stringIcNS4_11char_traitsIcEENS4_9allocatorIcEEEEbxydSA_NS0_14adl_serializerENS6_IhNSA_IhEEEEvEEE12number_floatEdRKSC_, symObjAddr: 0x203C8, symBinAddr: 0x100021284, symSize: 0x54 }
  - { offset: 0x35492, size: 0x8, addend: 0x0, symName: __ZN8nlohmann16json_abi_v3_11_36detail28json_sax_dom_callback_parserINS0_10basic_jsonINSt3__13mapENS4_6vectorENS4_12basic_stringIcNS4_11char_traitsIcEENS4_9allocatorIcEEEEbxydSA_NS0_14adl_serializerENS6_IhNSA_IhEEEEvEEE7booleanEb, symObjAddr: 0x2041C, symBinAddr: 0x1000212D8, symSize: 0x50 }
  - { offset: 0x354C7, size: 0x8, addend: 0x0, symName: __ZN8nlohmann16json_abi_v3_11_36detail28json_sax_dom_callback_parserINS0_10basic_jsonINSt3__13mapENS4_6vectorENS4_12basic_stringIcNS4_11char_traitsIcEENS4_9allocatorIcEEEEbxydSA_NS0_14adl_serializerENS6_IhNSA_IhEEEEvEEE4nullEv, symObjAddr: 0x2046C, symBinAddr: 0x100021328, symSize: 0x4C }
  - { offset: 0x354ED, size: 0x8, addend: 0x0, symName: __ZN8nlohmann16json_abi_v3_11_36detail28json_sax_dom_callback_parserINS0_10basic_jsonINSt3__13mapENS4_6vectorENS4_12basic_stringIcNS4_11char_traitsIcEENS4_9allocatorIcEEEEbxydSA_NS0_14adl_serializerENS6_IhNSA_IhEEEEvEEE14number_integerEx, symObjAddr: 0x204B8, symBinAddr: 0x100021374, symSize: 0x50 }
  - { offset: 0x35522, size: 0x8, addend: 0x0, symName: __ZNK8nlohmann16json_abi_v3_11_36detail5lexerINS0_10basic_jsonINSt3__13mapENS4_6vectorENS4_12basic_stringIcNS4_11char_traitsIcEENS4_9allocatorIcEEEEbxydSA_NS0_14adl_serializerENS6_IhNSA_IhEEEEvEENS1_22iterator_input_adapterINS4_11__wrap_iterIPKcEEEEE18get_number_integerEv, symObjAddr: 0x20508, symBinAddr: 0x1000213C4, symSize: 0x18 }
  - { offset: 0x35548, size: 0x8, addend: 0x0, symName: __ZN8nlohmann16json_abi_v3_11_36detail28json_sax_dom_callback_parserINS0_10basic_jsonINSt3__13mapENS4_6vectorENS4_12basic_stringIcNS4_11char_traitsIcEENS4_9allocatorIcEEEEbxydSA_NS0_14adl_serializerENS6_IhNSA_IhEEEEvEEE6stringERSC_, symObjAddr: 0x20520, symBinAddr: 0x1000213DC, symSize: 0x4C }
  - { offset: 0x3557D, size: 0x8, addend: 0x0, symName: __ZN8nlohmann16json_abi_v3_11_36detail28json_sax_dom_callback_parserINS0_10basic_jsonINSt3__13mapENS4_6vectorENS4_12basic_stringIcNS4_11char_traitsIcEENS4_9allocatorIcEEEEbxydSA_NS0_14adl_serializerENS6_IhNSA_IhEEEEvEEE15number_unsignedEy, symObjAddr: 0x2056C, symBinAddr: 0x100021428, symSize: 0x50 }
  - { offset: 0x355B2, size: 0x8, addend: 0x0, symName: __ZNK8nlohmann16json_abi_v3_11_36detail5lexerINS0_10basic_jsonINSt3__13mapENS4_6vectorENS4_12basic_stringIcNS4_11char_traitsIcEENS4_9allocatorIcEEEEbxydSA_NS0_14adl_serializerENS6_IhNSA_IhEEEEvEENS1_22iterator_input_adapterINS4_11__wrap_iterIPKcEEEEE19get_number_unsignedEv, symObjAddr: 0x205BC, symBinAddr: 0x100021478, symSize: 0x18 }
  - { offset: 0x355D8, size: 0x8, addend: 0x0, symName: __ZNKSt3__16vectorIbNS_9allocatorIbEEE5emptyB8ne180100Ev, symObjAddr: 0x205D4, symBinAddr: 0x100021490, symSize: 0x24 }
  - { offset: 0x355FE, size: 0x8, addend: 0x0, symName: __ZNSt3__16vectorIbNS_9allocatorIbEEE8pop_backB8ne180100Ev, symObjAddr: 0x205F8, symBinAddr: 0x1000214B4, symSize: 0x20 }
  - { offset: 0x35624, size: 0x8, addend: 0x0, symName: __ZNKSt3__18functionIFbiN8nlohmann16json_abi_v3_11_36detail13parse_event_tERNS2_10basic_jsonINS_3mapENS_6vectorENS_12basic_stringIcNS_11char_traitsIcEENS_9allocatorIcEEEEbxydSB_NS2_14adl_serializerENS7_IhNSB_IhEEEEvEEEEclEiS4_SI_, symObjAddr: 0x20618, symBinAddr: 0x1000214D4, symSize: 0x48 }
  - { offset: 0x35679, size: 0x8, addend: 0x0, symName: __ZNKSt3__16vectorIPN8nlohmann16json_abi_v3_11_310basic_jsonINS_3mapES0_NS_12basic_stringIcNS_11char_traitsIcEENS_9allocatorIcEEEEbxydS8_NS2_14adl_serializerENS0_IhNS8_IhEEEEvEENS8_ISF_EEE4sizeB8ne180100Ev, symObjAddr: 0x20660, symBinAddr: 0x10002151C, symSize: 0x28 }
  - { offset: 0x356C2, size: 0x8, addend: 0x0, symName: __ZN8nlohmann16json_abi_v3_11_36detail28json_sax_dom_callback_parserINS0_10basic_jsonINSt3__13mapENS4_6vectorENS4_12basic_stringIcNS4_11char_traitsIcEENS4_9allocatorIcEEEEbxydSA_NS0_14adl_serializerENS6_IhNSA_IhEEEEvEEE12handle_valueINS1_7value_tEEENS4_4pairIbPSG_EEOT_b, symObjAddr: 0x20688, symBinAddr: 0x100021544, symSize: 0x4E0 }
  - { offset: 0x3573F, size: 0x8, addend: 0x0, symName: __ZNSt3__16vectorIPN8nlohmann16json_abi_v3_11_310basic_jsonINS_3mapES0_NS_12basic_stringIcNS_11char_traitsIcEENS_9allocatorIcEEEEbxydS8_NS2_14adl_serializerENS0_IhNS8_IhEEEEvEENS8_ISF_EEE9push_backB8ne180100ERKSF_, symObjAddr: 0x20B68, symBinAddr: 0x100021A24, symSize: 0x90 }
  - { offset: 0x35785, size: 0x8, addend: 0x0, symName: __ZNSt3__16vectorIPN8nlohmann16json_abi_v3_11_310basic_jsonINS_3mapES0_NS_12basic_stringIcNS_11char_traitsIcEENS_9allocatorIcEEEEbxydS8_NS2_14adl_serializerENS0_IhNS8_IhEEEEvEENS8_ISF_EEE4backB8ne180100Ev, symObjAddr: 0x20BF8, symBinAddr: 0x100021AB4, symSize: 0x1C }
  - { offset: 0x357AB, size: 0x8, addend: 0x0, symName: __ZNK8nlohmann16json_abi_v3_11_310basic_jsonINSt3__13mapENS2_6vectorENS2_12basic_stringIcNS2_11char_traitsIcEENS2_9allocatorIcEEEEbxydS8_NS0_14adl_serializerENS4_IhNS8_IhEEEEvE8max_sizeEv, symObjAddr: 0x20C14, symBinAddr: 0x100021AD0, symSize: 0xA0 }
  - { offset: 0x357D1, size: 0x8, addend: 0x0, symName: __ZN8nlohmann16json_abi_v3_11_36detail12out_of_range6createIPNS0_10basic_jsonINSt3__13mapENS5_6vectorENS5_12basic_stringIcNS5_11char_traitsIcEENS5_9allocatorIcEEEEbxydSB_NS0_14adl_serializerENS7_IhNSB_IhEEEEvEELi0EEES2_iRKSD_T_, symObjAddr: 0x20CDC, symBinAddr: 0x100021B98, symSize: 0x130 }
  - { offset: 0x3582D, size: 0x8, addend: 0x0, symName: __ZNKSt3__110__function12__value_funcIFbiN8nlohmann16json_abi_v3_11_36detail13parse_event_tERNS3_10basic_jsonINS_3mapENS_6vectorENS_12basic_stringIcNS_11char_traitsIcEENS_9allocatorIcEEEEbxydSC_NS3_14adl_serializerENS8_IhNSC_IhEEEEvEEEEclB8ne180100EOiOS5_SJ_, symObjAddr: 0x20ED8, symBinAddr: 0x100021D94, symSize: 0x6C }
  - { offset: 0x35897, size: 0x8, addend: 0x0, symName: __ZNSt3__117bad_function_callC1B8ne180100Ev, symObjAddr: 0x20F7C, symBinAddr: 0x100021E38, symSize: 0x2C }
  - { offset: 0x358C1, size: 0x8, addend: 0x0, symName: __ZNSt3__117bad_function_callD1Ev, symObjAddr: 0x20FA8, symBinAddr: 0x100021E64, symSize: 0x2C }
  - { offset: 0x358EB, size: 0x8, addend: 0x0, symName: __ZNSt3__117bad_function_callC2B8ne180100Ev, symObjAddr: 0x20FD4, symBinAddr: 0x100021E90, symSize: 0x3C }
  - { offset: 0x35915, size: 0x8, addend: 0x0, symName: __ZNSt3__117bad_function_callD0Ev, symObjAddr: 0x21010, symBinAddr: 0x100021ECC, symSize: 0x30 }
  - { offset: 0x3593F, size: 0x8, addend: 0x0, symName: __ZNSt3__117bad_function_callD2Ev, symObjAddr: 0x21040, symBinAddr: 0x100021EFC, symSize: 0x2C }
  - { offset: 0x3596F, size: 0x8, addend: 0x0, symName: __ZNSt3__14pairIbPN8nlohmann16json_abi_v3_11_310basic_jsonINS_3mapENS_6vectorENS_12basic_stringIcNS_11char_traitsIcEENS_9allocatorIcEEEEbxydS9_NS2_14adl_serializerENS5_IhNS9_IhEEEEvEEEC1B8ne180100IbDnLi0EEEOT_OT0_, symObjAddr: 0x2106C, symBinAddr: 0x100021F28, symSize: 0x3C }
  - { offset: 0x359CD, size: 0x8, addend: 0x0, symName: __ZNKSt3__16vectorIPN8nlohmann16json_abi_v3_11_310basic_jsonINS_3mapES0_NS_12basic_stringIcNS_11char_traitsIcEENS_9allocatorIcEEEEbxydS8_NS2_14adl_serializerENS0_IhNS8_IhEEEEvEENS8_ISF_EEE5emptyB8ne180100Ev, symObjAddr: 0x210A8, symBinAddr: 0x100021F64, symSize: 0x28 }
  - { offset: 0x359F3, size: 0x8, addend: 0x0, symName: __ZNSt3__14pairIbPN8nlohmann16json_abi_v3_11_310basic_jsonINS_3mapENS_6vectorENS_12basic_stringIcNS_11char_traitsIcEENS_9allocatorIcEEEEbxydS9_NS2_14adl_serializerENS5_IhNS9_IhEEEEvEEEC1B8ne180100IbSG_Li0EEEOT_OT0_, symObjAddr: 0x210D0, symBinAddr: 0x100021F8C, symSize: 0x3C }
  - { offset: 0x35A51, size: 0x8, addend: 0x0, symName: __ZNSt3__16vectorIN8nlohmann16json_abi_v3_11_310basic_jsonINS_3mapES0_NS_12basic_stringIcNS_11char_traitsIcEENS_9allocatorIcEEEEbxydS8_NS2_14adl_serializerENS0_IhNS8_IhEEEEvEENS8_ISE_EEE12emplace_backIJSE_EEERSE_DpOT_, symObjAddr: 0x2110C, symBinAddr: 0x100021FC8, symSize: 0x98 }
  - { offset: 0x35AA2, size: 0x8, addend: 0x0, symName: __ZNSt3__14pairIbPN8nlohmann16json_abi_v3_11_310basic_jsonINS_3mapENS_6vectorENS_12basic_stringIcNS_11char_traitsIcEENS_9allocatorIcEEEEbxydS9_NS2_14adl_serializerENS5_IhNS9_IhEEEEvEEEC1B8ne180100IbRSG_Li0EEEOT_OT0_, symObjAddr: 0x211A4, symBinAddr: 0x100022060, symSize: 0x3C }
  - { offset: 0x35B00, size: 0x8, addend: 0x0, symName: __ZNSt3__14pairIbPN8nlohmann16json_abi_v3_11_310basic_jsonINS_3mapENS_6vectorENS_12basic_stringIcNS_11char_traitsIcEENS_9allocatorIcEEEEbxydS9_NS2_14adl_serializerENS5_IhNS9_IhEEEEvEEEC2B8ne180100IbDnLi0EEEOT_OT0_, symObjAddr: 0x211E0, symBinAddr: 0x10002209C, symSize: 0x30 }
  - { offset: 0x35B5E, size: 0x8, addend: 0x0, symName: __ZNSt3__14pairIbPN8nlohmann16json_abi_v3_11_310basic_jsonINS_3mapENS_6vectorENS_12basic_stringIcNS_11char_traitsIcEENS_9allocatorIcEEEEbxydS9_NS2_14adl_serializerENS5_IhNS9_IhEEEEvEEEC2B8ne180100IbSG_Li0EEEOT_OT0_, symObjAddr: 0x21210, symBinAddr: 0x1000220CC, symSize: 0x38 }
  - { offset: 0x35BBC, size: 0x8, addend: 0x0, symName: __ZNSt3__16vectorIN8nlohmann16json_abi_v3_11_310basic_jsonINS_3mapES0_NS_12basic_stringIcNS_11char_traitsIcEENS_9allocatorIcEEEEbxydS8_NS2_14adl_serializerENS0_IhNS8_IhEEEEvEENS8_ISE_EEE24__emplace_back_slow_pathIJSE_EEEPSE_DpOT_, symObjAddr: 0x21248, symBinAddr: 0x100022104, symSize: 0xE8 }
  - { offset: 0x35C1C, size: 0x8, addend: 0x0, symName: __ZNSt3__14pairIbPN8nlohmann16json_abi_v3_11_310basic_jsonINS_3mapENS_6vectorENS_12basic_stringIcNS_11char_traitsIcEENS_9allocatorIcEEEEbxydS9_NS2_14adl_serializerENS5_IhNS9_IhEEEEvEEEC2B8ne180100IbRSG_Li0EEEOT_OT0_, symObjAddr: 0x21330, symBinAddr: 0x1000221EC, symSize: 0x38 }
  - { offset: 0x35C7A, size: 0x8, addend: 0x0, symName: __ZNSt3__16vectorIPN8nlohmann16json_abi_v3_11_310basic_jsonINS_3mapES0_NS_12basic_stringIcNS_11char_traitsIcEENS_9allocatorIcEEEEbxydS8_NS2_14adl_serializerENS0_IhNS8_IhEEEEvEENS8_ISF_EEE9__end_capB8ne180100Ev, symObjAddr: 0x21368, symBinAddr: 0x100022224, symSize: 0x28 }
  - { offset: 0x35CA0, size: 0x8, addend: 0x0, symName: __ZNSt3__16vectorIPN8nlohmann16json_abi_v3_11_310basic_jsonINS_3mapES0_NS_12basic_stringIcNS_11char_traitsIcEENS_9allocatorIcEEEEbxydS8_NS2_14adl_serializerENS0_IhNS8_IhEEEEvEENS8_ISF_EEE22__construct_one_at_endB8ne180100IJRKSF_EEEvDpOT_, symObjAddr: 0x21390, symBinAddr: 0x10002224C, symSize: 0x90 }
  - { offset: 0x35CEF, size: 0x8, addend: 0x0, symName: __ZNSt3__16vectorIPN8nlohmann16json_abi_v3_11_310basic_jsonINS_3mapES0_NS_12basic_stringIcNS_11char_traitsIcEENS_9allocatorIcEEEEbxydS8_NS2_14adl_serializerENS0_IhNS8_IhEEEEvEENS8_ISF_EEE21__push_back_slow_pathIRKSF_EEPSF_OT_, symObjAddr: 0x21420, symBinAddr: 0x1000222DC, symSize: 0xE8 }
  - { offset: 0x35D4D, size: 0x8, addend: 0x0, symName: __ZNSt3__117__compressed_pairIPPN8nlohmann16json_abi_v3_11_310basic_jsonINS_3mapENS_6vectorENS_12basic_stringIcNS_11char_traitsIcEENS_9allocatorIcEEEEbxydS9_NS2_14adl_serializerENS5_IhNS9_IhEEEEvEENS9_ISG_EEE5firstB8ne180100Ev, symObjAddr: 0x21508, symBinAddr: 0x1000223C4, symSize: 0x24 }
  - { offset: 0x35D73, size: 0x8, addend: 0x0, symName: __ZNSt3__122__compressed_pair_elemIPPN8nlohmann16json_abi_v3_11_310basic_jsonINS_3mapENS_6vectorENS_12basic_stringIcNS_11char_traitsIcEENS_9allocatorIcEEEEbxydS9_NS2_14adl_serializerENS5_IhNS9_IhEEEEvEELi0ELb0EE5__getB8ne180100Ev, symObjAddr: 0x2152C, symBinAddr: 0x1000223E8, symSize: 0x14 }
  - { offset: 0x35DB5, size: 0x8, addend: 0x0, symName: __ZNSt3__16vectorIPN8nlohmann16json_abi_v3_11_310basic_jsonINS_3mapES0_NS_12basic_stringIcNS_11char_traitsIcEENS_9allocatorIcEEEEbxydS8_NS2_14adl_serializerENS0_IhNS8_IhEEEEvEENS8_ISF_EEE21_ConstructTransactionC1B8ne180100ERSH_m, symObjAddr: 0x21540, symBinAddr: 0x1000223FC, symSize: 0x3C }
  - { offset: 0x35DFD, size: 0x8, addend: 0x0, symName: __ZNSt3__116allocator_traitsINS_9allocatorIPN8nlohmann16json_abi_v3_11_310basic_jsonINS_3mapENS_6vectorENS_12basic_stringIcNS_11char_traitsIcEENS1_IcEEEEbxydS1_NS3_14adl_serializerENS6_IhNS1_IhEEEEvEEEEE9constructB8ne180100ISG_JRKSG_EvvEEvRSH_PT_DpOT0_, symObjAddr: 0x2157C, symBinAddr: 0x100022438, symSize: 0x30 }
  - { offset: 0x35E52, size: 0x8, addend: 0x0, symName: __ZNSt3__16vectorIPN8nlohmann16json_abi_v3_11_310basic_jsonINS_3mapES0_NS_12basic_stringIcNS_11char_traitsIcEENS_9allocatorIcEEEEbxydS8_NS2_14adl_serializerENS0_IhNS8_IhEEEEvEENS8_ISF_EEE21_ConstructTransactionD1B8ne180100Ev, symObjAddr: 0x215AC, symBinAddr: 0x100022468, symSize: 0x2C }
  - { offset: 0x35E7C, size: 0x8, addend: 0x0, symName: __ZNSt3__16vectorIPN8nlohmann16json_abi_v3_11_310basic_jsonINS_3mapES0_NS_12basic_stringIcNS_11char_traitsIcEENS_9allocatorIcEEEEbxydS8_NS2_14adl_serializerENS0_IhNS8_IhEEEEvEENS8_ISF_EEE21_ConstructTransactionC2B8ne180100ERSH_m, symObjAddr: 0x215D8, symBinAddr: 0x100022494, symSize: 0x44 }
  - { offset: 0x35EC4, size: 0x8, addend: 0x0, symName: __ZNSt3__16vectorIPN8nlohmann16json_abi_v3_11_310basic_jsonINS_3mapES0_NS_12basic_stringIcNS_11char_traitsIcEENS_9allocatorIcEEEEbxydS8_NS2_14adl_serializerENS0_IhNS8_IhEEEEvEENS8_ISF_EEE21_ConstructTransactionD2B8ne180100Ev, symObjAddr: 0x2166C, symBinAddr: 0x100022528, symSize: 0x20 }
  - { offset: 0x35EEE, size: 0x8, addend: 0x0, symName: __ZNKSt3__16vectorIPN8nlohmann16json_abi_v3_11_310basic_jsonINS_3mapES0_NS_12basic_stringIcNS_11char_traitsIcEENS_9allocatorIcEEEEbxydS8_NS2_14adl_serializerENS0_IhNS8_IhEEEEvEENS8_ISF_EEE11__recommendB8ne180100Em, symObjAddr: 0x2168C, symBinAddr: 0x100022548, symSize: 0xB4 }
  - { offset: 0x35F43, size: 0x8, addend: 0x0, symName: __ZNSt3__114__split_bufferIPN8nlohmann16json_abi_v3_11_310basic_jsonINS_3mapENS_6vectorENS_12basic_stringIcNS_11char_traitsIcEENS_9allocatorIcEEEEbxydS9_NS2_14adl_serializerENS5_IhNS9_IhEEEEvEERNS9_ISG_EEEC1EmmSI_, symObjAddr: 0x21740, symBinAddr: 0x1000225FC, symSize: 0x44 }
  - { offset: 0x35F99, size: 0x8, addend: 0x0, symName: __ZNSt3__114__split_bufferIPN8nlohmann16json_abi_v3_11_310basic_jsonINS_3mapENS_6vectorENS_12basic_stringIcNS_11char_traitsIcEENS_9allocatorIcEEEEbxydS9_NS2_14adl_serializerENS5_IhNS9_IhEEEEvEERNS9_ISG_EEED1Ev, symObjAddr: 0x21894, symBinAddr: 0x100022750, symSize: 0x2C }
  - { offset: 0x35FC5, size: 0x8, addend: 0x0, symName: __ZNKSt3__16vectorIPN8nlohmann16json_abi_v3_11_310basic_jsonINS_3mapES0_NS_12basic_stringIcNS_11char_traitsIcEENS_9allocatorIcEEEEbxydS8_NS2_14adl_serializerENS0_IhNS8_IhEEEEvEENS8_ISF_EEE8max_sizeEv, symObjAddr: 0x218C0, symBinAddr: 0x10002277C, symSize: 0x60 }
  - { offset: 0x35FED, size: 0x8, addend: 0x0, symName: __ZNKSt3__16vectorIPN8nlohmann16json_abi_v3_11_310basic_jsonINS_3mapES0_NS_12basic_stringIcNS_11char_traitsIcEENS_9allocatorIcEEEEbxydS8_NS2_14adl_serializerENS0_IhNS8_IhEEEEvEENS8_ISF_EEE20__throw_length_errorB8ne180100Ev, symObjAddr: 0x21920, symBinAddr: 0x1000227DC, symSize: 0x1C }
  - { offset: 0x3601E, size: 0x8, addend: 0x0, symName: __ZNSt3__116allocator_traitsINS_9allocatorIPN8nlohmann16json_abi_v3_11_310basic_jsonINS_3mapENS_6vectorENS_12basic_stringIcNS_11char_traitsIcEENS1_IcEEEEbxydS1_NS3_14adl_serializerENS6_IhNS1_IhEEEEvEEEEE8max_sizeB8ne180100ISH_vvEEmRKSH_, symObjAddr: 0x2193C, symBinAddr: 0x1000227F8, symSize: 0x28 }
  - { offset: 0x3604A, size: 0x8, addend: 0x0, symName: __ZNKSt3__16vectorIPN8nlohmann16json_abi_v3_11_310basic_jsonINS_3mapES0_NS_12basic_stringIcNS_11char_traitsIcEENS_9allocatorIcEEEEbxydS8_NS2_14adl_serializerENS0_IhNS8_IhEEEEvEENS8_ISF_EEE7__allocB8ne180100Ev, symObjAddr: 0x21964, symBinAddr: 0x100022820, symSize: 0x28 }
  - { offset: 0x36070, size: 0x8, addend: 0x0, symName: __ZNKSt3__117__compressed_pairIPPN8nlohmann16json_abi_v3_11_310basic_jsonINS_3mapENS_6vectorENS_12basic_stringIcNS_11char_traitsIcEENS_9allocatorIcEEEEbxydS9_NS2_14adl_serializerENS5_IhNS9_IhEEEEvEENS9_ISG_EEE6secondB8ne180100Ev, symObjAddr: 0x2198C, symBinAddr: 0x100022848, symSize: 0x24 }
  - { offset: 0x36096, size: 0x8, addend: 0x0, symName: __ZNKSt3__122__compressed_pair_elemINS_9allocatorIPN8nlohmann16json_abi_v3_11_310basic_jsonINS_3mapENS_6vectorENS_12basic_stringIcNS_11char_traitsIcEENS1_IcEEEEbxydS1_NS3_14adl_serializerENS6_IhNS1_IhEEEEvEEEELi1ELb1EE5__getB8ne180100Ev, symObjAddr: 0x219B0, symBinAddr: 0x10002286C, symSize: 0x14 }
  - { offset: 0x360BC, size: 0x8, addend: 0x0, symName: __ZNSt3__114__split_bufferIPN8nlohmann16json_abi_v3_11_310basic_jsonINS_3mapENS_6vectorENS_12basic_stringIcNS_11char_traitsIcEENS_9allocatorIcEEEEbxydS9_NS2_14adl_serializerENS5_IhNS9_IhEEEEvEERNS9_ISG_EEEC2EmmSI_, symObjAddr: 0x219C4, symBinAddr: 0x100022880, symSize: 0xD4 }
  - { offset: 0x36130, size: 0x8, addend: 0x0, symName: __ZNSt3__117__compressed_pairIPPN8nlohmann16json_abi_v3_11_310basic_jsonINS_3mapENS_6vectorENS_12basic_stringIcNS_11char_traitsIcEENS_9allocatorIcEEEEbxydS9_NS2_14adl_serializerENS5_IhNS9_IhEEEEvEERNS9_ISG_EEEC1B8ne180100IDnSJ_EEOT_OT0_, symObjAddr: 0x21A98, symBinAddr: 0x100022954, symSize: 0x3C }
  - { offset: 0x36188, size: 0x8, addend: 0x0, symName: __ZNSt3__114__split_bufferIPN8nlohmann16json_abi_v3_11_310basic_jsonINS_3mapENS_6vectorENS_12basic_stringIcNS_11char_traitsIcEENS_9allocatorIcEEEEbxydS9_NS2_14adl_serializerENS5_IhNS9_IhEEEEvEERNS9_ISG_EEE7__allocB8ne180100Ev, symObjAddr: 0x21B14, symBinAddr: 0x1000229D0, symSize: 0x28 }
  - { offset: 0x361AE, size: 0x8, addend: 0x0, symName: __ZNSt3__114__split_bufferIPN8nlohmann16json_abi_v3_11_310basic_jsonINS_3mapENS_6vectorENS_12basic_stringIcNS_11char_traitsIcEENS_9allocatorIcEEEEbxydS9_NS2_14adl_serializerENS5_IhNS9_IhEEEEvEERNS9_ISG_EEE9__end_capB8ne180100Ev, symObjAddr: 0x21B3C, symBinAddr: 0x1000229F8, symSize: 0x28 }
  - { offset: 0x361D4, size: 0x8, addend: 0x0, symName: __ZNSt3__117__compressed_pairIPPN8nlohmann16json_abi_v3_11_310basic_jsonINS_3mapENS_6vectorENS_12basic_stringIcNS_11char_traitsIcEENS_9allocatorIcEEEEbxydS9_NS2_14adl_serializerENS5_IhNS9_IhEEEEvEERNS9_ISG_EEEC2B8ne180100IDnSJ_EEOT_OT0_, symObjAddr: 0x21B64, symBinAddr: 0x100022A20, symSize: 0x48 }
  - { offset: 0x3622C, size: 0x8, addend: 0x0, symName: __ZNSt3__122__compressed_pair_elemIRNS_9allocatorIPN8nlohmann16json_abi_v3_11_310basic_jsonINS_3mapENS_6vectorENS_12basic_stringIcNS_11char_traitsIcEENS1_IcEEEEbxydS1_NS3_14adl_serializerENS6_IhNS1_IhEEEEvEEEELi1ELb0EEC2B8ne180100ISI_vEEOT_, symObjAddr: 0x21BAC, symBinAddr: 0x100022A68, symSize: 0x20 }
  - { offset: 0x3626E, size: 0x8, addend: 0x0, symName: __ZNSt3__19allocatorIPN8nlohmann16json_abi_v3_11_310basic_jsonINS_3mapENS_6vectorENS_12basic_stringIcNS_11char_traitsIcEENS0_IcEEEEbxydS0_NS2_14adl_serializerENS5_IhNS0_IhEEEEvEEE8allocateB8ne180100Em, symObjAddr: 0x21BCC, symBinAddr: 0x100022A88, symSize: 0x58 }
  - { offset: 0x362A2, size: 0x8, addend: 0x0, symName: __ZNSt3__117__compressed_pairIPPN8nlohmann16json_abi_v3_11_310basic_jsonINS_3mapENS_6vectorENS_12basic_stringIcNS_11char_traitsIcEENS_9allocatorIcEEEEbxydS9_NS2_14adl_serializerENS5_IhNS9_IhEEEEvEERNS9_ISG_EEE6secondB8ne180100Ev, symObjAddr: 0x21C24, symBinAddr: 0x100022AE0, symSize: 0x28 }
  - { offset: 0x362C8, size: 0x8, addend: 0x0, symName: __ZNSt3__122__compressed_pair_elemIRNS_9allocatorIPN8nlohmann16json_abi_v3_11_310basic_jsonINS_3mapENS_6vectorENS_12basic_stringIcNS_11char_traitsIcEENS1_IcEEEEbxydS1_NS3_14adl_serializerENS6_IhNS1_IhEEEEvEEEELi1ELb0EE5__getB8ne180100Ev, symObjAddr: 0x21C4C, symBinAddr: 0x100022B08, symSize: 0x18 }
  - { offset: 0x362EE, size: 0x8, addend: 0x0, symName: __ZNSt3__117__compressed_pairIPPN8nlohmann16json_abi_v3_11_310basic_jsonINS_3mapENS_6vectorENS_12basic_stringIcNS_11char_traitsIcEENS_9allocatorIcEEEEbxydS9_NS2_14adl_serializerENS5_IhNS9_IhEEEEvEERNS9_ISG_EEE5firstB8ne180100Ev, symObjAddr: 0x21C64, symBinAddr: 0x100022B20, symSize: 0x24 }
  - { offset: 0x36314, size: 0x8, addend: 0x0, symName: __ZNSt3__116reverse_iteratorIPPN8nlohmann16json_abi_v3_11_310basic_jsonINS_3mapENS_6vectorENS_12basic_stringIcNS_11char_traitsIcEENS_9allocatorIcEEEEbxydS9_NS2_14adl_serializerENS5_IhNS9_IhEEEEvEEEC1B8ne180100ESH_, symObjAddr: 0x21D00, symBinAddr: 0x100022BBC, symSize: 0x34 }
  - { offset: 0x3634C, size: 0x8, addend: 0x0, symName: __ZNKSt3__116reverse_iteratorIPPN8nlohmann16json_abi_v3_11_310basic_jsonINS_3mapENS_6vectorENS_12basic_stringIcNS_11char_traitsIcEENS_9allocatorIcEEEEbxydS9_NS2_14adl_serializerENS5_IhNS9_IhEEEEvEEE4baseB8ne180100Ev, symObjAddr: 0x21D34, symBinAddr: 0x100022BF0, symSize: 0x18 }
  - { offset: 0x36372, size: 0x8, addend: 0x0, symName: __ZNKSt3__16vectorIPN8nlohmann16json_abi_v3_11_310basic_jsonINS_3mapES0_NS_12basic_stringIcNS_11char_traitsIcEENS_9allocatorIcEEEEbxydS8_NS2_14adl_serializerENS0_IhNS8_IhEEEEvEENS8_ISF_EEE14__annotate_newB8ne180100Em, symObjAddr: 0x21D88, symBinAddr: 0x100022C44, symSize: 0x14 }
  - { offset: 0x363C4, size: 0x8, addend: 0x0, symName: __ZNKSt3__111__move_loopINS_17_ClassicAlgPolicyEEclB8ne180100INS_16reverse_iteratorIPPN8nlohmann16json_abi_v3_11_310basic_jsonINS_3mapENS_6vectorENS_12basic_stringIcNS_11char_traitsIcEENS_9allocatorIcEEEEbxydSD_NS6_14adl_serializerENS9_IhNSD_IhEEEEvEEEESM_SM_EENS_4pairIT_T1_EESO_T0_SP_, symObjAddr: 0x22054, symBinAddr: 0x100022F10, symSize: 0xA0 }
  - { offset: 0x3642F, size: 0x8, addend: 0x0, symName: __ZNSt3__119__unwrap_range_implINS_16reverse_iteratorIPPN8nlohmann16json_abi_v3_11_310basic_jsonINS_3mapENS_6vectorENS_12basic_stringIcNS_11char_traitsIcEENS_9allocatorIcEEEEbxydSA_NS3_14adl_serializerENS6_IhNSA_IhEEEEvEEEESJ_E8__unwrapB8ne180100ESJ_SJ_, symObjAddr: 0x22240, symBinAddr: 0x1000230FC, symSize: 0x84 }
  - { offset: 0x36466, size: 0x8, addend: 0x0, symName: __ZNSt3__14pairINS_16reverse_iteratorIPPN8nlohmann16json_abi_v3_11_310basic_jsonINS_3mapENS_6vectorENS_12basic_stringIcNS_11char_traitsIcEENS_9allocatorIcEEEEbxydSA_NS3_14adl_serializerENS6_IhNSA_IhEEEEvEEEESJ_EC1B8ne180100ISJ_SJ_Li0EEEOT_OT0_, symObjAddr: 0x222C4, symBinAddr: 0x100023180, symSize: 0x3C }
  - { offset: 0x364C4, size: 0x8, addend: 0x0, symName: __ZNSt3__14pairINS_16reverse_iteratorIPPN8nlohmann16json_abi_v3_11_310basic_jsonINS_3mapENS_6vectorENS_12basic_stringIcNS_11char_traitsIcEENS_9allocatorIcEEEEbxydSA_NS3_14adl_serializerENS6_IhNSA_IhEEEEvEEEESJ_EC2B8ne180100ISJ_SJ_Li0EEEOT_OT0_, symObjAddr: 0x22300, symBinAddr: 0x1000231BC, symSize: 0x34 }
  - { offset: 0x36528, size: 0x8, addend: 0x0, symName: __ZNSt3__18_IterOpsINS_17_ClassicAlgPolicyEE11__iter_moveB8ne180100IRNS_16reverse_iteratorIPPN8nlohmann16json_abi_v3_11_310basic_jsonINS_3mapENS_6vectorENS_12basic_stringIcNS_11char_traitsIcEENS_9allocatorIcEEEEbxydSD_NS6_14adl_serializerENS9_IhNSD_IhEEEEvEEEELi0EEEDTclsr3stdE4movedeclsr3stdE7declvalIRT_EEEEOSO_, symObjAddr: 0x2237C, symBinAddr: 0x100023238, symSize: 0x28 }
  - { offset: 0x3655A, size: 0x8, addend: 0x0, symName: __ZNKSt3__116reverse_iteratorIPPN8nlohmann16json_abi_v3_11_310basic_jsonINS_3mapENS_6vectorENS_12basic_stringIcNS_11char_traitsIcEENS_9allocatorIcEEEEbxydS9_NS2_14adl_serializerENS5_IhNS9_IhEEEEvEEEdeB8ne180100Ev, symObjAddr: 0x223A4, symBinAddr: 0x100023260, symSize: 0x28 }
  - { offset: 0x3658E, size: 0x8, addend: 0x0, symName: __ZNSt3__116reverse_iteratorIPPN8nlohmann16json_abi_v3_11_310basic_jsonINS_3mapENS_6vectorENS_12basic_stringIcNS_11char_traitsIcEENS_9allocatorIcEEEEbxydS9_NS2_14adl_serializerENS5_IhNS9_IhEEEEvEEEppB8ne180100Ev, symObjAddr: 0x223CC, symBinAddr: 0x100023288, symSize: 0x20 }
  - { offset: 0x365B4, size: 0x8, addend: 0x0, symName: __ZNSt3__18_IterOpsINS_17_ClassicAlgPolicyEE25__validate_iter_referenceB8ne180100IRNS_16reverse_iteratorIPPN8nlohmann16json_abi_v3_11_310basic_jsonINS_3mapENS_6vectorENS_12basic_stringIcNS_11char_traitsIcEENS_9allocatorIcEEEEbxydSD_NS6_14adl_serializerENS9_IhNSD_IhEEEEvEEEEEEvv, symObjAddr: 0x223EC, symBinAddr: 0x1000232A8, symSize: 0x4 }
  - { offset: 0x365D2, size: 0x8, addend: 0x0, symName: __ZNSt3__118__unwrap_iter_implINS_16reverse_iteratorIPPN8nlohmann16json_abi_v3_11_310basic_jsonINS_3mapENS_6vectorENS_12basic_stringIcNS_11char_traitsIcEENS_9allocatorIcEEEEbxydSA_NS3_14adl_serializerENS6_IhNSA_IhEEEEvEEEELb0EE8__unwrapB8ne180100ESJ_, symObjAddr: 0x223F0, symBinAddr: 0x1000232AC, symSize: 0x24 }
  - { offset: 0x365F5, size: 0x8, addend: 0x0, symName: __ZNSt3__119__unwrap_range_implINS_16reverse_iteratorIPPN8nlohmann16json_abi_v3_11_310basic_jsonINS_3mapENS_6vectorENS_12basic_stringIcNS_11char_traitsIcEENS_9allocatorIcEEEEbxydSA_NS3_14adl_serializerENS6_IhNSA_IhEEEEvEEEESJ_E8__rewrapB8ne180100ESJ_SJ_, symObjAddr: 0x22414, symBinAddr: 0x1000232D0, symSize: 0x5C }
  - { offset: 0x36626, size: 0x8, addend: 0x0, symName: __ZNSt3__118__unwrap_iter_implINS_16reverse_iteratorIPPN8nlohmann16json_abi_v3_11_310basic_jsonINS_3mapENS_6vectorENS_12basic_stringIcNS_11char_traitsIcEENS_9allocatorIcEEEEbxydSA_NS3_14adl_serializerENS6_IhNSA_IhEEEEvEEEELb0EE8__rewrapB8ne180100ESJ_SJ_, symObjAddr: 0x22470, symBinAddr: 0x10002332C, symSize: 0x2C }
  - { offset: 0x36653, size: 0x8, addend: 0x0, symName: __ZNSt3__116reverse_iteratorIPPN8nlohmann16json_abi_v3_11_310basic_jsonINS_3mapENS_6vectorENS_12basic_stringIcNS_11char_traitsIcEENS_9allocatorIcEEEEbxydS9_NS2_14adl_serializerENS5_IhNS9_IhEEEEvEEEC2B8ne180100ESH_, symObjAddr: 0x2249C, symBinAddr: 0x100023358, symSize: 0x28 }
  - { offset: 0x3668B, size: 0x8, addend: 0x0, symName: __ZNSt3__114__split_bufferIPN8nlohmann16json_abi_v3_11_310basic_jsonINS_3mapENS_6vectorENS_12basic_stringIcNS_11char_traitsIcEENS_9allocatorIcEEEEbxydS9_NS2_14adl_serializerENS5_IhNS9_IhEEEEvEERNS9_ISG_EEED2Ev, symObjAddr: 0x224C4, symBinAddr: 0x100023380, symSize: 0x8C }
  - { offset: 0x366B7, size: 0x8, addend: 0x0, symName: __ZNSt3__114__split_bufferIPN8nlohmann16json_abi_v3_11_310basic_jsonINS_3mapENS_6vectorENS_12basic_stringIcNS_11char_traitsIcEENS_9allocatorIcEEEEbxydS9_NS2_14adl_serializerENS5_IhNS9_IhEEEEvEERNS9_ISG_EEE5clearB8ne180100Ev, symObjAddr: 0x22550, symBinAddr: 0x10002340C, symSize: 0x28 }
  - { offset: 0x366DD, size: 0x8, addend: 0x0, symName: __ZNKSt3__114__split_bufferIPN8nlohmann16json_abi_v3_11_310basic_jsonINS_3mapENS_6vectorENS_12basic_stringIcNS_11char_traitsIcEENS_9allocatorIcEEEEbxydS9_NS2_14adl_serializerENS5_IhNS9_IhEEEEvEERNS9_ISG_EEE8capacityB8ne180100Ev, symObjAddr: 0x22578, symBinAddr: 0x100023434, symSize: 0x40 }
  - { offset: 0x36703, size: 0x8, addend: 0x0, symName: __ZNSt3__114__split_bufferIPN8nlohmann16json_abi_v3_11_310basic_jsonINS_3mapENS_6vectorENS_12basic_stringIcNS_11char_traitsIcEENS_9allocatorIcEEEEbxydS9_NS2_14adl_serializerENS5_IhNS9_IhEEEEvEERNS9_ISG_EEE17__destruct_at_endB8ne180100EPSG_, symObjAddr: 0x225B8, symBinAddr: 0x100023474, symSize: 0x2C }
  - { offset: 0x36737, size: 0x8, addend: 0x0, symName: __ZNSt3__114__split_bufferIPN8nlohmann16json_abi_v3_11_310basic_jsonINS_3mapENS_6vectorENS_12basic_stringIcNS_11char_traitsIcEENS_9allocatorIcEEEEbxydS9_NS2_14adl_serializerENS5_IhNS9_IhEEEEvEERNS9_ISG_EEE17__destruct_at_endB8ne180100EPSG_NS_17integral_constantIbLb0EEE, symObjAddr: 0x225E4, symBinAddr: 0x1000234A0, symSize: 0x80 }
  - { offset: 0x36777, size: 0x8, addend: 0x0, symName: __ZNKSt3__114__split_bufferIPN8nlohmann16json_abi_v3_11_310basic_jsonINS_3mapENS_6vectorENS_12basic_stringIcNS_11char_traitsIcEENS_9allocatorIcEEEEbxydS9_NS2_14adl_serializerENS5_IhNS9_IhEEEEvEERNS9_ISG_EEE9__end_capB8ne180100Ev, symObjAddr: 0x22664, symBinAddr: 0x100023520, symSize: 0x28 }
  - { offset: 0x3679D, size: 0x8, addend: 0x0, symName: __ZNKSt3__117__compressed_pairIPPN8nlohmann16json_abi_v3_11_310basic_jsonINS_3mapENS_6vectorENS_12basic_stringIcNS_11char_traitsIcEENS_9allocatorIcEEEEbxydS9_NS2_14adl_serializerENS5_IhNS9_IhEEEEvEERNS9_ISG_EEE5firstB8ne180100Ev, symObjAddr: 0x2268C, symBinAddr: 0x100023548, symSize: 0x24 }
  - { offset: 0x367C3, size: 0x8, addend: 0x0, symName: __ZNKSt3__13mapINS_12basic_stringIcNS_11char_traitsIcEENS_9allocatorIcEEEEN8nlohmann16json_abi_v3_11_310basic_jsonIS0_NS_6vectorES6_bxydS4_NS8_14adl_serializerENSA_IhNS4_IhEEEEvEENS_4lessIvEENS4_INS_4pairIKS6_SE_EEEEE8max_sizeB8ne180100Ev, symObjAddr: 0x226B0, symBinAddr: 0x10002356C, symSize: 0x24 }
  - { offset: 0x367E9, size: 0x8, addend: 0x0, symName: __ZNK8nlohmann16json_abi_v3_11_310basic_jsonINSt3__13mapENS2_6vectorENS2_12basic_stringIcNS2_11char_traitsIcEENS2_9allocatorIcEEEEbxydS8_NS0_14adl_serializerENS4_IhNS8_IhEEEEvE4sizeEv, symObjAddr: 0x226D4, symBinAddr: 0x100023590, symSize: 0xA4 }
  - { offset: 0x3680F, size: 0x8, addend: 0x0, symName: __ZNKSt3__16__treeINS_12__value_typeINS_12basic_stringIcNS_11char_traitsIcEENS_9allocatorIcEEEEN8nlohmann16json_abi_v3_11_310basic_jsonINS_3mapENS_6vectorES7_bxydS5_NS9_14adl_serializerENSC_IhNS5_IhEEEEvEEEENS_19__map_value_compareIS7_SH_NS_4lessIvEELb1EEENS5_ISH_EEE8max_sizeB8ne180100Ev, symObjAddr: 0x227A0, symBinAddr: 0x10002365C, symSize: 0x60 }
  - { offset: 0x36835, size: 0x8, addend: 0x0, symName: __ZN8nlohmann16json_abi_v3_11_36detail12out_of_rangeC1EiPKc, symObjAddr: 0x22800, symBinAddr: 0x1000236BC, symSize: 0x3C }
  - { offset: 0x3687B, size: 0x8, addend: 0x0, symName: __ZN8nlohmann16json_abi_v3_11_36detail12out_of_rangeC2EiPKc, symObjAddr: 0x2283C, symBinAddr: 0x1000236F8, symSize: 0x4C }
  - { offset: 0x368C1, size: 0x8, addend: 0x0, symName: __ZN8nlohmann16json_abi_v3_11_36detail12out_of_rangeD0Ev, symObjAddr: 0x22888, symBinAddr: 0x100023744, symSize: 0x30 }
  - { offset: 0x368ED, size: 0x8, addend: 0x0, symName: __ZNSt3__16vectorIPN8nlohmann16json_abi_v3_11_310basic_jsonINS_3mapES0_NS_12basic_stringIcNS_11char_traitsIcEENS_9allocatorIcEEEEbxydS8_NS2_14adl_serializerENS0_IhNS8_IhEEEEvEENS8_ISF_EEE8pop_backEv, symObjAddr: 0x22968, symBinAddr: 0x100023824, symSize: 0x2C }
  - { offset: 0x36915, size: 0x8, addend: 0x0, symName: __ZNK8nlohmann16json_abi_v3_11_310basic_jsonINSt3__13mapENS2_6vectorENS2_12basic_stringIcNS2_11char_traitsIcEENS2_9allocatorIcEEEEbxydS8_NS0_14adl_serializerENS4_IhNS8_IhEEEEvE13is_structuredEv, symObjAddr: 0x22994, symBinAddr: 0x100023850, symSize: 0x50 }
  - { offset: 0x3693B, size: 0x8, addend: 0x0, symName: __ZN8nlohmann16json_abi_v3_11_310basic_jsonINSt3__13mapENS2_6vectorENS2_12basic_stringIcNS2_11char_traitsIcEENS2_9allocatorIcEEEEbxydS8_NS0_14adl_serializerENS4_IhNS8_IhEEEEvE5beginEv, symObjAddr: 0x229E4, symBinAddr: 0x1000238A0, symSize: 0x40 }
  - { offset: 0x36971, size: 0x8, addend: 0x0, symName: __ZNK8nlohmann16json_abi_v3_11_36detail9iter_implINS0_10basic_jsonINSt3__13mapENS4_6vectorENS4_12basic_stringIcNS4_11char_traitsIcEENS4_9allocatorIcEEEEbxydSA_NS0_14adl_serializerENS6_IhNSA_IhEEEEvEEEneISH_LDn0EEEbRKT_, symObjAddr: 0x22A24, symBinAddr: 0x1000238E0, symSize: 0x34 }
  - { offset: 0x369B5, size: 0x8, addend: 0x0, symName: __ZN8nlohmann16json_abi_v3_11_310basic_jsonINSt3__13mapENS2_6vectorENS2_12basic_stringIcNS2_11char_traitsIcEENS2_9allocatorIcEEEEbxydS8_NS0_14adl_serializerENS4_IhNS8_IhEEEEvE3endEv, symObjAddr: 0x22A58, symBinAddr: 0x100023914, symSize: 0x40 }
  - { offset: 0x369EB, size: 0x8, addend: 0x0, symName: __ZNK8nlohmann16json_abi_v3_11_36detail9iter_implINS0_10basic_jsonINSt3__13mapENS4_6vectorENS4_12basic_stringIcNS4_11char_traitsIcEENS4_9allocatorIcEEEEbxydSA_NS0_14adl_serializerENS6_IhNSA_IhEEEEvEEEptEv, symObjAddr: 0x22A98, symBinAddr: 0x100023954, symSize: 0x270 }
  - { offset: 0x36A11, size: 0x8, addend: 0x0, symName: __ZN8nlohmann16json_abi_v3_11_310basic_jsonINSt3__13mapENS2_6vectorENS2_12basic_stringIcNS2_11char_traitsIcEENS2_9allocatorIcEEEEbxydS8_NS0_14adl_serializerENS4_IhNS8_IhEEEEvE5eraseINS0_6detail9iter_implISE_EELi0EEET_SJ_, symObjAddr: 0x22D30, symBinAddr: 0x100023BEC, symSize: 0x430 }
  - { offset: 0x36AA4, size: 0x8, addend: 0x0, symName: __ZN8nlohmann16json_abi_v3_11_36detail9iter_implINS0_10basic_jsonINSt3__13mapENS4_6vectorENS4_12basic_stringIcNS4_11char_traitsIcEENS4_9allocatorIcEEEEbxydSA_NS0_14adl_serializerENS6_IhNSA_IhEEEEvEEEC1ERKSH_, symObjAddr: 0x23188, symBinAddr: 0x100024044, symSize: 0x34 }
  - { offset: 0x36ADC, size: 0x8, addend: 0x0, symName: __ZN8nlohmann16json_abi_v3_11_36detail9iter_implINS0_10basic_jsonINSt3__13mapENS4_6vectorENS4_12basic_stringIcNS4_11char_traitsIcEENS4_9allocatorIcEEEEbxydSA_NS0_14adl_serializerENS6_IhNSA_IhEEEEvEEEppEv, symObjAddr: 0x231BC, symBinAddr: 0x100024078, symSize: 0xE0 }
  - { offset: 0x36B02, size: 0x8, addend: 0x0, symName: __ZNSt3__16vectorIPN8nlohmann16json_abi_v3_11_310basic_jsonINS_3mapES0_NS_12basic_stringIcNS_11char_traitsIcEENS_9allocatorIcEEEEbxydS8_NS2_14adl_serializerENS0_IhNS8_IhEEEEvEENS8_ISF_EEE17__destruct_at_endB8ne180100EPSF_, symObjAddr: 0x232C4, symBinAddr: 0x100024180, symSize: 0x4C }
  - { offset: 0x36B46, size: 0x8, addend: 0x0, symName: __ZNKSt3__16vectorIPN8nlohmann16json_abi_v3_11_310basic_jsonINS_3mapES0_NS_12basic_stringIcNS_11char_traitsIcEENS_9allocatorIcEEEEbxydS8_NS2_14adl_serializerENS0_IhNS8_IhEEEEvEENS8_ISF_EEE17__annotate_shrinkB8ne180100Em, symObjAddr: 0x23310, symBinAddr: 0x1000241CC, symSize: 0x14 }
  - { offset: 0x36B7B, size: 0x8, addend: 0x0, symName: __ZN8nlohmann16json_abi_v3_11_36detail9iter_implINS0_10basic_jsonINSt3__13mapENS4_6vectorENS4_12basic_stringIcNS4_11char_traitsIcEENS4_9allocatorIcEEEEbxydSA_NS0_14adl_serializerENS6_IhNSA_IhEEEEvEEEC1EPSG_, symObjAddr: 0x23324, symBinAddr: 0x1000241E0, symSize: 0x34 }
  - { offset: 0x36BB3, size: 0x8, addend: 0x0, symName: __ZN8nlohmann16json_abi_v3_11_36detail9iter_implINS0_10basic_jsonINSt3__13mapENS4_6vectorENS4_12basic_stringIcNS4_11char_traitsIcEENS4_9allocatorIcEEEEbxydSA_NS0_14adl_serializerENS6_IhNSA_IhEEEEvEEE9set_beginEv, symObjAddr: 0x23358, symBinAddr: 0x100024214, symSize: 0x118 }
  - { offset: 0x36BD9, size: 0x8, addend: 0x0, symName: __ZN8nlohmann16json_abi_v3_11_36detail9iter_implINS0_10basic_jsonINSt3__13mapENS4_6vectorENS4_12basic_stringIcNS4_11char_traitsIcEENS4_9allocatorIcEEEEbxydSA_NS0_14adl_serializerENS6_IhNSA_IhEEEEvEEEC2EPSG_, symObjAddr: 0x23498, symBinAddr: 0x100024354, symSize: 0x13C }
  - { offset: 0x36C11, size: 0x8, addend: 0x0, symName: __ZNK8nlohmann16json_abi_v3_11_36detail9iter_implINS0_10basic_jsonINSt3__13mapENS4_6vectorENS4_12basic_stringIcNS4_11char_traitsIcEENS4_9allocatorIcEEEEbxydSA_NS0_14adl_serializerENS6_IhNSA_IhEEEEvEEEeqISH_LDn0EEEbRKT_, symObjAddr: 0x235FC, symBinAddr: 0x1000244B8, symSize: 0x214 }
  - { offset: 0x36C55, size: 0x8, addend: 0x0, symName: __ZN8nlohmann16json_abi_v3_11_36detail16invalid_iterator6createIPNS0_10basic_jsonINSt3__13mapENS5_6vectorENS5_12basic_stringIcNS5_11char_traitsIcEENS5_9allocatorIcEEEEbxydSB_NS0_14adl_serializerENS7_IhNSB_IhEEEEvEELi0EEES2_iRKSD_T_, symObjAddr: 0x23838, symBinAddr: 0x1000246F4, symSize: 0x130 }
  - { offset: 0x36CB1, size: 0x8, addend: 0x0, symName: __ZN8nlohmann16json_abi_v3_11_36detail9iter_implINS0_10basic_jsonINSt3__13mapENS4_6vectorENS4_12basic_stringIcNS4_11char_traitsIcEENS4_9allocatorIcEEEEbxydSA_NS0_14adl_serializerENS6_IhNSA_IhEEEEvEEE7set_endEv, symObjAddr: 0x23968, symBinAddr: 0x100024824, symSize: 0x108 }
  - { offset: 0x36CD7, size: 0x8, addend: 0x0, symName: __ZNK8nlohmann16json_abi_v3_11_310basic_jsonINSt3__13mapENS2_6vectorENS2_12basic_stringIcNS2_11char_traitsIcEENS2_9allocatorIcEEEEbxydS8_NS0_14adl_serializerENS4_IhNS8_IhEEEEvE9is_binaryEv, symObjAddr: 0x23A98, symBinAddr: 0x100024954, symSize: 0x24 }
  - { offset: 0x36CFD, size: 0x8, addend: 0x0, symName: __ZNSt3__13mapINS_12basic_stringIcNS_11char_traitsIcEENS_9allocatorIcEEEEN8nlohmann16json_abi_v3_11_310basic_jsonIS0_NS_6vectorES6_bxydS4_NS8_14adl_serializerENSA_IhNS4_IhEEEEvEENS_4lessIvEENS4_INS_4pairIKS6_SE_EEEEE5eraseB8ne180100ENS_14__map_iteratorINS_15__tree_iteratorINS_12__value_typeIS6_SE_EEPNS_11__tree_nodeISP_PvEElEEEE, symObjAddr: 0x23ABC, symBinAddr: 0x100024978, symSize: 0x5C }
  - { offset: 0x36D32, size: 0x8, addend: 0x0, symName: __ZNSt3__16vectorIN8nlohmann16json_abi_v3_11_310basic_jsonINS_3mapES0_NS_12basic_stringIcNS_11char_traitsIcEENS_9allocatorIcEEEEbxydS8_NS2_14adl_serializerENS0_IhNS8_IhEEEEvEENS8_ISE_EEE5eraseB8ne180100ENS_11__wrap_iterIPKSE_EE, symObjAddr: 0x23B18, symBinAddr: 0x1000249D4, symSize: 0x94 }
  - { offset: 0x36D87, size: 0x8, addend: 0x0, symName: __ZNSt3__111__wrap_iterIPKN8nlohmann16json_abi_v3_11_310basic_jsonINS_3mapENS_6vectorENS_12basic_stringIcNS_11char_traitsIcEENS_9allocatorIcEEEEbxydS9_NS2_14adl_serializerENS5_IhNS9_IhEEEEvEEEC1B8ne180100IPSF_Li0EEERKNS0_IT_EE, symObjAddr: 0x23BAC, symBinAddr: 0x100024A68, symSize: 0x34 }
  - { offset: 0x36DCE, size: 0x8, addend: 0x0, symName: __ZNSt3__16__treeINS_12__value_typeINS_12basic_stringIcNS_11char_traitsIcEENS_9allocatorIcEEEEN8nlohmann16json_abi_v3_11_310basic_jsonINS_3mapENS_6vectorES7_bxydS5_NS9_14adl_serializerENSC_IhNS5_IhEEEEvEEEENS_19__map_value_compareIS7_SH_NS_4lessIvEELb1EEENS5_ISH_EEE5eraseENS_21__tree_const_iteratorISH_PNS_11__tree_nodeISH_PvEElEE, symObjAddr: 0x23CA4, symBinAddr: 0x100024B60, symSize: 0x98 }
  - { offset: 0x36E32, size: 0x8, addend: 0x0, symName: __ZNSt3__16__treeINS_12__value_typeINS_12basic_stringIcNS_11char_traitsIcEENS_9allocatorIcEEEEN8nlohmann16json_abi_v3_11_310basic_jsonINS_3mapENS_6vectorES7_bxydS5_NS9_14adl_serializerENSC_IhNS5_IhEEEEvEEEENS_19__map_value_compareIS7_SH_NS_4lessIvEELb1EEENS5_ISH_EEE21__remove_node_pointerEPNS_11__tree_nodeISH_PvEE, symObjAddr: 0x23D3C, symBinAddr: 0x100024BF8, symSize: 0xAC }
  - { offset: 0x36E78, size: 0x8, addend: 0x0, symName: __ZNKSt3__16vectorIN8nlohmann16json_abi_v3_11_310basic_jsonINS_3mapES0_NS_12basic_stringIcNS_11char_traitsIcEENS_9allocatorIcEEEEbxydS8_NS2_14adl_serializerENS0_IhNS8_IhEEEEvEENS8_ISE_EEE6cbeginB8ne180100Ev, symObjAddr: 0x245A0, symBinAddr: 0x10002545C, symSize: 0x2C }
  - { offset: 0x36E9E, size: 0x8, addend: 0x0, symName: __ZNKSt3__111__wrap_iterIPKN8nlohmann16json_abi_v3_11_310basic_jsonINS_3mapENS_6vectorENS_12basic_stringIcNS_11char_traitsIcEENS_9allocatorIcEEEEbxydS9_NS2_14adl_serializerENS5_IhNS9_IhEEEEvEEE4baseB8ne180100Ev, symObjAddr: 0x2460C, symBinAddr: 0x1000254C8, symSize: 0x18 }
  - { offset: 0x36EC4, size: 0x8, addend: 0x0, symName: __ZNKSt3__16vectorIN8nlohmann16json_abi_v3_11_310basic_jsonINS_3mapES0_NS_12basic_stringIcNS_11char_traitsIcEENS_9allocatorIcEEEEbxydS8_NS2_14adl_serializerENS0_IhNS8_IhEEEEvEENS8_ISE_EEE5beginB8ne180100Ev, symObjAddr: 0x24624, symBinAddr: 0x1000254E0, symSize: 0x30 }
  - { offset: 0x36EEC, size: 0x8, addend: 0x0, symName: __ZNKSt3__16vectorIN8nlohmann16json_abi_v3_11_310basic_jsonINS_3mapES0_NS_12basic_stringIcNS_11char_traitsIcEENS_9allocatorIcEEEEbxydS8_NS2_14adl_serializerENS0_IhNS8_IhEEEEvEENS8_ISE_EEE11__make_iterB8ne180100EPKSE_, symObjAddr: 0x24654, symBinAddr: 0x100025510, symSize: 0x30 }
  - { offset: 0x36F21, size: 0x8, addend: 0x0, symName: __ZNSt3__111__wrap_iterIPKN8nlohmann16json_abi_v3_11_310basic_jsonINS_3mapENS_6vectorENS_12basic_stringIcNS_11char_traitsIcEENS_9allocatorIcEEEEbxydS9_NS2_14adl_serializerENS5_IhNS9_IhEEEEvEEEC1B8ne180100ESH_, symObjAddr: 0x24684, symBinAddr: 0x100025540, symSize: 0x34 }
  - { offset: 0x36F59, size: 0x8, addend: 0x0, symName: __ZNSt3__111__wrap_iterIPKN8nlohmann16json_abi_v3_11_310basic_jsonINS_3mapENS_6vectorENS_12basic_stringIcNS_11char_traitsIcEENS_9allocatorIcEEEEbxydS9_NS2_14adl_serializerENS5_IhNS9_IhEEEEvEEEC2B8ne180100ESH_, symObjAddr: 0x246B8, symBinAddr: 0x100025574, symSize: 0x20 }
  - { offset: 0x36F91, size: 0x8, addend: 0x0, symName: __ZNKSt3__111__move_loopINS_17_ClassicAlgPolicyEEclB8ne180100IPN8nlohmann16json_abi_v3_11_310basic_jsonINS_3mapENS_6vectorENS_12basic_stringIcNS_11char_traitsIcEENS_9allocatorIcEEEEbxydSC_NS5_14adl_serializerENS8_IhNSC_IhEEEEvEESJ_SJ_EENS_4pairIT_T1_EESL_T0_SM_, symObjAddr: 0x24814, symBinAddr: 0x1000256D0, symSize: 0xA8 }
  - { offset: 0x36FFC, size: 0x8, addend: 0x0, symName: __ZNSt3__119__unwrap_range_implIPN8nlohmann16json_abi_v3_11_310basic_jsonINS_3mapENS_6vectorENS_12basic_stringIcNS_11char_traitsIcEENS_9allocatorIcEEEEbxydS9_NS2_14adl_serializerENS5_IhNS9_IhEEEEvEESG_E8__rewrapB8ne180100ESG_SG_, symObjAddr: 0x24920, symBinAddr: 0x1000257DC, symSize: 0x2C }
  - { offset: 0x3702D, size: 0x8, addend: 0x0, symName: __ZNSt3__111__wrap_iterIPKN8nlohmann16json_abi_v3_11_310basic_jsonINS_3mapENS_6vectorENS_12basic_stringIcNS_11char_traitsIcEENS_9allocatorIcEEEEbxydS9_NS2_14adl_serializerENS5_IhNS9_IhEEEEvEEEC2B8ne180100IPSF_Li0EEERKNS0_IT_EE, symObjAddr: 0x2494C, symBinAddr: 0x100025808, symSize: 0x3C }
  - { offset: 0x37074, size: 0x8, addend: 0x0, symName: __ZN8nlohmann16json_abi_v3_11_36detail9iter_implINS0_10basic_jsonINSt3__13mapENS4_6vectorENS4_12basic_stringIcNS4_11char_traitsIcEENS4_9allocatorIcEEEEbxydSA_NS0_14adl_serializerENS6_IhNSA_IhEEEEvEEEC2ERKSH_, symObjAddr: 0x249C4, symBinAddr: 0x100025880, symSize: 0x38 }
  - { offset: 0x370AC, size: 0x8, addend: 0x0, symName: __ZN8nlohmann16json_abi_v3_11_310basic_jsonINSt3__13mapENS2_6vectorENS2_12basic_stringIcNS2_11char_traitsIcEENS2_9allocatorIcEEEEbxydS8_NS0_14adl_serializerENS4_IhNS8_IhEEEEvEC1IRSA_SA_Li0EEEOT_, symObjAddr: 0x249FC, symBinAddr: 0x1000258B8, symSize: 0x34 }
  - { offset: 0x370FD, size: 0x8, addend: 0x0, symName: __ZNSt3__13mapINS_12basic_stringIcNS_11char_traitsIcEENS_9allocatorIcEEEEN8nlohmann16json_abi_v3_11_310basic_jsonIS0_NS_6vectorES6_bxydS4_NS8_14adl_serializerENSA_IhNS4_IhEEEEvEENS_4lessIvEENS4_INS_4pairIKS6_SE_EEEEEixERSI_, symObjAddr: 0x24A30, symBinAddr: 0x1000258EC, symSize: 0x80 }
  - { offset: 0x37134, size: 0x8, addend: 0x0, symName: __ZN8nlohmann16json_abi_v3_11_310basic_jsonINSt3__13mapENS2_6vectorENS2_12basic_stringIcNS2_11char_traitsIcEENS2_9allocatorIcEEEEbxydS8_NS0_14adl_serializerENS4_IhNS8_IhEEEEvEC2IRSA_SA_Li0EEEOT_, symObjAddr: 0x24AB0, symBinAddr: 0x10002596C, symSize: 0x84 }
  - { offset: 0x37185, size: 0x8, addend: 0x0, symName: __ZN8nlohmann16json_abi_v3_11_314adl_serializerINSt3__112basic_stringIcNS2_11char_traitsIcEENS2_9allocatorIcEEEEvE7to_jsonINS0_10basic_jsonINS2_3mapENS2_6vectorES8_bxydS6_S1_NSD_IhNS6_IhEEEEvEERS8_EEDTcmclL_ZNS0_7to_jsonEEfp_clsr3stdE7forwardIT0_Efp0_EEcvv_EERT_OSI_, symObjAddr: 0x24B34, symBinAddr: 0x1000259F0, symSize: 0x34 }
  - { offset: 0x371C8, size: 0x8, addend: 0x0, symName: __ZNK8nlohmann16json_abi_v3_11_36detail10to_json_fnclINS0_10basic_jsonINSt3__13mapENS5_6vectorENS5_12basic_stringIcNS5_11char_traitsIcEENS5_9allocatorIcEEEEbxydSB_NS0_14adl_serializerENS7_IhNSB_IhEEEEvEERSD_EEDTcmcl7to_jsonfp_clsr3stdE7forwardIT0_Efp0_EEcvv_EERT_OSJ_, symObjAddr: 0x24B68, symBinAddr: 0x100025A24, symSize: 0x30 }
  - { offset: 0x3721E, size: 0x8, addend: 0x0, symName: __ZN8nlohmann16json_abi_v3_11_36detail20external_constructorILNS1_7value_tE3EE9constructINS0_10basic_jsonINSt3__13mapENS7_6vectorENS7_12basic_stringIcNS7_11char_traitsIcEENS7_9allocatorIcEEEEbxydSD_NS0_14adl_serializerENS9_IhNSD_IhEEEEvEEEEvRT_RKNSK_8string_tE, symObjAddr: 0x24BC4, symBinAddr: 0x100025A80, symSize: 0x68 }
  - { offset: 0x37270, size: 0x8, addend: 0x0, symName: __ZNSt3__16__treeINS_12__value_typeINS_12basic_stringIcNS_11char_traitsIcEENS_9allocatorIcEEEEN8nlohmann16json_abi_v3_11_310basic_jsonINS_3mapENS_6vectorES7_bxydS5_NS9_14adl_serializerENSC_IhNS5_IhEEEEvEEEENS_19__map_value_compareIS7_SH_NS_4lessIvEELb1EEENS5_ISH_EEE25__emplace_unique_key_argsIS7_JRKNS_21piecewise_construct_tENS_5tupleIJRKS7_EEENSS_IJEEEEEENS_4pairINS_15__tree_iteratorISH_PNS_11__tree_nodeISH_PvEElEEbEERKT_DpOT0_, symObjAddr: 0x24C2C, symBinAddr: 0x100025AE8, symSize: 0x100 }
  - { offset: 0x37346, size: 0x8, addend: 0x0, symName: __ZNSt3__16__treeINS_12__value_typeINS_12basic_stringIcNS_11char_traitsIcEENS_9allocatorIcEEEEN8nlohmann16json_abi_v3_11_310basic_jsonINS_3mapENS_6vectorES7_bxydS5_NS9_14adl_serializerENSC_IhNS5_IhEEEEvEEEENS_19__map_value_compareIS7_SH_NS_4lessIvEELb1EEENS5_ISH_EEE16__construct_nodeIJRKNS_21piecewise_construct_tENS_5tupleIJRKS7_EEENSS_IJEEEEEENS_10unique_ptrINS_11__tree_nodeISH_PvEENS_22__tree_node_destructorINS5_IS10_EEEEEEDpOT_, symObjAddr: 0x24D5C, symBinAddr: 0x100025C18, symSize: 0x118 }
  - { offset: 0x373CF, size: 0x8, addend: 0x0, symName: __ZNSt3__116allocator_traitsINS_9allocatorINS_11__tree_nodeINS_12__value_typeINS_12basic_stringIcNS_11char_traitsIcEENS1_IcEEEEN8nlohmann16json_abi_v3_11_310basic_jsonINS_3mapENS_6vectorES8_bxydS1_NSA_14adl_serializerENSD_IhNS1_IhEEEEvEEEEPvEEEEE9constructB8ne180100INS_4pairIKS8_SH_EEJRKNS_21piecewise_construct_tENS_5tupleIJRSP_EEENSU_IJEEEEvvEEvRSL_PT_DpOT0_, symObjAddr: 0x24E74, symBinAddr: 0x100025D30, symSize: 0x40 }
  - { offset: 0x3744C, size: 0x8, addend: 0x0, symName: __ZNSt3__14pairIKNS_12basic_stringIcNS_11char_traitsIcEENS_9allocatorIcEEEEN8nlohmann16json_abi_v3_11_310basic_jsonINS_3mapENS_6vectorES6_bxydS4_NS9_14adl_serializerENSC_IhNS4_IhEEEEvEEEC1B8ne180100IJRS7_EJEEENS_21piecewise_construct_tENS_5tupleIJDpT_EEENSL_IJDpT0_EEE, symObjAddr: 0x24F38, symBinAddr: 0x100025DF4, symSize: 0x3C }
  - { offset: 0x374B3, size: 0x8, addend: 0x0, symName: __ZNSt3__14pairIKNS_12basic_stringIcNS_11char_traitsIcEENS_9allocatorIcEEEEN8nlohmann16json_abi_v3_11_310basic_jsonINS_3mapENS_6vectorES6_bxydS4_NS9_14adl_serializerENSC_IhNS4_IhEEEEvEEEC1B8ne180100IJRS7_EJEJLm0EEJEEENS_21piecewise_construct_tERNS_5tupleIJDpT_EEERNSL_IJDpT0_EEENS_15__tuple_indicesIJXspT1_EEEENSU_IJXspT2_EEEE, symObjAddr: 0x24F74, symBinAddr: 0x100025E30, symSize: 0x3C }
  - { offset: 0x37543, size: 0x8, addend: 0x0, symName: __ZNSt3__14pairIKNS_12basic_stringIcNS_11char_traitsIcEENS_9allocatorIcEEEEN8nlohmann16json_abi_v3_11_310basic_jsonINS_3mapENS_6vectorES6_bxydS4_NS9_14adl_serializerENSC_IhNS4_IhEEEEvEEEC2B8ne180100IJRS7_EJEJLm0EEJEEENS_21piecewise_construct_tERNS_5tupleIJDpT_EEERNSL_IJDpT0_EEENS_15__tuple_indicesIJXspT1_EEEENSU_IJXspT2_EEEE, symObjAddr: 0x24FB0, symBinAddr: 0x100025E6C, symSize: 0x54 }
  - { offset: 0x375D3, size: 0x8, addend: 0x0, symName: __ZNSt3__112__tuple_leafILm0ERKNS_12basic_stringIcNS_11char_traitsIcEENS_9allocatorIcEEEELb0EE3getB8ne180100Ev, symObjAddr: 0x25028, symBinAddr: 0x100025EE4, symSize: 0x18 }
  - { offset: 0x375F9, size: 0x8, addend: 0x0, symName: __ZNSt3__15tupleIJRKNS_12basic_stringIcNS_11char_traitsIcEENS_9allocatorIcEEEEEEC1B8ne180100INS_4_AndELi0EEES8_, symObjAddr: 0x25040, symBinAddr: 0x100025EFC, symSize: 0x34 }
  - { offset: 0x37641, size: 0x8, addend: 0x0, symName: __ZNSt3__15tupleIJRKNS_12basic_stringIcNS_11char_traitsIcEENS_9allocatorIcEEEEEEC2B8ne180100INS_4_AndELi0EEES8_, symObjAddr: 0x25074, symBinAddr: 0x100025F30, symSize: 0x34 }
  - { offset: 0x37689, size: 0x8, addend: 0x0, symName: __ZNSt3__112__tuple_implINS_15__tuple_indicesIJLm0EEEEJRKNS_12basic_stringIcNS_11char_traitsIcEENS_9allocatorIcEEEEEEC1B8ne180100IJLm0EEJSA_EJEJEJSA_EEENS1_IJXspT_EEEENS_13__tuple_typesIJDpT0_EEENS1_IJXspT1_EEEENSE_IJDpT2_EEEDpOT3_, symObjAddr: 0x250A8, symBinAddr: 0x100025F64, symSize: 0x34 }
  - { offset: 0x3771E, size: 0x8, addend: 0x0, symName: __ZNSt3__112__tuple_implINS_15__tuple_indicesIJLm0EEEEJRKNS_12basic_stringIcNS_11char_traitsIcEENS_9allocatorIcEEEEEEC2B8ne180100IJLm0EEJSA_EJEJEJSA_EEENS1_IJXspT_EEEENS_13__tuple_typesIJDpT0_EEENS1_IJXspT1_EEEENSE_IJDpT2_EEEDpOT3_, symObjAddr: 0x250DC, symBinAddr: 0x100025F98, symSize: 0x34 }
  - { offset: 0x377B3, size: 0x8, addend: 0x0, symName: __ZNSt3__112__tuple_leafILm0ERKNS_12basic_stringIcNS_11char_traitsIcEENS_9allocatorIcEEEELb0EEC2B8ne180100IS8_vEEOT_, symObjAddr: 0x25110, symBinAddr: 0x100025FCC, symSize: 0x20 }
  - { offset: 0x377F6, size: 0x8, addend: 0x0, symName: __ZN8nlohmann16json_abi_v3_11_36detail12out_of_rangeC1ERKS2_, symObjAddr: 0x25238, symBinAddr: 0x1000260F4, symSize: 0x34 }
  - { offset: 0x3782B, size: 0x8, addend: 0x0, symName: __ZN8nlohmann16json_abi_v3_11_36detail12out_of_rangeC2ERKS2_, symObjAddr: 0x2526C, symBinAddr: 0x100026128, symSize: 0x44 }
  - { offset: 0x37866, size: 0x8, addend: 0x0, symName: __ZN8nlohmann16json_abi_v3_11_36detail9exceptionC2ERKS2_, symObjAddr: 0x252B0, symBinAddr: 0x10002616C, symSize: 0x64 }
  - { offset: 0x3789B, size: 0x8, addend: 0x0, symName: __ZNSt9exceptionC2B8ne180100ERKS_, symObjAddr: 0x25314, symBinAddr: 0x1000261D0, symSize: 0x28 }
  - { offset: 0x378CF, size: 0x8, addend: 0x0, symName: __ZN8nlohmann16json_abi_v3_11_36detail12out_of_rangeD2Ev, symObjAddr: 0x254A4, symBinAddr: 0x100026360, symSize: 0x2C }
  - { offset: 0x378FB, size: 0x8, addend: 0x0, symName: __ZN8nlohmann16json_abi_v3_11_36detail28json_sax_dom_callback_parserINS0_10basic_jsonINSt3__13mapENS4_6vectorENS4_12basic_stringIcNS4_11char_traitsIcEENS4_9allocatorIcEEEEbxydSA_NS0_14adl_serializerENS6_IhNSA_IhEEEEvEEE12handle_valueIRdEENS4_4pairIbPSG_EEOT_b, symObjAddr: 0x254D0, symBinAddr: 0x10002638C, symSize: 0x4DC }
  - { offset: 0x37978, size: 0x8, addend: 0x0, symName: __ZN8nlohmann16json_abi_v3_11_310basic_jsonINSt3__13mapENS2_6vectorENS2_12basic_stringIcNS2_11char_traitsIcEENS2_9allocatorIcEEEEbxydS8_NS0_14adl_serializerENS4_IhNS8_IhEEEEvEC1IRddLi0EEEOT_, symObjAddr: 0x259AC, symBinAddr: 0x100026868, symSize: 0x34 }
  - { offset: 0x379C9, size: 0x8, addend: 0x0, symName: __ZN8nlohmann16json_abi_v3_11_310basic_jsonINSt3__13mapENS2_6vectorENS2_12basic_stringIcNS2_11char_traitsIcEENS2_9allocatorIcEEEEbxydS8_NS0_14adl_serializerENS4_IhNS8_IhEEEEvEC2IRddLi0EEEOT_, symObjAddr: 0x259E0, symBinAddr: 0x10002689C, symSize: 0x5C }
  - { offset: 0x37A1A, size: 0x8, addend: 0x0, symName: __ZN8nlohmann16json_abi_v3_11_314adl_serializerIdvE7to_jsonINS0_10basic_jsonINSt3__13mapENS5_6vectorENS5_12basic_stringIcNS5_11char_traitsIcEENS5_9allocatorIcEEEEbxydSB_S1_NS7_IhNSB_IhEEEEvEERdEEDTcmclL_ZNS0_7to_jsonEEfp_clsr3stdE7forwardIT0_Efp0_EEcvv_EERT_OSI_, symObjAddr: 0x25A3C, symBinAddr: 0x1000268F8, symSize: 0x34 }
  - { offset: 0x37A5D, size: 0x8, addend: 0x0, symName: __ZNK8nlohmann16json_abi_v3_11_36detail10to_json_fnclINS0_10basic_jsonINSt3__13mapENS5_6vectorENS5_12basic_stringIcNS5_11char_traitsIcEENS5_9allocatorIcEEEEbxydSB_NS0_14adl_serializerENS7_IhNSB_IhEEEEvEERdEEDTcmcl7to_jsonfp_clsr3stdE7forwardIT0_Efp0_EEcvv_EERT_OSJ_, symObjAddr: 0x25A70, symBinAddr: 0x10002692C, symSize: 0x34 }
  - { offset: 0x37AB3, size: 0x8, addend: 0x0, symName: __ZN8nlohmann16json_abi_v3_11_36detail20external_constructorILNS1_7value_tE7EE9constructINS0_10basic_jsonINSt3__13mapENS7_6vectorENS7_12basic_stringIcNS7_11char_traitsIcEENS7_9allocatorIcEEEEbxydSD_NS0_14adl_serializerENS9_IhNSD_IhEEEEvEEEEvRT_NSK_14number_float_tE, symObjAddr: 0x25AD0, symBinAddr: 0x10002698C, symSize: 0x70 }
  - { offset: 0x37AED, size: 0x8, addend: 0x0, symName: __ZN8nlohmann16json_abi_v3_11_36detail28json_sax_dom_callback_parserINS0_10basic_jsonINSt3__13mapENS4_6vectorENS4_12basic_stringIcNS4_11char_traitsIcEENS4_9allocatorIcEEEEbxydSA_NS0_14adl_serializerENS6_IhNSA_IhEEEEvEEE12handle_valueIRbEENS4_4pairIbPSG_EEOT_b, symObjAddr: 0x25B40, symBinAddr: 0x1000269FC, symSize: 0x4DC }
  - { offset: 0x37B6A, size: 0x8, addend: 0x0, symName: __ZN8nlohmann16json_abi_v3_11_310basic_jsonINSt3__13mapENS2_6vectorENS2_12basic_stringIcNS2_11char_traitsIcEENS2_9allocatorIcEEEEbxydS8_NS0_14adl_serializerENS4_IhNS8_IhEEEEvEC1IRbbLi0EEEOT_, symObjAddr: 0x2601C, symBinAddr: 0x100026ED8, symSize: 0x34 }
  - { offset: 0x37BBB, size: 0x8, addend: 0x0, symName: __ZN8nlohmann16json_abi_v3_11_310basic_jsonINSt3__13mapENS2_6vectorENS2_12basic_stringIcNS2_11char_traitsIcEENS2_9allocatorIcEEEEbxydS8_NS0_14adl_serializerENS4_IhNS8_IhEEEEvEC2IRbbLi0EEEOT_, symObjAddr: 0x26050, symBinAddr: 0x100026F0C, symSize: 0x5C }
  - { offset: 0x37C0C, size: 0x8, addend: 0x0, symName: __ZN8nlohmann16json_abi_v3_11_314adl_serializerIbvE7to_jsonINS0_10basic_jsonINSt3__13mapENS5_6vectorENS5_12basic_stringIcNS5_11char_traitsIcEENS5_9allocatorIcEEEEbxydSB_S1_NS7_IhNSB_IhEEEEvEERbEEDTcmclL_ZNS0_7to_jsonEEfp_clsr3stdE7forwardIT0_Efp0_EEcvv_EERT_OSI_, symObjAddr: 0x260AC, symBinAddr: 0x100026F68, symSize: 0x34 }
  - { offset: 0x37C4F, size: 0x8, addend: 0x0, symName: __ZNK8nlohmann16json_abi_v3_11_36detail10to_json_fnclINS0_10basic_jsonINSt3__13mapENS5_6vectorENS5_12basic_stringIcNS5_11char_traitsIcEENS5_9allocatorIcEEEEbxydSB_NS0_14adl_serializerENS7_IhNSB_IhEEEEvEERbEEDTcmcl7to_jsonfp_clsr3stdE7forwardIT0_Efp0_EEcvv_EERT_OSJ_, symObjAddr: 0x260E0, symBinAddr: 0x100026F9C, symSize: 0x38 }
  - { offset: 0x37CA5, size: 0x8, addend: 0x0, symName: __ZN8nlohmann16json_abi_v3_11_36detail20external_constructorILNS1_7value_tE4EE9constructINS0_10basic_jsonINSt3__13mapENS7_6vectorENS7_12basic_stringIcNS7_11char_traitsIcEENS7_9allocatorIcEEEEbxydSD_NS0_14adl_serializerENS9_IhNSD_IhEEEEvEEEEvRT_NSK_9boolean_tE, symObjAddr: 0x26150, symBinAddr: 0x10002700C, symSize: 0x80 }
  - { offset: 0x37CDF, size: 0x8, addend: 0x0, symName: __ZN8nlohmann16json_abi_v3_11_36detail28json_sax_dom_callback_parserINS0_10basic_jsonINSt3__13mapENS4_6vectorENS4_12basic_stringIcNS4_11char_traitsIcEENS4_9allocatorIcEEEEbxydSA_NS0_14adl_serializerENS6_IhNSA_IhEEEEvEEE12handle_valueIDnEENS4_4pairIbPSG_EEOT_b, symObjAddr: 0x261D0, symBinAddr: 0x10002708C, symSize: 0x4D8 }
  - { offset: 0x37D62, size: 0x8, addend: 0x0, symName: __ZN8nlohmann16json_abi_v3_11_36detail28json_sax_dom_callback_parserINS0_10basic_jsonINSt3__13mapENS4_6vectorENS4_12basic_stringIcNS4_11char_traitsIcEENS4_9allocatorIcEEEEbxydSA_NS0_14adl_serializerENS6_IhNSA_IhEEEEvEEE12handle_valueIRxEENS4_4pairIbPSG_EEOT_b, symObjAddr: 0x266A8, symBinAddr: 0x100027564, symSize: 0x4DC }
  - { offset: 0x37DDF, size: 0x8, addend: 0x0, symName: __ZN8nlohmann16json_abi_v3_11_310basic_jsonINSt3__13mapENS2_6vectorENS2_12basic_stringIcNS2_11char_traitsIcEENS2_9allocatorIcEEEEbxydS8_NS0_14adl_serializerENS4_IhNS8_IhEEEEvEC1IRxxLi0EEEOT_, symObjAddr: 0x26B84, symBinAddr: 0x100027A40, symSize: 0x34 }
  - { offset: 0x37E30, size: 0x8, addend: 0x0, symName: __ZN8nlohmann16json_abi_v3_11_310basic_jsonINSt3__13mapENS2_6vectorENS2_12basic_stringIcNS2_11char_traitsIcEENS2_9allocatorIcEEEEbxydS8_NS0_14adl_serializerENS4_IhNS8_IhEEEEvEC2IRxxLi0EEEOT_, symObjAddr: 0x26BB8, symBinAddr: 0x100027A74, symSize: 0x5C }
  - { offset: 0x37E81, size: 0x8, addend: 0x0, symName: __ZN8nlohmann16json_abi_v3_11_314adl_serializerIxvE7to_jsonINS0_10basic_jsonINSt3__13mapENS5_6vectorENS5_12basic_stringIcNS5_11char_traitsIcEENS5_9allocatorIcEEEEbxydSB_S1_NS7_IhNSB_IhEEEEvEERxEEDTcmclL_ZNS0_7to_jsonEEfp_clsr3stdE7forwardIT0_Efp0_EEcvv_EERT_OSI_, symObjAddr: 0x26C14, symBinAddr: 0x100027AD0, symSize: 0x34 }
  - { offset: 0x37EC4, size: 0x8, addend: 0x0, symName: __ZNK8nlohmann16json_abi_v3_11_36detail10to_json_fnclINS0_10basic_jsonINSt3__13mapENS5_6vectorENS5_12basic_stringIcNS5_11char_traitsIcEENS5_9allocatorIcEEEEbxydSB_NS0_14adl_serializerENS7_IhNSB_IhEEEEvEERxEEDTcmcl7to_jsonfp_clsr3stdE7forwardIT0_Efp0_EEcvv_EERT_OSJ_, symObjAddr: 0x26C48, symBinAddr: 0x100027B04, symSize: 0x34 }
  - { offset: 0x37F1A, size: 0x8, addend: 0x0, symName: __ZN8nlohmann16json_abi_v3_11_36detail20external_constructorILNS1_7value_tE5EE9constructINS0_10basic_jsonINSt3__13mapENS7_6vectorENS7_12basic_stringIcNS7_11char_traitsIcEENS7_9allocatorIcEEEEbxydSD_NS0_14adl_serializerENS9_IhNSD_IhEEEEvEEEEvRT_NSK_16number_integer_tE, symObjAddr: 0x26CA8, symBinAddr: 0x100027B64, symSize: 0x70 }
  - { offset: 0x37F54, size: 0x8, addend: 0x0, symName: __ZN8nlohmann16json_abi_v3_11_36detail28json_sax_dom_callback_parserINS0_10basic_jsonINSt3__13mapENS4_6vectorENS4_12basic_stringIcNS4_11char_traitsIcEENS4_9allocatorIcEEEEbxydSA_NS0_14adl_serializerENS6_IhNSA_IhEEEEvEEE12handle_valueIRSC_EENS4_4pairIbPSG_EEOT_b, symObjAddr: 0x26D18, symBinAddr: 0x100027BD4, symSize: 0x4DC }
  - { offset: 0x37FD7, size: 0x8, addend: 0x0, symName: __ZN8nlohmann16json_abi_v3_11_36detail28json_sax_dom_callback_parserINS0_10basic_jsonINSt3__13mapENS4_6vectorENS4_12basic_stringIcNS4_11char_traitsIcEENS4_9allocatorIcEEEEbxydSA_NS0_14adl_serializerENS6_IhNSA_IhEEEEvEEE12handle_valueIRyEENS4_4pairIbPSG_EEOT_b, symObjAddr: 0x271F4, symBinAddr: 0x1000280B0, symSize: 0x4DC }
  - { offset: 0x38054, size: 0x8, addend: 0x0, symName: __ZN8nlohmann16json_abi_v3_11_310basic_jsonINSt3__13mapENS2_6vectorENS2_12basic_stringIcNS2_11char_traitsIcEENS2_9allocatorIcEEEEbxydS8_NS0_14adl_serializerENS4_IhNS8_IhEEEEvEC1IRyyLi0EEEOT_, symObjAddr: 0x276D0, symBinAddr: 0x10002858C, symSize: 0x34 }
  - { offset: 0x380A5, size: 0x8, addend: 0x0, symName: __ZN8nlohmann16json_abi_v3_11_310basic_jsonINSt3__13mapENS2_6vectorENS2_12basic_stringIcNS2_11char_traitsIcEENS2_9allocatorIcEEEEbxydS8_NS0_14adl_serializerENS4_IhNS8_IhEEEEvEC2IRyyLi0EEEOT_, symObjAddr: 0x27704, symBinAddr: 0x1000285C0, symSize: 0x5C }
  - { offset: 0x380F6, size: 0x8, addend: 0x0, symName: __ZN8nlohmann16json_abi_v3_11_314adl_serializerIyvE7to_jsonINS0_10basic_jsonINSt3__13mapENS5_6vectorENS5_12basic_stringIcNS5_11char_traitsIcEENS5_9allocatorIcEEEEbxydSB_S1_NS7_IhNSB_IhEEEEvEERyEEDTcmclL_ZNS0_7to_jsonEEfp_clsr3stdE7forwardIT0_Efp0_EEcvv_EERT_OSI_, symObjAddr: 0x27760, symBinAddr: 0x10002861C, symSize: 0x34 }
  - { offset: 0x38139, size: 0x8, addend: 0x0, symName: __ZNK8nlohmann16json_abi_v3_11_36detail10to_json_fnclINS0_10basic_jsonINSt3__13mapENS5_6vectorENS5_12basic_stringIcNS5_11char_traitsIcEENS5_9allocatorIcEEEEbxydSB_NS0_14adl_serializerENS7_IhNSB_IhEEEEvEERyEEDTcmcl7to_jsonfp_clsr3stdE7forwardIT0_Efp0_EEcvv_EERT_OSJ_, symObjAddr: 0x27794, symBinAddr: 0x100028650, symSize: 0x34 }
  - { offset: 0x3818F, size: 0x8, addend: 0x0, symName: __ZN8nlohmann16json_abi_v3_11_36detail20external_constructorILNS1_7value_tE6EE9constructINS0_10basic_jsonINSt3__13mapENS7_6vectorENS7_12basic_stringIcNS7_11char_traitsIcEENS7_9allocatorIcEEEEbxydSD_NS0_14adl_serializerENS9_IhNSD_IhEEEEvEEEEvRT_NSK_17number_unsigned_tE, symObjAddr: 0x277F4, symBinAddr: 0x1000286B0, symSize: 0x70 }
  - { offset: 0x381C9, size: 0x8, addend: 0x0, symName: __ZN8nlohmann16json_abi_v3_11_36detail11parse_errorC1ERKS2_, symObjAddr: 0x27864, symBinAddr: 0x100028720, symSize: 0x34 }
  - { offset: 0x381FE, size: 0x8, addend: 0x0, symName: __ZN8nlohmann16json_abi_v3_11_36detail11parse_errorC2ERKS2_, symObjAddr: 0x27898, symBinAddr: 0x100028754, symSize: 0x50 }
  - { offset: 0x38233, size: 0x8, addend: 0x0, symName: __ZN8nlohmann16json_abi_v3_11_36detail11parse_errorD0Ev, symObjAddr: 0x278E8, symBinAddr: 0x1000287A4, symSize: 0x30 }
  - { offset: 0x3825F, size: 0x8, addend: 0x0, symName: __ZNKSt3__16vectorIcNS_9allocatorIcEEE5beginB8ne180100Ev, symObjAddr: 0x27918, symBinAddr: 0x1000287D4, symSize: 0x30 }
  - { offset: 0x38287, size: 0x8, addend: 0x0, symName: __ZNKSt3__16vectorIcNS_9allocatorIcEEE3endB8ne180100Ev, symObjAddr: 0x27948, symBinAddr: 0x100028804, symSize: 0x30 }
  - { offset: 0x382E3, size: 0x8, addend: 0x0, symName: __ZNSt3__15arrayIcLm9EE4dataB8ne180100Ev, symObjAddr: 0x27978, symBinAddr: 0x100028834, symSize: 0x14 }
  - { offset: 0x38309, size: 0x8, addend: 0x0, symName: __ZNKSt3__15arrayIcLm9EE4sizeB8ne180100Ev, symObjAddr: 0x2798C, symBinAddr: 0x100028848, symSize: 0x14 }
  - { offset: 0x3832F, size: 0x8, addend: 0x0, symName: __ZNSt3__112basic_stringIcNS_11char_traitsIcEENS_9allocatorIcEEEpLB8ne180100EPKc, symObjAddr: 0x279A0, symBinAddr: 0x10002885C, symSize: 0x2C }
  - { offset: 0x38364, size: 0x8, addend: 0x0, symName: __ZNSt3__111__wrap_iterIPKcEppB8ne180100Ev, symObjAddr: 0x279CC, symBinAddr: 0x100028888, symSize: 0x20 }
  - { offset: 0x3838A, size: 0x8, addend: 0x0, symName: __ZNKSt3__16vectorIcNS_9allocatorIcEEE11__make_iterB8ne180100EPKc, symObjAddr: 0x279EC, symBinAddr: 0x1000288A8, symSize: 0x30 }
  - { offset: 0x383BF, size: 0x8, addend: 0x0, symName: __ZN8nlohmann16json_abi_v3_11_36detail11parse_error15position_stringERKNS1_10position_tE, symObjAddr: 0x27B18, symBinAddr: 0x1000289D4, symSize: 0xBC }
  - { offset: 0x383E2, size: 0x8, addend: 0x0, symName: __ZN8nlohmann16json_abi_v3_11_36detail11parse_errorC1EimPKc, symObjAddr: 0x27BD4, symBinAddr: 0x100028A90, symSize: 0x44 }
  - { offset: 0x38436, size: 0x8, addend: 0x0, symName: __ZN8nlohmann16json_abi_v3_11_36detail11parse_errorC2EimPKc, symObjAddr: 0x280F0, symBinAddr: 0x100028FAC, symSize: 0x58 }
  - { offset: 0x3848A, size: 0x8, addend: 0x0, symName: __ZNKSt3__112basic_stringIcNS_11char_traitsIcEENS_9allocatorIcEEE5emptyB8ne180100Ev, symObjAddr: 0x28148, symBinAddr: 0x100029004, symSize: 0x30 }
  - { offset: 0x384B0, size: 0x8, addend: 0x0, symName: __ZNK8nlohmann16json_abi_v3_11_36detail5lexerINS0_10basic_jsonINSt3__13mapENS4_6vectorENS4_12basic_stringIcNS4_11char_traitsIcEENS4_9allocatorIcEEEEbxydSA_NS0_14adl_serializerENS6_IhNSA_IhEEEEvEENS1_22iterator_input_adapterINS4_11__wrap_iterIPKcEEEEE17get_error_messageEv, symObjAddr: 0x28338, symBinAddr: 0x1000291F4, symSize: 0x18 }
  - { offset: 0x384D6, size: 0x8, addend: 0x0, symName: __ZN8nlohmann16json_abi_v3_11_36detail10lexer_baseINS0_10basic_jsonINSt3__13mapENS4_6vectorENS4_12basic_stringIcNS4_11char_traitsIcEENS4_9allocatorIcEEEEbxydSA_NS0_14adl_serializerENS6_IhNSA_IhEEEEvEEE15token_type_nameENSH_10token_typeE, symObjAddr: 0x28414, symBinAddr: 0x1000292D0, symSize: 0x14C }
  - { offset: 0x384F9, size: 0x8, addend: 0x0, symName: __ZN8nlohmann16json_abi_v3_11_36detail11parse_errorD2Ev, symObjAddr: 0x28744, symBinAddr: 0x100029600, symSize: 0x2C }
